(dp0
S'BHMCatS1004V'
p1
(dp2
cnumpy.core.multiarray
scalar
p3
(cnumpy
dtype
p4
(S'S13'
p5
I0
I1
tp6
Rp7
(I3
S'|'
p8
NNNI13
I1
I0
tp9
bS'binary_FeHfit'
p10
tp11
Rp12
F0.0
sg3
(g4
(S'S16'
p13
I0
I1
tp14
Rp15
(I3
S'|'
p16
NNNI16
I1
I0
tp17
bS'star2_str_StarID'
p18
tp19
Rp20
S'NICHE-004 B'
p21
sg3
(g4
(S'S9'
p22
I0
I1
tp23
Rp24
(I3
S'|'
p25
NNNI9
I1
I0
tp26
bS'binary_BV'
p27
tp28
Rp29
F-2.0
sg3
(g4
(S'S14'
p30
I0
I1
tp31
Rp32
(I3
S'|'
p33
NNNI14
I1
I0
tp34
bS'star2_vsinierr'
p35
tp36
Rp37
F-2.0
sg3
(g4
(S'S2'
p38
I0
I1
tp39
Rp40
(I3
S'|'
p41
NNNI2
I1
I0
tp42
bS'No'
p43
tp44
Rp45
I1004
sg3
(g4
(S'S7'
p46
I0
I1
tp47
Rp48
(I3
S'|'
p49
NNNI7
I1
I0
tp50
bS'star2_T'
p51
tp52
Rp53
F-2.0
sg3
(g4
(S'S13'
p54
I0
I1
tp55
Rp56
(I3
S'|'
p57
NNNI13
I1
I0
tp58
bS'star2_loggerr'
p59
tp60
Rp61
F-2.0
sg3
(g4
(S'S13'
p62
I0
I1
tp63
Rp64
(I3
S'|'
p65
NNNI13
I1
I0
tp66
bS'star2_Proterr'
p67
tp68
Rp69
F-2.0
sg3
(g4
(S'S10'
p70
I0
I1
tp71
Rp72
(I3
S'|'
p73
NNNI10
I1
I0
tp74
bS'star1_Rerr'
p75
tp76
Rp77
F0.0
sg3
(g4
(S'S7'
p78
I0
I1
tp79
Rp80
(I3
S'|'
p81
NNNI7
I1
I0
tp82
bS'star2_R'
p83
tp84
Rp85
F-2.0
sg3
(g4
(S'S13'
p86
I0
I1
tp87
Rp88
(I3
S'|'
p89
NNNI13
I1
I0
tp90
bS'binary_taumax'
p91
tp92
Rp93
F-2.0
sg3
(g4
(S'S7'
p94
I0
I1
tp95
Rp96
(I3
S'|'
p97
NNNI7
I1
I0
tp98
bS'star2_M'
p99
tp100
Rp101
F0.7
sg3
(g4
(S'S16'
p102
I0
I1
tp103
Rp104
(I3
S'|'
p105
NNNI16
I1
I0
tp106
bS'binary_str_SysID'
p107
tp108
Rp109
S'NICHE-004'
p110
sg3
(g4
(S'S11'
p111
I0
I1
tp112
Rp113
(I3
S'|'
p114
NNNI11
I1
I0
tp115
bS'binary_Zfit'
p116
tp117
Rp118
g3
(g4
(S'f8'
p119
I0
I1
tp120
Rp121
(I3
S'<'
p122
NNNI-1
I-1
I0
tp123
bS'0\xa8\x1bgj\x94\x8f?'
p124
tp125
Rp126
sg3
(g4
(S'S3'
p127
I0
I1
tp128
Rp129
(I3
S'|'
p130
NNNI3
I1
I0
tp131
bS'DEC'
p132
tp133
Rp134
F-2.0
sg3
(g4
(S'S4'
p135
I0
I1
tp136
Rp137
(I3
S'|'
p138
NNNI4
I1
I0
tp139
bS'Type'
p140
tp141
Rp142
S'V'
p143
sg3
(g4
(S'S13'
p144
I0
I1
tp145
Rp146
(I3
S'|'
p147
NNNI13
I1
I0
tp148
bS'star1_loggerr'
p149
tp150
Rp151
F-2.0
sg3
(g4
(S'S10'
p152
I0
I1
tp153
Rp154
(I3
S'|'
p155
NNNI10
I1
I0
tp156
bS'star2_Rerr'
p157
tp158
Rp159
F0.0
sg3
(g4
(S'S15'
p160
I0
I1
tp161
Rp162
(I3
S'|'
p163
NNNI15
I1
I0
tp164
bS'star1_str_Stype'
p165
tp166
Rp167
S'-'
p168
sS'PlanetsData'
p169
(lp170
(dp171
g3
(g4
(S'S7'
p172
I0
I1
tp173
Rp174
(I3
S'|'
p175
NNNI7
I1
I0
tp176
bS'BHMCatP'
p177
tp178
Rp179
S'BHMCatPV1004'
p180
sg3
(g4
(S'S11'
p181
I0
I1
tp182
Rp183
(I3
S'|'
p184
NNNI11
I1
I0
tp185
bS'planet_Merr'
p186
tp187
Rp188
F0.0
sg3
(g4
(S'S11'
p189
I0
I1
tp190
Rp191
(I3
S'|'
p192
NNNI11
I1
I0
tp193
bS'planet_eorb'
p194
tp195
Rp196
F0.0
sg3
(g4
(S'S7'
p197
I0
I1
tp198
Rp199
(I3
S'|'
p200
NNNI7
I1
I0
tp201
bS'BHMCatS'
p202
tp203
Rp204
S'BHMCatS1004V'
p205
sg3
(g4
(S'S14'
p206
I0
I1
tp207
Rp208
(I3
S'|'
p209
NNNI14
I1
I0
tp210
bS'planet_eorberr'
p211
tp212
Rp213
F0.0
sg3
(g4
(S'S3'
p214
I0
I1
tp215
Rp216
(I3
S'|'
p217
NNNI3
I1
I0
tp218
bS'Nop'
p219
tp220
Rp221
S'1004'
p222
sg3
(g4
(S'S10'
p223
I0
I1
tp224
Rp225
(I3
S'|'
p226
NNNI10
I1
I0
tp227
bS'planet_ADS'
p228
tp229
Rp230
S';'
p231
sg3
(g4
(S'S8'
p232
I0
I1
tp233
Rp234
(I3
S'|'
p235
NNNI8
I1
I0
tp236
bS'planet_R'
p237
tp238
Rp239
F1.000001
sg3
(g4
(S'S6'
p240
I0
I1
tp241
Rp242
(I3
S'|'
p243
NNNI6
I1
I0
tp244
bS'Nopstr'
p245
tp246
Rp247
S'1004'
p248
sg3
(g4
(S'S11'
p249
I0
I1
tp250
Rp251
(I3
S'|'
p252
NNNI11
I1
I0
tp253
bS'planet_Porb'
p254
tp255
Rp256
F0.0
sg3
(g4
(S'S14'
p257
I0
I1
tp258
Rp259
(I3
S'|'
p260
NNNI14
I1
I0
tp261
bS'planet_aorberr'
p262
tp263
Rp264
F0.0
sg3
(g4
(S'S5'
p265
I0
I1
tp266
Rp267
(I3
S'|'
p268
NNNI5
I1
I0
tp269
bS'SysID'
p270
tp271
Rp272
S'NICHE-004'
p273
sg3
(g4
(S'S8'
p274
I0
I1
tp275
Rp276
(I3
S'|'
p277
NNNI8
I1
I0
tp278
bS'planet_M'
p279
tp280
Rp281
F1.000001
sg3
(g4
(S'S11'
p282
I0
I1
tp283
Rp284
(I3
S'|'
p285
NNNI11
I1
I0
tp286
bS'planet_worb'
p287
tp288
Rp289
F0.0
sg3
(g4
(S'S11'
p290
I0
I1
tp291
Rp292
(I3
S'|'
p293
NNNI11
I1
I0
tp294
bS'planet_aorb'
p295
tp296
Rp297
F1.0
sg3
(g4
(S'S14'
p298
I0
I1
tp299
Rp300
(I3
S'|'
p301
NNNI14
I1
I0
tp302
bS'planet_Porberr'
p303
tp304
Rp305
F0.0
sg3
(g4
(S'S14'
p306
I0
I1
tp307
Rp308
(I3
S'|'
p309
NNNI14
I1
I0
tp310
bS'planet_worberr'
p311
tp312
Rp313
F0.0
sg3
(g4
(S'S11'
p314
I0
I1
tp315
Rp316
(I3
S'|'
p317
NNNI11
I1
I0
tp318
bS'planet_Morb'
p319
tp320
Rp321
F1.0
sg3
(g4
(S'S19'
p322
I0
I1
tp323
Rp324
(I3
S'|'
p325
NNNI19
I1
I0
tp326
bS'planet_str_PlanetID'
p327
tp328
Rp329
S'NICHE-004h'
p330
sg3
(g4
(S'S4'
p331
I0
I1
tp332
Rp333
(I3
S'|'
p334
NNNI4
I1
I0
tp335
bS'Type'
p336
tp337
Rp338
S'h'
p339
sg3
(g4
(S'S11'
p340
I0
I1
tp341
Rp342
(I3
S'|'
p343
NNNI11
I1
I0
tp344
bS'planet_Rerr'
p345
tp346
Rp347
F0.0
sasg3
(g4
(S'S15'
p348
I0
I1
tp349
Rp350
(I3
S'|'
p351
NNNI15
I1
I0
tp352
bS'star2_str_Stype'
p353
tp354
Rp355
g168
sg3
(g4
(S'S9'
p356
I0
I1
tp357
Rp358
(I3
S'|'
p359
NNNI9
I1
I0
tp360
bS'SourceCat'
p361
tp362
Rp363
S'NICHE'
p364
sg3
(g4
(S'S10'
p365
I0
I1
tp366
Rp367
(I3
S'|'
p368
NNNI10
I1
I0
tp369
bS'star2_logg'
p370
tp371
Rp372
F-2.0
sg3
(g4
(S'S11'
p373
I0
I1
tp374
Rp375
(I3
S'|'
p376
NNNI11
I1
I0
tp377
bS'star2_vsini'
p378
tp379
Rp380
F-2.0
sg3
(g4
(S'S8'
p381
I0
I1
tp382
Rp383
(I3
S'|'
p384
NNNI8
I1
I0
tp385
bS'SourceID'
p386
tp387
Rp388
S'4'
p389
sS'PlanetsModel'
p390
(dp391
S'BHMCatPV1004'
p392
(dp393
g3
(g4
(S'S10'
p394
I0
I1
tp395
Rp396
(I3
S'|'
p397
NNNI10
I1
I0
tp398
bS'star2_Pini'
p399
tp400
Rp401
F7.0
sg3
(g4
(S'S11'
p402
I0
I1
tp403
Rp404
(I3
S'|'
p405
NNNI11
I1
I0
tp406
bS'star2_taums'
p407
tp408
Rp409
F0.0
sg3
(g4
(S'S11'
p410
I0
I1
tp411
Rp412
(I3
S'|'
p413
NNNI11
I1
I0
tp414
bS'star1_taums'
p415
tp416
Rp417
F0.0
sg3
(g4
(S'S7'
p418
I0
I1
tp419
Rp420
(I3
S'|'
p421
NNNI7
I1
I0
tp422
bS'star2_Z'
p423
tp424
Rp425
F0.0
sg3
(g4
(S'S10'
p426
I0
I1
tp427
Rp428
(I3
S'|'
p429
NNNI10
I1
I0
tp430
bS'planet_tau'
p431
tp432
Rp433
F1.0
sg3
(g4
(S'S9'
p434
I0
I1
tp435
Rp436
(I3
S'|'
p437
NNNI9
I1
I0
tp438
bS'star1_FeH'
p439
tp440
Rp441
F0.0
sg3
(g4
(S'S8'
p442
I0
I1
tp443
Rp444
(I3
S'|'
p445
NNNI8
I1
I0
tp446
bS'star2_K1'
p447
tp448
Rp449
F11.3
sg3
(g4
(S'S17'
p450
I0
I1
tp451
Rp452
(I3
S'|'
p453
NNNI17
I1
I0
tp454
bS'hz_str_outcrit_wd'
p455
tp456
Rp457
S"'early mars'"
p458
sg3
(g4
(S'S14'
p459
I0
I1
tp460
Rp461
(I3
S'|'
p462
NNNI14
I1
I0
tp463
bS'interaction_nP'
p464
tp465
Rp466
F4.5
sg3
(g4
(S'S7'
p467
I0
I1
tp468
Rp469
(I3
S'|'
p470
NNNI7
I1
I0
tp471
bS'star1_n'
p472
tp473
Rp474
F1.5
sg3
(g4
(S'S8'
p475
I0
I1
tp476
Rp477
(I3
S'|'
p478
NNNI8
I1
I0
tp479
bS'planet_R'
p480
tp481
Rp482
F1.000001
sg3
(g4
(S'S13'
p483
I0
I1
tp484
Rp485
(I3
S'|'
p486
NNNI13
I1
I0
tp487
bS'star1_taudisk'
p488
tp489
Rp490
F0.002
sg3
(g4
(S'S11'
p491
I0
I1
tp492
Rp493
(I3
S'|'
p494
NNNI11
I1
I0
tp495
bS'planet_Prot'
p496
tp497
Rp498
F1.0
sg3
(g4
(S'S14'
p499
I0
I1
tp500
Rp501
(I3
S'|'
p502
NNNI14
I1
I0
tp503
bS'rotation_fdiss'
p504
tp505
Rp506
F1.0
sg3
(g4
(S'S9'
p507
I0
I1
tp508
Rp509
(I3
S'|'
p510
NNNI9
I1
I0
tp511
bS'star2_FeH'
p512
tp513
Rp514
F0.0
sg3
(g4
(S'S18'
p515
I0
I1
tp516
Rp517
(I3
S'|'
p518
NNNI18
I1
I0
tp519
bS'star1_str_rotmodel'
p520
tp521
Rp522
S'Chaboyer'
p523
sg3
(g4
(S'S15'
p524
I0
I1
tp525
Rp526
(I3
S'|'
p527
NNNI15
I1
I0
tp528
bS'rotation_tauint'
p529
tp530
Rp531
F2.0
sg3
(g4
(S'S7'
p532
I0
I1
tp533
Rp534
(I3
S'|'
p535
NNNI7
I1
I0
tp536
bS'star2_A'
p537
tp538
Rp539
F0.95
sg3
(g4
(S'S7'
p540
I0
I1
tp541
Rp542
(I3
S'|'
p543
NNNI7
I1
I0
tp544
bS'star2_Y'
p545
tp546
Rp547
F0.275556
sg3
(g4
(S'S7'
p548
I0
I1
tp549
Rp550
(I3
S'|'
p551
NNNI7
I1
I0
tp552
bS'star1_A'
p553
tp554
Rp555
F0.95
sg3
(g4
(S'S8'
p556
I0
I1
tp557
Rp558
(I3
S'|'
p559
NNNI8
I1
I0
tp560
bS'planet_M'
p561
tp562
Rp563
F1.000001
sg3
(g4
(S'S8'
p564
I0
I1
tp565
Rp566
(I3
S'|'
p567
NNNI8
I1
I0
tp568
bS'star1_Kc'
p569
tp570
Rp571
F5e+40
sg3
(g4
(S'S8'
p572
I0
I1
tp573
Rp574
(I3
S'|'
p575
NNNI8
I1
I0
tp576
bS'star1_Kw'
p577
tp578
Rp579
F4.7e+40
sg3
(g4
(S'S7'
p580
I0
I1
tp581
Rp582
(I3
S'|'
p583
NNNI7
I1
I0
tp584
bS'star2_n'
p585
tp586
Rp587
F1.5
sg3
(g4
(S'S17'
p588
I0
I1
tp589
Rp590
(I3
S'|'
p591
NNNI17
I1
I0
tp592
bS'interaction_muatm'
p593
tp594
Rp595
F44.0
sg3
(g4
(S'S7'
p596
I0
I1
tp597
Rp598
(I3
S'|'
p599
NNNI7
I1
I0
tp600
bS'star1_Z'
p601
tp602
Rp603
F0.0
sg3
(g4
(S'S7'
p604
I0
I1
tp605
Rp606
(I3
S'|'
p607
NNNI7
I1
I0
tp608
bS'star1_Y'
p609
tp610
Rp611
F0.275556
sg3
(g4
(S'S10'
p612
I0
I1
tp613
Rp614
(I3
S'|'
p615
NNNI10
I1
I0
tp616
bS'star1_tauc'
p617
tp618
Rp619
F5.0
sg3
(g4
(S'S7'
p620
I0
I1
tp621
Rp622
(I3
S'|'
p623
NNNI7
I1
I0
tp624
bS'star2_a'
p625
tp626
Rp627
F1.0
sg3
(g4
(S'S18'
p628
I0
I1
tp629
Rp630
(I3
S'|'
p631
NNNI18
I1
I0
tp632
bS'star2_str_rotmodel'
p633
tp634
Rp635
S'Chaboyer'
p636
sg3
(g4
(S'S10'
p637
I0
I1
tp638
Rp639
(I3
S'|'
p640
NNNI10
I1
I0
tp641
bS'star1_wsat'
p642
tp643
Rp644
F0.0
sg3
(g4
(S'S11'
p645
I0
I1
tp646
Rp647
(I3
S'|'
p648
NNNI11
I1
I0
tp649
bS'planet_fHHe'
p650
tp651
Rp652
F0.3
sg3
(g4
(S'S17'
p653
I0
I1
tp654
Rp655
(I3
S'|'
p656
NNNI17
I1
I0
tp657
bS'hz_str_outcrit_nr'
p658
tp659
Rp660
S"'maximum greenhouse'"
p661
sg3
(g4
(S'S17'
p662
I0
I1
tp663
Rp664
(I3
S'|'
p665
NNNI17
I1
I0
tp666
bS'interaction_alpha'
p667
tp668
Rp669
F0.3
sg3
(g4
(S'S7'
p670
I0
I1
tp671
Rp672
(I3
S'|'
p673
NNNI7
I1
I0
tp674
bS'star1_a'
p675
tp676
Rp677
F1.0
sg3
(g4
(S'S22'
p678
I0
I1
tp679
Rp680
(I3
S'|'
p681
NNNI22
I1
I0
tp682
bS'interaction_str_refobj'
p683
tp684
Rp685
S"'Earth'"
p686
sg3
(g4
(S'S16'
p687
I0
I1
tp688
Rp689
(I3
S'|'
p690
NNNI16
I1
I0
tp691
bS'interaction_Mmin'
p692
tp693
Rp694
F0.01
sg3
(g4
(S'S16'
p695
I0
I1
tp696
Rp697
(I3
S'|'
p698
NNNI16
I1
I0
tp699
bS'interaction_Mmax'
p700
tp701
Rp702
F10.0
sg3
(g4
(S'S9'
p703
I0
I1
tp704
Rp705
(I3
S'|'
p706
NNNI9
I1
I0
tp707
bS'star1_tau'
p708
tp709
Rp710
F1.0
sg3
(g4
(S'S18'
p711
I0
I1
tp712
Rp713
(I3
S'|'
p714
NNNI18
I1
I0
tp715
bS'interaction_tauref'
p716
tp717
Rp718
F2.0
sg3
(g4
(S'S14'
p719
I0
I1
tp720
Rp721
(I3
S'|'
p722
NNNI14
I1
I0
tp723
bS'interaction_nM'
p724
tp725
Rp726
F3.0
sg3
(g4
(S'S15'
p727
I0
I1
tp728
Rp729
(I3
S'|'
p730
NNNI15
I1
I0
tp731
bS'star2_str_model'
p732
tp733
Rp734
S'PARSEC'
p735
sg3
(g4
(S'S15'
p736
I0
I1
tp737
Rp738
(I3
S'|'
p739
NNNI15
I1
I0
tp740
bS'star1_str_model'
p741
tp742
Rp743
S'PARSEC'
p744
sg3
(g4
(S'S8'
p745
I0
I1
tp746
Rp747
(I3
S'|'
p748
NNNI8
I1
I0
tp749
bS'star2_Kc'
p750
tp751
Rp752
F5e+40
sg3
(g4
(S'S8'
p753
I0
I1
tp754
Rp755
(I3
S'|'
p756
NNNI8
I1
I0
tp757
bS'star2_Kw'
p758
tp759
Rp760
F4.7e+40
sg3
(g4
(S'S7'
p761
I0
I1
tp762
Rp763
(I3
S'|'
p764
NNNI7
I1
I0
tp765
bS'BHMCatP'
p766
tp767
Rp768
S'BHMCatPV1004'
p769
sg3
(g4
(S'S18'
p770
I0
I1
tp771
Rp772
(I3
S'|'
p773
NNNI18
I1
I0
tp774
bS'interaction_tauini'
p775
tp776
Rp777
F0.01
sg3
(g4
(S'S7'
p778
I0
I1
tp779
Rp780
(I3
S'|'
p781
NNNI7
I1
I0
tp782
bS'BHMCatS'
p783
tp784
Rp785
S'BHMCatS1004V'
p786
sg3
(g4
(S'S8'
p787
I0
I1
tp788
Rp789
(I3
S'|'
p790
NNNI8
I1
I0
tp791
bS'PlanetID'
p792
tp793
Rp794
S'NICHE-004h'
p795
sg3
(g4
(S'S10'
p796
I0
I1
tp797
Rp798
(I3
S'|'
p799
NNNI10
I1
I0
tp800
bS'star1_Pini'
p801
tp802
Rp803
F7.0
sg3
(g4
(S'S5'
p804
I0
I1
tp805
Rp806
(I3
S'|'
p807
NNNI5
I1
I0
tp808
bS'SysID'
p809
tp810
Rp811
S'NICHE-004'
p812
sg3
(g4
(S'S16'
p813
I0
I1
tp814
Rp815
(I3
S'|'
p816
NNNI16
I1
I0
tp817
bS'hz_str_incrit_wd'
p818
tp819
Rp820
S"'recent venus'"
p821
sg3
(g4
(S'S16'
p822
I0
I1
tp823
Rp824
(I3
S'|'
p825
NNNI16
I1
I0
tp826
bS'hz_str_incrit_nr'
p827
tp828
Rp829
S"'runaway greenhouse'"
p830
sg3
(g4
(S'S8'
p831
I0
I1
tp832
Rp833
(I3
S'|'
p834
NNNI8
I1
I0
tp835
bS'star1_K1'
p836
tp837
Rp838
F11.3
sg3
(g4
(S'S10'
p839
I0
I1
tp840
Rp841
(I3
S'|'
p842
NNNI10
I1
I0
tp843
bS'star2_wsat'
p844
tp845
Rp846
F0.0
sg3
(g4
(S'S9'
p847
I0
I1
tp848
Rp849
(I3
S'|'
p850
NNNI9
I1
I0
tp851
bS'star2_tau'
p852
tp853
Rp854
F1.0
sg3
(g4
(S'S10'
p855
I0
I1
tp856
Rp857
(I3
S'|'
p858
NNNI10
I1
I0
tp859
bS'star2_tauc'
p860
tp861
Rp862
F5.0
sg3
(g4
(S'S13'
p863
I0
I1
tp864
Rp865
(I3
S'|'
p866
NNNI13
I1
I0
tp867
bS'star2_taudisk'
p868
tp869
Rp870
F0.002
sg3
(g4
(S'S10'
p871
I0
I1
tp872
Rp873
(I3
S'|'
p874
NNNI10
I1
I0
tp875
bS'planet_CMF'
p876
tp877
Rp878
F0.3
sssg3
(g4
(S'S10'
p879
I0
I1
tp880
Rp881
(I3
S'|'
p882
NNNI10
I1
I0
tp883
bS'star1_logg'
p884
tp885
Rp886
F-2.0
sg3
(g4
(S'S11'
p887
I0
I1
tp888
Rp889
(I3
S'|'
p890
NNNI11
I1
I0
tp891
bS'star1_Protv'
p892
tp893
Rp894
F-1.0
sg3
(g4
(S'S10'
p895
I0
I1
tp896
Rp897
(I3
S'|'
p898
NNNI10
I1
I0
tp899
bS'binary_ADS'
p900
tp901
Rp902
S'2014arXiv1408.5163M;'
p903
sg3
(g4
(S'S7'
p904
I0
I1
tp905
Rp906
(I3
S'|'
p907
NNNI7
I1
I0
tp908
bS'star1_M'
p909
tp910
Rp911
F1.0
sg3
(g4
(S'S7'
p912
I0
I1
tp913
Rp914
(I3
S'|'
p915
NNNI7
I1
I0
tp916
bS'star1_R'
p917
tp918
Rp919
F-2.0
sg3
(g4
(S'S13'
p920
I0
I1
tp921
Rp922
(I3
S'|'
p923
NNNI13
I1
I0
tp924
bS'star1_Proterr'
p925
tp926
Rp927
F-2.0
sg3
(g4
(S'S7'
p928
I0
I1
tp929
Rp930
(I3
S'|'
p931
NNNI7
I1
I0
tp932
bS'star1_T'
p933
tp934
Rp935
F-2.0
sg3
(g4
(S'S11'
p936
I0
I1
tp937
Rp938
(I3
S'|'
p939
NNNI11
I1
I0
tp940
bS'binary_ibin'
p941
tp942
Rp943
F-2.0
sg3
(g4
(S'S10'
p944
I0
I1
tp945
Rp946
(I3
S'|'
p947
NNNI10
I1
I0
tp948
bS'star2_Prot'
p949
tp950
Rp951
F-2.0
sg3
(g4
(S'S11'
p952
I0
I1
tp953
Rp954
(I3
S'|'
p955
NNNI11
I1
I0
tp956
bS'binary_ebin'
p957
tp958
Rp959
F0.4
sg3
(g4
(S'S10'
p960
I0
I1
tp961
Rp962
(I3
S'|'
p963
NNNI10
I1
I0
tp964
bS'star1_Merr'
p965
tp966
Rp967
F0.0
sg3
(g4
(S'S11'
p968
I0
I1
tp969
Rp970
(I3
S'|'
p971
NNNI11
I1
I0
tp972
bS'binary_derr'
p973
tp974
Rp975
F-1.0
sg3
(g4
(S'S7'
p976
I0
I1
tp977
Rp978
(I3
S'|'
p979
NNNI7
I1
I0
tp980
bS'Planets'
p981
tp982
Rp983
S'BHMCatPV1004;'
p984
sg3
(g4
(S'S10'
p985
I0
I1
tp986
Rp987
(I3
S'|'
p988
NNNI10
I1
I0
tp989
bS'star2_Terr'
p990
tp991
Rp992
F-2.0
sg3
(g4
(S'S8'
p993
I0
I1
tp994
Rp995
(I3
S'|'
p996
NNNI8
I1
I0
tp997
bS'binary_q'
p998
tp999
Rp1000
F0.7
sg3
(g4
(S'S5'
p1001
I0
I1
tp1002
Rp1003
(I3
S'|'
p1004
NNNI5
I1
I0
tp1005
bS'Notes'
p1006
tp1007
Rp1008
S''
p1009
sg3
(g4
(S'S16'
p1010
I0
I1
tp1011
Rp1012
(I3
S'|'
p1013
NNNI16
I1
I0
tp1014
bS'star1_str_StarID'
p1015
tp1016
Rp1017
S'NICHE-004 A'
p1018
sg3
(g4
(S'S2'
p1019
I0
I1
tp1020
Rp1021
(I3
S'|'
p1022
NNNI2
I1
I0
tp1023
bS'RA'
p1024
tp1025
Rp1026
F-2.0
sg3
(g4
(S'S16'
p1027
I0
I1
tp1028
Rp1029
(I3
S'|'
p1030
NNNI16
I1
I0
tp1031
bS'binary_FeHfiterr'
p1032
tp1033
Rp1034
F-1.0
sg3
(g4
(S'S10'
p1035
I0
I1
tp1036
Rp1037
(I3
S'|'
p1038
NNNI10
I1
I0
tp1039
bS'star1_Prot'
p1040
tp1041
Rp1042
F-2.0
sg3
(g4
(S'S8'
p1043
I0
I1
tp1044
Rp1045
(I3
S'|'
p1046
NNNI8
I1
I0
tp1047
bS'binary_d'
p1048
tp1049
Rp1050
F-1.0
sg3
(g4
(S'S11'
p1051
I0
I1
tp1052
Rp1053
(I3
S'|'
p1054
NNNI11
I1
I0
tp1055
bS'binary_wbin'
p1056
tp1057
Rp1058
F-1.0
sg3
(g4
(S'S14'
p1059
I0
I1
tp1060
Rp1061
(I3
S'|'
p1062
NNNI14
I1
I0
tp1063
bS'star2_Protverr'
p1064
tp1065
Rp1066
F-1.0
sg3
(g4
(S'S11'
p1067
I0
I1
tp1068
Rp1069
(I3
S'|'
p1070
NNNI11
I1
I0
tp1071
bS'binary_abin'
p1072
tp1073
Rp1074
F0.142063877260615
sg3
(g4
(S'S11'
p1075
I0
I1
tp1076
Rp1077
(I3
S'|'
p1078
NNNI11
I1
I0
tp1079
bS'star2_Protv'
p1080
tp1081
Rp1082
F-1.0
sg3
(g4
(S'S8'
p1083
I0
I1
tp1084
Rp1085
(I3
S'|'
p1086
NNNI8
I1
I0
tp1087
bS'binary_V'
p1088
tp1089
Rp1090
F-2.0
sg3
(g4
(S'S7'
p1091
I0
I1
tp1092
Rp1093
(I3
S'|'
p1094
NNNI7
I1
I0
tp1095
bS'BHMCatS'
p1096
tp1097
Rp1098
g1
sg3
(g4
(S'S9'
p1099
I0
I1
tp1100
Rp1101
(I3
S'|'
p1102
NNNI9
I1
I0
tp1103
bS'binary_Lx'
p1104
tp1105
Rp1106
F-2.0
sg3
(g4
(S'S10'
p1107
I0
I1
tp1108
Rp1109
(I3
S'|'
p1110
NNNI10
I1
I0
tp1111
bS'star2_Merr'
p1112
tp1113
Rp1114
F0.0
sg3
(g4
(S'S14'
p1115
I0
I1
tp1116
Rp1117
(I3
S'|'
p1118
NNNI14
I1
I0
tp1119
bS'star1_vsinierr'
p1120
tp1121
Rp1122
F-2.0
sg3
(g4
(S'S5'
p1123
I0
I1
tp1124
Rp1125
(I3
S'|'
p1126
NNNI5
I1
I0
tp1127
bS'Nostr'
p1128
tp1129
Rp1130
S'1004'
p1131
sg3
(g4
(S'S13'
p1132
I0
I1
tp1133
Rp1134
(I3
S'|'
p1135
NNNI13
I1
I0
tp1136
bS'binary_FeHobs'
p1137
tp1138
Rp1139
F-1.0
sg3
(g4
(S'S13'
p1140
I0
I1
tp1141
Rp1142
(I3
S'|'
p1143
NNNI13
I1
I0
tp1144
bS'binary_taumin'
p1145
tp1146
Rp1147
F-2.0
sg3
(g4
(S'S11'
p1148
I0
I1
tp1149
Rp1150
(I3
S'|'
p1151
NNNI11
I1
I0
tp1152
bS'binary_Pbin'
p1153
tp1154
Rp1155
F15.0
sg3
(g4
(S'S11'
p1156
I0
I1
tp1157
Rp1158
(I3
S'|'
p1159
NNNI11
I1
I0
tp1160
bS'star1_vsini'
p1161
tp1162
Rp1163
F-2.0
sg3
(g4
(S'S11'
p1164
I0
I1
tp1165
Rp1166
(I3
S'|'
p1167
NNNI11
I1
I0
tp1168
bS'binary_Zobs'
p1169
tp1170
Rp1171
F-1.0
sg3
(g4
(S'S14'
p1172
I0
I1
tp1173
Rp1174
(I3
S'|'
p1175
NNNI14
I1
I0
tp1176
bS'star1_Protverr'
p1177
tp1178
Rp1179
F-1.0
sg3
(g4
(S'S11'
p1180
I0
I1
tp1181
Rp1182
(I3
S'|'
p1183
NNNI11
I1
I0
tp1184
bS'binary_dmod'
p1185
tp1186
Rp1187
F-1.0
sg3
(g4
(S'S10'
p1188
I0
I1
tp1189
Rp1190
(I3
S'|'
p1191
NNNI10
I1
I0
tp1192
bS'star1_Terr'
p1193
tp1194
Rp1195
F-2.0
ssS'BHMCatS0033P'
p1196
(dp1197
g12
F-1.0
sg20
S'V1143 Cyg B'
p1198
sg29
F-1.0
sg37
F3.0
sg45
I33
sg53
F6400.0
sg61
F0.016
sg69
F-1.0
sg77
F0.023
sg85
F1.323
sg93
F-1.0
sg101
F1.347
sg109
S'V1143 Cyg'
p1199
sg118
F-1.0
sg134
F54.973794444444444
sg142
S'P'
p1200
sg151
F0.016
sg159
F0.023
sg167
S'F5V'
p1201
sg169
(lp1202
(dp1203
g179
S'BHMCatPP0034'
p1204
sg188
F0.0
sg196
F0.0
sg204
S'BHMCatS0033P'
p1205
sg213
F0.0
sg221
S'34'
p1206
sg230
g231
sg239
F1.000001
sg247
S'0034'
p1207
sg256
F0.0
sg264
F0.0
sg272
S'V1143 Cyg'
p1208
sg281
F1.000001
sg289
F0.0
sg297
F1.0
sg305
F0.0
sg313
F0.0
sg321
F1.0
sg329
S'V1143 Cygh'
p1209
sg338
g339
sg347
F0.0
sasg355
S'F5V'
p1210
sg363
S'EkCat'
p1211
sg372
F4.324
sg380
F28.0
sg388
S'199'
p1212
sg390
(dp1213
S'BHMCatPP0034'
p1214
(dp1215
g401
F7.0
sg409
F0.0
sg417
F0.0
sg425
F0.0
sg433
F1.0
sg441
F0.0
sg449
F11.3
sg457
S"'early mars'"
p1216
sg466
F4.5
sg474
F1.5
sg482
F1.000001
sg490
F0.002
sg498
F1.0
sg506
F1.0
sg514
F0.0
sg522
S'Chaboyer'
p1217
sg531
F2.0
sg539
F0.95
sg547
F0.275556
sg555
F0.95
sg563
F1.000001
sg571
F5e+40
sg579
F4.7e+40
sg587
F1.5
sg595
F44.0
sg603
F0.0
sg611
F0.275556
sg619
F5.0
sg627
F1.0
sg635
S'Chaboyer'
p1218
sg644
F0.0
sg652
F0.3
sg660
S"'maximum greenhouse'"
p1219
sg669
F0.3
sg677
F1.0
sg685
S"'Saturn'"
p1220
sg694
F0.01
sg702
F10.0
sg710
F1.0
sg718
F2.0
sg726
F3.0
sg734
S'PARSEC'
p1221
sg743
S'PARSEC'
p1222
sg752
F5e+40
sg760
F4.7e+40
sg768
S'BHMCatPP0034'
p1223
sg777
F0.01
sg785
S'BHMCatS0033P'
p1224
sg794
S'V1143 Cygh'
p1225
sg803
F7.0
sg811
S'V1143 Cyg'
p1226
sg820
S"'recent venus'"
p1227
sg829
S"'runaway greenhouse'"
p1228
sg838
F11.3
sg846
F0.0
sg854
F1.0
sg862
F5.0
sg870
F0.002
sg878
F0.3
sssg886
F4.323
sg894
g3
(g121
S'\x05~\xd0\xef,7\x0e@'
p1229
tp1230
Rp1231
sg902
S'1987A&A...174..107A;'
p1232
sg911
F1.391
sg919
F1.346
sg927
F-1.0
sg935
F6460.0
sg943
F87.0
sg951
F-1.0
sg959
F0.54
sg967
F0.016
sg975
F2.0
sg983
S'BHMCatPP0034;'
p1233
sg992
F100.0
sg1000
F0.968368080517613
sg1008
g1009
sg1017
S'V1143 Cyg A'
p1234
sg1026
F19.644772222222223
sg1034
F-1.0
sg1042
F-1.0
sg1050
F38.0
sg1058
F-1.0
sg1066
g3
(g121
S'Su\xc7hh]\xd0?'
p1235
tp1236
Rp1237
sg1074
F0.106173536229947
sg1082
g3
(g121
S'\xe1\x08>z\xa4\x17\x03@'
p1238
tp1239
Rp1240
sg1090
F5.887
sg1098
g1196
sg1106
F-1.0
sg1114
F0.013
sg1122
F2.0
sg1130
S'0033'
p1241
sg1139
F-1.0
sg1147
F-1.0
sg1155
F7.64075217
sg1163
F18.0
sg1171
F-1.0
sg1179
g3
(g121
S'\x04p\x80*\xb6\xdb\xda?'
p1242
tp1243
Rp1244
sg1187
F-1.0
sg1195
F100.0
ssS'BHMCatS0034P'
p1245
(dp1246
g12
F-1.0
sg20
S'ASAS J085524-4411.3  B'
p1247
sg29
F-1.0
sg37
F-1.0
sg45
I34
sg53
F-1.0
sg61
F0.009
sg69
F-1.0
sg77
F0.02
sg85
F1.634
sg93
F-1.0
sg101
F1.056
sg109
S'ASAS J085524-4411.3'
p1248
sg118
F-1.0
sg134
F-43.81263055555556
sg142
g1200
sg151
F0.009
sg159
F0.016
sg167
S'F7'
p1249
sg169
(lp1250
(dp1251
g179
S'BHMCatPP0035'
p1252
sg188
F0.0
sg196
F0.0
sg204
S'BHMCatS0034P'
p1253
sg213
F0.0
sg221
S'35'
p1254
sg230
g231
sg239
F1.000001
sg247
S'0035'
p1255
sg256
F0.0
sg264
F0.0
sg272
S'ASAS J085524-4411.3'
p1256
sg281
F1.000001
sg289
F0.0
sg297
F1.0
sg305
F0.0
sg313
F0.0
sg321
F1.0
sg329
S'ASAS J085524-4411.3 h'
p1257
sg338
g339
sg347
F0.0
sasg355
g168
sg363
S'EkCat'
p1258
sg372
F4.03509043777324
sg380
F-1.0
sg388
S'95'
p1259
sg390
(dp1260
S'BHMCatPP0035'
p1261
(dp1262
g401
F7.0
sg409
F0.0
sg417
F0.0
sg425
F0.0
sg433
F1.0
sg441
F0.0
sg449
F11.3
sg457
S"'early mars'"
p1263
sg466
F4.5
sg474
F1.5
sg482
F1.000001
sg490
F0.002
sg498
F1.0
sg506
F1.0
sg514
F0.0
sg522
S'Chaboyer'
p1264
sg531
F2.0
sg539
F0.95
sg547
F0.275556
sg555
F0.95
sg563
F1.000001
sg571
F5e+40
sg579
F4.7e+40
sg587
F1.5
sg595
F44.0
sg603
F0.0
sg611
F0.275556
sg619
F5.0
sg627
F1.0
sg635
S'Chaboyer'
p1265
sg644
F0.0
sg652
F0.3
sg660
S"'maximum greenhouse'"
p1266
sg669
F0.3
sg677
F1.0
sg685
S"'Saturn'"
p1267
sg694
F0.01
sg702
F10.0
sg710
F1.0
sg718
F2.0
sg726
F3.0
sg734
S'PARSEC'
p1268
sg743
S'PARSEC'
p1269
sg752
F5e+40
sg760
F4.7e+40
sg768
S'BHMCatPP0035'
p1270
sg777
F0.01
sg785
S'BHMCatS0034P'
p1271
sg794
S'ASAS J085524-4411.3 h'
p1272
sg803
F7.0
sg811
S'ASAS J085524-4411.3'
p1273
sg820
S"'recent venus'"
p1274
sg829
S"'runaway greenhouse'"
p1275
sg838
F11.3
sg846
F0.0
sg854
F1.0
sg862
F5.0
sg870
F0.002
sg878
F0.3
sssg886
F3.97479165286237
sg894
F-1.0
sg902
S'2008AN....329..835B;'
p1276
sg911
F1.204
sg919
F1.87
sg927
F-1.0
sg935
F-1.0
sg943
F86.4
sg951
F-1.0
sg959
F0.0
sg967
F0.003
sg975
F27.0
sg983
S'BHMCatPP0035;'
p1277
sg992
F-1.0
sg1000
F0.877076411960133
sg1008
g1009
sg1017
S'ASAS J085524-4411.3  A'
p1278
sg1026
F8.923344444444444
sg1034
F-1.0
sg1042
F-1.0
sg1050
F271.0
sg1058
F-1.0
sg1066
F-1.0
sg1074
F0.094397164171123
sg1082
F-1.0
sg1090
F9.984
sg1098
g1245
sg1106
F-1.0
sg1114
F0.003
sg1122
F-1.0
sg1130
S'0034'
p1279
sg1139
F-1.0
sg1147
F-1.0
sg1155
F7.040274
sg1163
F-1.0
sg1171
F-1.0
sg1179
F-1.0
sg1187
F-1.0
sg1195
F-1.0
ssS'BHMCatS0008D'
p1280
(dp1281
g12
F-0.34
sg20
S'KIC-9632895 B'
p1282
sg29
F0.055
sg37
F-1.0
sg45
I8
sg53
F3309.0
sg61
F0.005
sg69
F-1.0
sg77
F0.011
sg85
F0.2143
sg93
F2.5
sg101
F0.1938
sg109
S'KIC-9632895'
p1283
sg118
g3
(g121
S'\t\xde\r\x1a\x9e\x07~?'
p1284
tp1285
Rp1286
sg134
F46.37846944444445
sg142
S'D'
p1287
sg151
F0.015
sg159
F0.0014
sg167
g168
sg169
(lp1288
(dp1289
g179
S'BHMCatPD0009'
p1290
sg188
F-317.9732761796323
sg196
F0.0379
sg204
S'BHMCatS008D'
p1291
sg213
F0.0088
sg221
S'9'
p1292
sg230
S'2014arXiv1409.1605W'
p1293
sg239
F6.165
sg247
S'0009'
p1294
sg256
F240.503
sg264
F0.0028
sg272
S'KIC-9632895'
p1295
sg281
F26.07380864672985
sg289
F-178.59
sg297
F0.7877
sg305
F0.053
sg313
F0.0
sg321
F1.1278
sg329
S'KIC-9632895b'
p1296
sg338
S'b'
p1297
sg347
F0.035
sasg355
g168
sg363
S'KIC'
p1298
sg372
F5.063
sg380
F-1.0
sg388
S'9632895'
p1299
sg390
(dp1300
S'BHMCatPD0009'
p1301
(dp1302
g401
F7.0
sg409
F0.0
sg417
F10.1
sg425
F0.0
sg433
F2.0
sg441
F-0.34
sg449
F11.3
sg457
S"'early mars'"
p1303
sg466
F4.5
sg474
F1.5
sg482
F6.165
sg490
F0.002
sg498
F1.0
sg506
F1.0
sg514
F-0.34
sg522
S'Chaboyer'
p1304
sg531
F2.0
sg539
F0.95
sg547
F0.275556
sg555
F0.95
sg563
F26.0738086467299
sg571
F5e+40
sg579
F4.7e+40
sg587
F1.5
sg595
F44.0
sg603
F0.0
sg611
F0.275556
sg619
F5.0
sg627
F1.0
sg635
S'Chaboyer'
p1305
sg644
F0.0
sg652
F0.3
sg660
S"'maximum greenhouse'"
p1306
sg669
F0.3
sg677
F1.0
sg685
S"'Saturn'"
p1307
sg694
F0.01
sg702
F10.0
sg710
F2.0
sg718
F2.0
sg726
F3.0
sg734
S'PARSEC'
p1308
sg743
S'PARSEC'
p1309
sg752
F1e+40
sg760
F4.7e+40
sg768
S'BHMCatPD0009'
p1310
sg777
F0.01
sg785
S'BHMCatS0008D'
p1311
sg794
S'KIC-9632895b'
p1312
sg803
F7.0
sg811
S'KIC-9632895'
p1313
sg820
S"'recent venus'"
p1314
sg829
S"'runaway greenhouse'"
p1315
sg838
F11.3
sg846
F0.0
sg854
F2.0
sg862
F5.0
sg870
F0.002
sg878
F0.3
sssg886
F4.803
sg894
g3
(g121
S'0\xde\x85\r\x9e,6@'
p1316
tp1317
Rp1318
sg902
S'2014arXiv1409.1605W;'
p1319
sg911
F0.934
sg919
F0.833
sg927
F0.47
sg935
F5527.0
sg943
F90.275
sg951
F-1.0
sg959
F0.05099
sg967
F0.01
sg975
F-1.0
sg983
S'BHMCatPD0009;'
p1320
sg992
F100.0
sg1000
F0.207494646680942
sg1008
g1009
sg1017
S'KIC-9632895 A'
p1321
sg1026
F18.882753333333334
sg1034
F-1.0
sg1042
F20.31
sg1050
F-1.0
sg1058
F262.86
sg1066
F-1.0
sg1074
F0.18749
sg1082
F-1.0
sg1090
F13.552
sg1098
g1280
sg1106
F-1.0
sg1114
F0.002
sg1122
F1.0
sg1130
S'0008'
p1322
sg1139
F-0.343
sg1147
F1.5
sg1155
F27.322037
sg1163
F1.9
sg1171
g3
(g121
S'R\xb3\x00z^\xd5}?'
p1323
tp1324
Rp1325
sg1179
g3
(g121
S"\xef\xce\xc2\x00cW'@"
p1326
tp1327
Rp1328
sg1187
g3
(g121
S'\x07\x92[\rg\xf9x@'
p1329
tp1330
Rp1331
sg1195
F100.0
ssS'BHMCatS0028P'
p1332
(dp1333
g12
F-1.0
sg20
S'TV Cet B'
p1334
sg29
F-1.0
sg37
F-1.0
sg45
I28
sg53
F6575.0
sg61
F0.019
sg69
F-1.0
sg77
F0.02
sg85
F1.21
sg93
F-1.0
sg101
F1.23
sg109
S'TV Cet'
p1335
sg118
F-1.0
sg134
F2.7545555555555556
sg142
g1200
sg151
F0.02
sg159
F0.01
sg167
S'F2V'
p1336
sg169
(lp1337
(dp1338
g179
S'BHMCatPP0029'
p1339
sg188
F0.0
sg196
F0.0
sg204
S'BHMCatS0028P'
p1340
sg213
F0.0
sg221
S'29'
p1341
sg230
g231
sg239
F1.000001
sg247
S'0029'
p1342
sg256
F0.0
sg264
F0.0
sg272
S'TV Cet'
p1343
sg281
F1.000001
sg289
F0.0
sg297
F1.0
sg305
F0.0
sg313
F0.0
sg321
F1.0
sg329
S'TV Ceth'
p1344
sg338
g339
sg347
F0.0
sasg355
S'F5V'
p1345
sg363
S'EkCat'
p1346
sg372
F4.362
sg380
F-1.0
sg388
S'27'
p1347
sg390
(dp1348
S'BHMCatPP0029'
p1349
(dp1350
g401
F7.0
sg409
F0.0
sg417
F0.0
sg425
F0.0
sg433
F1.0
sg441
F0.0
sg449
F11.3
sg457
S"'early mars'"
p1351
sg466
F4.5
sg474
F1.5
sg482
F1.000001
sg490
F0.002
sg498
F1.0
sg506
F1.0
sg514
F0.0
sg522
S'Chaboyer'
p1352
sg531
F2.0
sg539
F0.95
sg547
F0.275556
sg555
F0.95
sg563
F1.000001
sg571
F5e+40
sg579
F4.7e+40
sg587
F1.5
sg595
F44.0
sg603
F0.0
sg611
F0.275556
sg619
F5.0
sg627
F1.0
sg635
S'Chaboyer'
p1353
sg644
F0.0
sg652
F0.3
sg660
S"'maximum greenhouse'"
p1354
sg669
F0.3
sg677
F1.0
sg685
S"'Saturn'"
p1355
sg694
F0.01
sg702
F10.0
sg710
F1.0
sg718
F2.0
sg726
F3.0
sg734
S'PARSEC'
p1356
sg743
S'PARSEC'
p1357
sg752
F5e+40
sg760
F4.7e+40
sg768
S'BHMCatPP0029'
p1358
sg777
F0.01
sg785
S'BHMCatS0028P'
p1359
sg794
S'TV Ceth'
p1360
sg803
F7.0
sg811
S'TV Cet'
p1361
sg820
S"'recent venus'"
p1362
sg829
S"'runaway greenhouse'"
p1363
sg838
F11.3
sg846
F0.0
sg854
F1.0
sg862
F5.0
sg870
F0.002
sg878
F0.3
sssg886
F4.231
sg894
F-1.0
sg902
S'2010NewA...15..356B;'
p1364
sg911
F1.34
sg919
F1.47
sg927
F-1.0
sg935
F6902.0
sg943
F90.38
sg951
F-1.0
sg959
F0.04
sg967
F0.05
sg975
F6.0
sg983
S'BHMCatPP0029;'
p1365
sg992
F150.0
sg1000
F0.917910447761194
sg1008
g1009
sg1017
S'TV Cet A'
p1366
sg1026
F3.243475
sg1034
F-1.0
sg1042
F-1.0
sg1050
F144.0
sg1058
F-1.0
sg1066
F-1.0
sg1074
F0.11706551671123
sg1082
F-1.0
sg1090
F8.6
sg1098
g1332
sg1106
F-1.0
sg1114
F0.05
sg1122
F-1.0
sg1130
S'0028'
p1367
sg1139
F-1.0
sg1147
F-1.0
sg1155
F9.103291
sg1163
F-1.0
sg1171
F-1.0
sg1179
F-1.0
sg1187
F-1.0
sg1195
F150.0
ssS'BHMCatS0018P'
p1368
(dp1369
g12
F-1.0
sg20
S'LL Aqr B'
p1370
sg29
F-1.0
sg37
F-1.0
sg45
I18
sg53
F6200.0
sg61
F0.01
sg69
F-1.0
sg77
F0.02
sg85
F1.005
sg93
F-1.0
sg101
F1.056
sg109
S'LL Aqr'
p1371
sg118
F-1.0
sg134
F-2.4005083333333332
sg142
g1200
sg151
F0.009
sg159
F0.016
sg167
S'F3V'
p1372
sg169
(lp1373
(dp1374
g179
S'BHMCatPP0019'
p1375
sg188
F0.0
sg196
F0.0
sg204
S'BHMCatS0018P'
p1376
sg213
F0.0
sg221
S'19'
p1377
sg230
g231
sg239
F1.000001
sg247
S'0019'
p1378
sg256
F0.0
sg264
F0.0
sg272
S'LL Aqr'
p1379
sg281
F1.000001
sg289
F0.0
sg297
F1.0
sg305
F0.0
sg313
F0.0
sg321
F1.0
sg329
S'LL Aqrh'
p1380
sg338
g339
sg347
F0.0
sasg355
S'F6V'
p1381
sg363
S'EkCat'
p1382
sg372
F4.457
sg380
F-1.0
sg388
S'238'
p1383
sg390
(dp1384
S'BHMCatPP0019'
p1385
(dp1386
g401
F7.0
sg409
F0.0
sg417
F0.0
sg425
F0.0
sg433
F1.0
sg441
F0.0
sg449
F11.3
sg457
S"'early mars'"
p1387
sg466
F4.5
sg474
F1.5
sg482
F1.000001
sg490
F0.002
sg498
F1.0
sg506
F1.0
sg514
F0.0
sg522
S'Chaboyer'
p1388
sg531
F2.0
sg539
F0.95
sg547
F0.275556
sg555
F0.95
sg563
F1.000001
sg571
F5e+40
sg579
F4.7e+40
sg587
F1.5
sg595
F44.0
sg603
F0.0
sg611
F0.275556
sg619
F5.0
sg627
F1.0
sg635
S'Chaboyer'
p1389
sg644
F0.0
sg652
F0.3
sg660
S"'maximum greenhouse'"
p1390
sg669
F0.3
sg677
F1.0
sg685
S"'Saturn'"
p1391
sg694
F0.01
sg702
F10.0
sg710
F1.0
sg718
F2.0
sg726
F3.0
sg734
S'PARSEC'
p1392
sg743
S'PARSEC'
p1393
sg752
F5e+40
sg760
F4.7e+40
sg768
S'BHMCatPP0019'
p1394
sg777
F0.01
sg785
S'BHMCatS0018P'
p1395
sg794
S'LL Aqrh'
p1396
sg803
F7.0
sg811
S'LL Aqr'
p1397
sg820
S"'recent venus'"
p1398
sg829
S"'runaway greenhouse'"
p1399
sg838
F11.3
sg846
F0.0
sg854
F1.0
sg862
F5.0
sg870
F0.002
sg878
F0.3
sssg886
F4.281
sg894
F-1.0
sg902
S'2008MNRAS.390..958I;'
p1400
sg911
F1.223
sg919
F1.325
sg927
F-1.0
sg935
F6680.0
sg943
F89.51
sg951
F-1.0
sg959
F0.31
sg967
F0.058
sg975
F9.0
sg983
S'BHMCatPP0019;'
p1401
sg992
F160.0
sg1000
F0.863450531479967
sg1008
S'DEBCat'
p1402
sg1017
S'LL Aqr A'
p1403
sg1026
F22.578375
sg1034
F-1.0
sg1042
F-1.0
sg1050
F123.0
sg1058
F-1.0
sg1066
F-1.0
sg1074
F0.190982033823529
sg1082
F-1.0
sg1090
F9.317
sg1098
g1368
sg1106
F-1.0
sg1114
F0.051
sg1122
F-1.0
sg1130
S'0018'
p1404
sg1139
F-1.0
sg1147
F-1.0
sg1155
F20.178241
sg1163
F-1.0
sg1171
F-1.0
sg1179
F-1.0
sg1187
F-1.0
sg1195
F160.0
ssS'BHMCatS1003V'
p1405
(dp1406
g12
F0.0
sg20
S'NICHE-003 B'
p1407
sg29
F-2.0
sg37
F-2.0
sg45
I1003
sg53
F-2.0
sg61
F-2.0
sg69
F-2.0
sg77
F0.0
sg85
F-2.0
sg93
F-2.0
sg101
F1.0
sg109
S'NICHE-003'
p1408
sg118
g3
(g121
S'0\xa8\x1bgj\x94\x8f?'
p1409
tp1410
Rp1411
sg134
F-2.0
sg142
g143
sg151
F-2.0
sg159
F0.0
sg167
g168
sg169
(lp1412
(dp1413
g179
S'BHMCatPV1003'
p1414
sg188
F0.0
sg196
F0.0
sg204
S'BHMCatS1003V'
p1415
sg213
F0.0
sg221
S'1003'
p1416
sg230
g231
sg239
F1.000001
sg247
S'1003'
p1417
sg256
F0.0
sg264
F0.0
sg272
S'NICHE-003'
p1418
sg281
F1.000001
sg289
F0.0
sg297
F1.0
sg305
F0.0
sg313
F0.0
sg321
F1.0
sg329
S'NICHE-003h'
p1419
sg338
g339
sg347
F0.0
sasg355
g168
sg363
S'NICHE'
p1420
sg372
F-2.0
sg380
F-2.0
sg388
S'3'
p1421
sg390
(dp1422
S'BHMCatPV1003'
p1423
(dp1424
g401
F7.0
sg409
F0.0
sg417
F0.0
sg425
F0.0
sg433
F1.0
sg441
F0.0
sg449
F11.3
sg457
S"'early mars'"
p1425
sg466
F4.5
sg474
F1.5
sg482
F1.000001
sg490
F0.002
sg498
F1.0
sg506
F1.0
sg514
F0.0
sg522
S'Chaboyer'
p1426
sg531
F2.0
sg539
F0.95
sg547
F0.275556
sg555
F0.95
sg563
F1.000001
sg571
F5e+40
sg579
F4.7e+40
sg587
F1.5
sg595
F44.0
sg603
F0.0
sg611
F0.275556
sg619
F5.0
sg627
F1.0
sg635
S'Chaboyer'
p1427
sg644
F0.0
sg652
F0.3
sg660
S"'maximum greenhouse'"
p1428
sg669
F0.3
sg677
F1.0
sg685
S"'Earth'"
p1429
sg694
F0.01
sg702
F10.0
sg710
F1.0
sg718
F2.0
sg726
F3.0
sg734
S'PARSEC'
p1430
sg743
S'PARSEC'
p1431
sg752
F5e+40
sg760
F4.7e+40
sg768
S'BHMCatPV1003'
p1432
sg777
F0.01
sg785
S'BHMCatS1003V'
p1433
sg794
S'NICHE-003h'
p1434
sg803
F7.0
sg811
S'NICHE-003'
p1435
sg820
S"'recent venus'"
p1436
sg829
S"'runaway greenhouse'"
p1437
sg838
F11.3
sg846
F0.0
sg854
F1.0
sg862
F5.0
sg870
F0.002
sg878
F0.3
sssg886
F-2.0
sg894
F-1.0
sg902
S'2014arXiv1408.5163M;'
p1438
sg911
F1.0
sg919
F-2.0
sg927
F-2.0
sg935
F-2.0
sg943
F-2.0
sg951
F-2.0
sg959
F0.3
sg967
F0.0
sg975
F-1.0
sg983
S'BHMCatPV1003;'
p1439
sg992
F-2.0
sg1000
F1.0
sg1008
g1009
sg1017
S'NICHE-003 A'
p1440
sg1026
F-2.0
sg1034
F-1.0
sg1042
F-2.0
sg1050
F-1.0
sg1058
F-1.0
sg1066
F-1.0
sg1074
F0.288396405427895
sg1082
F-1.0
sg1090
F-2.0
sg1098
g1405
sg1106
F-2.0
sg1114
F0.0
sg1122
F-2.0
sg1130
S'1003'
p1441
sg1139
F-1.0
sg1147
F-2.0
sg1155
F40.0
sg1163
F-2.0
sg1171
F-1.0
sg1179
F-1.0
sg1187
F-1.0
sg1195
F-2.0
ssS'BHMCatS0024P'
p1442
(dp1443
g12
F-1.0
sg20
S'BF Dra B'
p1444
sg29
F-1.0
sg37
F1.8
sg45
I24
sg53
F6400.0
sg61
F0.005
sg69
F-1.0
sg77
F0.012
sg85
F1.922
sg93
F-1.0
sg101
F1.375
sg109
S'BF Dra'
p1445
sg118
F-1.0
sg134
F69.88263333333333
sg142
g1200
sg151
F0.005
sg159
F0.012
sg167
S'F6V'
p1446
sg169
(lp1447
(dp1448
g179
S'BHMCatPP0025'
p1449
sg188
F0.0
sg196
F0.0
sg204
S'BHMCatS0024P'
p1450
sg213
F0.0
sg221
S'25'
p1451
sg230
g231
sg239
F1.000001
sg247
S'0025'
p1452
sg256
F0.0
sg264
F0.0
sg272
S'BF Dra'
p1453
sg281
F1.000001
sg289
F0.0
sg297
F1.0
sg305
F0.0
sg313
F0.0
sg321
F1.0
sg329
S'BF Drah'
p1454
sg338
g339
sg347
F0.0
sasg355
S'F6V'
p1455
sg363
S'EkCat'
p1456
sg372
F4.008
sg380
F9.0
sg388
S'173'
p1457
sg390
(dp1458
S'BHMCatPP0025'
p1459
(dp1460
g401
F7.0
sg409
F0.0
sg417
F0.0
sg425
F0.0
sg433
F1.0
sg441
F0.0
sg449
F11.3
sg457
S"'early mars'"
p1461
sg466
F4.5
sg474
F1.5
sg482
F1.000001
sg490
F0.002
sg498
F1.0
sg506
F1.0
sg514
F0.0
sg522
S'Chaboyer'
p1462
sg531
F2.0
sg539
F0.95
sg547
F0.275556
sg555
F0.95
sg563
F1.000001
sg571
F5e+40
sg579
F4.7e+40
sg587
F1.5
sg595
F44.0
sg603
F0.0
sg611
F0.275556
sg619
F5.0
sg627
F1.0
sg635
S'Chaboyer'
p1463
sg644
F0.0
sg652
F0.3
sg660
S"'maximum greenhouse'"
p1464
sg669
F0.3
sg677
F1.0
sg685
S"'Saturn'"
p1465
sg694
F0.01
sg702
F10.0
sg710
F1.0
sg718
F2.0
sg726
F3.0
sg734
S'PARSEC'
p1466
sg743
S'PARSEC'
p1467
sg752
F5e+40
sg760
F4.7e+40
sg768
S'BHMCatPP0025'
p1468
sg777
F0.01
sg785
S'BHMCatS0024P'
p1469
sg794
S'BF Drah'
p1470
sg803
F7.0
sg811
S'BF Dra'
p1471
sg820
S"'recent venus'"
p1472
sg829
S"'runaway greenhouse'"
p1473
sg838
F11.3
sg846
F0.0
sg854
F1.0
sg862
F5.0
sg870
F0.002
sg878
F0.3
sssg886
F3.95
sg894
g3
(g121
S'\x8f\x91\xba\xea\xb8\x16$@'
p1474
tp1475
Rp1476
sg902
S'2012AJ....143..129S;'
p1477
sg911
F1.414
sg919
F2.086
sg927
F-1.0
sg935
F6360.0
sg943
F88.42
sg951
F-1.0
sg959
F0.387
sg967
F0.003
sg975
F27.0
sg983
S'BHMCatPP0025;'
p1478
sg992
F150.0
sg1000
F0.972418670438472
sg1008
g1009
sg1017
S'BF Dra A'
p1479
sg1026
F18.849819444444442
sg1034
F-1.0
sg1042
F-1.0
sg1050
F354.0
sg1058
F-1.0
sg1066
g3
(g121
S'\x95\x8e\xd4\xd7\x82F\x01@'
p1480
tp1481
Rp1482
sg1074
F0.0960728534759358
sg1082
g3
(g121
S';\xb2\xc9\x8d#\x98%@'
p1483
tp1484
Rp1485
sg1090
F9.77
sg1098
g1442
sg1106
F-1.0
sg1114
F0.003
sg1122
F1.8
sg1130
S'0024'
p1486
sg1139
F-1.0
sg1147
F-1.0
sg1155
F11.2110047
sg1163
F10.5
sg1171
F-1.0
sg1179
g3
(g121
S'HK\xdbW\xe0\x8c\xfb?'
p1487
tp1488
Rp1489
sg1187
F-1.0
sg1195
F150.0
ssS'BHMCatS0026P'
p1490
(dp1491
g12
F-1.0
sg20
S'RW Lac B'
p1492
sg29
F-1.0
sg37
F-1.0
sg45
I26
sg53
F5560.0
sg61
F0.004
sg69
F-1.0
sg77
F0.004
sg85
F0.964
sg93
F-1.0
sg101
F0.87
sg109
S'RW Lac'
p1493
sg118
F-1.0
sg134
F49.65765833333333
sg142
g1200
sg151
F0.003
sg159
F0.004
sg167
S'G5V'
p1494
sg169
(lp1495
(dp1496
g179
S'BHMCatPP0027'
p1497
sg188
F0.0
sg196
F0.0
sg204
S'BHMCatS0026P'
p1498
sg213
F0.0
sg221
S'27'
p1499
sg230
g231
sg239
F1.000001
sg247
S'0027'
p1500
sg256
F0.0
sg264
F0.0
sg272
S'RW Lac'
p1501
sg281
F1.000001
sg289
F0.0
sg297
F1.0
sg305
F0.0
sg313
F0.0
sg321
F1.0
sg329
S'RW Lach'
p1502
sg338
g339
sg347
F0.0
sasg355
S'G7V'
p1503
sg363
S'EkCat'
p1504
sg372
F4.409
sg380
F-1.0
sg388
S'239'
p1505
sg390
(dp1506
S'BHMCatPP0027'
p1507
(dp1508
g401
F7.0
sg409
F0.0
sg417
F0.0
sg425
F0.0
sg433
F1.0
sg441
F0.0
sg449
F11.3
sg457
S"'early mars'"
p1509
sg466
F4.5
sg474
F1.5
sg482
F1.000001
sg490
F0.002
sg498
F1.0
sg506
F1.0
sg514
F0.0
sg522
S'Chaboyer'
p1510
sg531
F2.0
sg539
F0.95
sg547
F0.275556
sg555
F0.95
sg563
F1.000001
sg571
F5e+40
sg579
F4.7e+40
sg587
F1.5
sg595
F44.0
sg603
F0.0
sg611
F0.275556
sg619
F5.0
sg627
F1.0
sg635
S'Chaboyer'
p1511
sg644
F0.0
sg652
F0.3
sg660
S"'maximum greenhouse'"
p1512
sg669
F0.3
sg677
F1.0
sg685
S"'Saturn'"
p1513
sg694
F0.01
sg702
F10.0
sg710
F1.0
sg718
F2.0
sg726
F3.0
sg734
S'PARSEC'
p1514
sg743
S'PARSEC'
p1515
sg752
F5e+40
sg760
F4.7e+40
sg768
S'BHMCatPP0027'
p1516
sg777
F0.01
sg785
S'BHMCatS0026P'
p1517
sg794
S'RW Lach'
p1518
sg803
F7.0
sg811
S'RW Lac'
p1519
sg820
S"'recent venus'"
p1520
sg829
S"'runaway greenhouse'"
p1521
sg838
F11.3
sg846
F0.0
sg854
F1.0
sg862
F5.0
sg870
F0.002
sg878
F0.3
sssg886
F4.257
sg894
g3
(g121
S'x\xc1G\x89\xde\xfd=@'
p1522
tp1523
Rp1524
sg902
S'2005AJ....130.2838L;'
p1525
sg911
F0.928
sg919
F1.186
sg927
F-1.0
sg935
F5760.0
sg943
F89.49
sg951
F-1.0
sg959
F0.01
sg967
F0.006
sg975
F10.0
sg983
S'BHMCatPP0027;'
p1526
sg992
F150.0
sg1000
F0.9375
sg1008
S'DEBCat'
p1527
sg1017
S'RW Lac A'
p1528
sg1026
F22.749194444444445
sg1034
F-1.0
sg1042
F-1.0
sg1050
F190.0
sg1058
F-1.0
sg1066
F-1.0
sg1074
F0.112550464973262
sg1082
F-1.0
sg1090
F10.789
sg1098
g1490
sg1106
F-1.0
sg1114
F0.004
sg1122
F2.0
sg1130
S'0026'
p1529
sg1139
F-1.0
sg1147
F-1.0
sg1155
F10.3692046
sg1163
F2.0
sg1171
F-1.0
sg1179
g3
(g121
S'x\xc1G\x89\xde\xfd=@'
p1530
tp1531
Rp1532
sg1187
F-1.0
sg1195
F100.0
ssS'BHMCatS0030P'
p1533
(dp1534
g12
F-1.0
sg20
S'2MASS J19071662+4639532  B'
p1535
sg29
F-1.0
sg37
F2.3
sg45
I30
sg53
F3700.0
sg61
F0.086
sg69
F-1.0
sg77
F0.043
sg85
F0.525
sg93
F-1.0
sg101
F0.523
sg109
S'2MASS J19071662+4639532'
p1536
sg118
F-1.0
sg134
F46.66478055555555
sg142
g1200
sg151
F0.059
sg159
F0.052
sg167
S'K5V'
p1537
sg169
(lp1538
(dp1539
g179
S'BHMCatPP0031'
p1540
sg188
F0.0
sg196
F0.0
sg204
S'BHMCatS0030P'
p1541
sg213
F0.0
sg221
S'31'
p1542
sg230
g231
sg239
F1.000001
sg247
S'0031'
p1543
sg256
F0.0
sg264
F0.0
sg272
S'2MASS J19071662+4639532'
p1544
sg281
F1.000001
sg289
F0.0
sg297
F1.0
sg305
F0.0
sg313
F0.0
sg321
F1.0
sg329
S'2MASS J19071662+4639532 h'
p1545
sg338
g339
sg347
F0.0
sasg355
S'M0V'
p1546
sg363
S'EkCat'
p1547
sg372
F4.718
sg380
F5.1
sg388
S'181'
p1548
sg390
(dp1549
S'BHMCatPP0031'
p1550
(dp1551
g401
F7.0
sg409
F0.0
sg417
F0.0
sg425
F0.0
sg433
F1.0
sg441
F0.0
sg449
F11.3
sg457
S"'early mars'"
p1552
sg466
F4.5
sg474
F1.5
sg482
F1.000001
sg490
F0.002
sg498
F1.0
sg506
F1.0
sg514
F0.0
sg522
S'Chaboyer'
p1553
sg531
F2.0
sg539
F0.95
sg547
F0.275556
sg555
F0.95
sg563
F1.000001
sg571
F5e+40
sg579
F4.7e+40
sg587
F1.5
sg595
F44.0
sg603
F0.0
sg611
F0.275556
sg619
F5.0
sg627
F1.0
sg635
S'Chaboyer'
p1554
sg644
F0.0
sg652
F0.3
sg660
S"'maximum greenhouse'"
p1555
sg669
F0.3
sg677
F1.0
sg685
S"'Saturn'"
p1556
sg694
F0.01
sg702
F10.0
sg710
F1.0
sg718
F2.0
sg726
F3.0
sg734
S'PARSEC'
p1557
sg743
S'PARSEC'
p1558
sg752
F5e+40
sg760
F4.7e+40
sg768
S'BHMCatPP0031'
p1559
sg777
F0.01
sg785
S'BHMCatS0030P'
p1560
sg794
S'2MASS J19071662+4639532 h'
p1561
sg803
F7.0
sg811
S'2MASS J19071662+4639532'
p1562
sg820
S"'recent venus'"
p1563
sg829
S"'runaway greenhouse'"
p1564
sg838
F11.3
sg846
F0.0
sg854
F1.0
sg862
F5.0
sg870
F0.002
sg878
F0.3
sssg886
F4.666
sg894
g3
(g121
S'\x06o\xaej\xbe\xe6\x16@'
p1565
tp1566
Rp1567
sg902
S'2008ApJ...687.1253D;'
p1568
sg911
F0.68
sg919
F0.634
sg927
F-1.0
sg935
F4150.0
sg943
F89.02
sg951
F-1.0
sg959
F0.0
sg967
F0.01
sg975
F20.0
sg983
S'BHMCatPP0031;'
p1569
sg992
F-1.0
sg1000
F0.769117647058823
sg1008
g1009
sg1017
S'2MASS J19071662+4639532  A'
p1570
sg1026
F19.121283333333334
sg1034
F-1.0
sg1042
F-1.0
sg1050
F230.0
sg1058
F-1.0
sg1066
g3
(g121
S'\xfe\xfa\xfe\t"\xc8\x02@'
p1571
tp1572
Rp1573
sg1074
F0.0862514522727273
sg1082
g3
(g121
S'~\xd3\xa5\x90\xc1\xd2\x14@'
p1574
tp1575
Rp1576
sg1090
F14.37
sg1098
g1533
sg1106
F-1.0
sg1114
F0.006
sg1122
F2.0
sg1130
S'0030'
p1577
sg1139
F-1.0
sg1147
F-1.0
sg1155
F8.429441
sg1163
F5.6
sg1171
F-1.0
sg1179
g3
(g121
S')\x06X\x95\xac[\x00@'
p1578
tp1579
Rp1580
sg1187
F-1.0
sg1195
F-1.0
ssS'BHMCatS0036P'
p1581
(dp1582
g12
F-1.0
sg20
S'FM Leo B'
p1583
sg29
F-1.0
sg37
F-1.0
sg45
I36
sg53
F6190.0
sg61
F0.028
sg69
F-1.0
sg77
F0.043
sg85
F1.511
sg93
F-1.0
sg101
F1.287
sg109
S'FM Leo'
p1584
sg118
F-1.0
sg134
F0.3480111111111111
sg142
g1200
sg151
F0.023
sg159
F0.049
sg167
S'F9V'
p1585
sg169
(lp1586
(dp1587
g179
S'BHMCatPP0037'
p1588
sg188
F0.0
sg196
F0.0
sg204
S'BHMCatS0036P'
p1589
sg213
F0.0
sg221
S'37'
p1590
sg230
g231
sg239
F1.000001
sg247
S'0037'
p1591
sg256
F0.0
sg264
F0.0
sg272
S'FM Leo'
p1592
sg281
F1.000001
sg289
F0.0
sg297
F1.0
sg305
F0.0
sg313
F0.0
sg321
F1.0
sg329
S'FM Leoh'
p1593
sg338
g339
sg347
F0.0
sasg355
S'F9V'
p1594
sg363
S'EkCat'
p1595
sg372
F4.189
sg380
F-1.0
sg388
S'114'
p1596
sg390
(dp1597
S'BHMCatPP0037'
p1598
(dp1599
g401
F7.0
sg409
F0.0
sg417
F0.0
sg425
F0.0
sg433
F1.0
sg441
F0.0
sg449
F11.3
sg457
S"'early mars'"
p1600
sg466
F4.5
sg474
F1.5
sg482
F1.000001
sg490
F0.002
sg498
F1.0
sg506
F1.0
sg514
F0.0
sg522
S'Chaboyer'
p1601
sg531
F2.0
sg539
F0.95
sg547
F0.275556
sg555
F0.95
sg563
F1.000001
sg571
F5e+40
sg579
F4.7e+40
sg587
F1.5
sg595
F44.0
sg603
F0.0
sg611
F0.275556
sg619
F5.0
sg627
F1.0
sg635
S'Chaboyer'
p1602
sg644
F0.0
sg652
F0.3
sg660
S"'maximum greenhouse'"
p1603
sg669
F0.3
sg677
F1.0
sg685
S"'Saturn'"
p1604
sg694
F0.01
sg702
F10.0
sg710
F1.0
sg718
F2.0
sg726
F3.0
sg734
S'PARSEC'
p1605
sg743
S'PARSEC'
p1606
sg752
F5e+40
sg760
F4.7e+40
sg768
S'BHMCatPP0037'
p1607
sg777
F0.01
sg785
S'BHMCatS0036P'
p1608
sg794
S'FM Leoh'
p1609
sg803
F7.0
sg811
S'FM Leo'
p1610
sg820
S"'recent venus'"
p1611
sg829
S"'runaway greenhouse'"
p1612
sg838
F11.3
sg846
F0.0
sg854
F1.0
sg862
F5.0
sg870
F0.002
sg878
F0.3
sssg886
F4.124
sg894
F-1.0
sg902
S'2010MNRAS.402.2424R;'
p1613
sg911
F1.318
sg919
F1.648
sg927
F-1.0
sg935
F6316.0
sg943
F87.98
sg951
F-1.0
sg959
F0.0
sg967
F0.007
sg975
F25.5
sg983
S'BHMCatPP0037;'
p1614
sg992
F211.0
sg1000
F0.976479514415781
sg1008
g1009
sg1017
S'FM Leo A'
p1615
sg1026
F11.212525
sg1034
F-1.0
sg1042
F-1.0
sg1050
F130.4
sg1058
F-1.0
sg1066
F-1.0
sg1074
F0.0960263065508021
sg1082
F-1.0
sg1090
F8.453
sg1098
g1581
sg1106
F-1.0
sg1114
F0.007
sg1122
F-1.0
sg1130
S'0036'
p1616
sg1139
F-1.0
sg1147
F-1.0
sg1155
F6.728606
sg1163
F-1.0
sg1171
F-1.0
sg1179
F-1.0
sg1187
F-1.0
sg1195
F240.0
ssS'FieldsPriority'
p1617
(dp1618
g12
I2
sg20
I1
sg29
I2
sg37
I4
sg45
I100
sg53
I3
sg61
I4
sg69
I4
sg77
I4
sg85
I3
sg93
I3
sg101
I1
sg109
I1
sg118
I2
sg134
I3
sg142
I100
sg151
I4
sg159
I4
sg167
I2
sg355
I2
sg363
I3
sg372
I3
sg380
I3
sg388
I3
sg886
I3
sg894
I3
sg902
I1
sg911
I1
sg919
I3
sg927
I4
sg935
I3
sg943
I2
sg951
I2
sg959
I1
sg967
I4
sg975
I4
sg983
I1
sg992
I4
sg1000
I100
sg1008
I100
sg1017
I1
sg1026
I3
sg1034
I4
sg1042
I2
sg1050
I2
sg1058
I4
sg1066
I4
sg1074
I1
sg1082
I3
sg1090
I2
sg1098
I1
sg1106
I3
sg1114
I4
sg1122
I4
sg1130
I1
sg1139
I2
sg1147
I3
sg1155
I1
sg1163
I3
sg1171
I2
sg1179
I4
sg1187
I2
sg1195
I4
ssS'BHMCatS1001V'
p1619
(dp1620
g12
F0.0
sg20
S'NICHE-001 B'
p1621
sg29
F-2.0
sg37
F-2.0
sg45
I1001
sg53
F-2.0
sg61
F-2.0
sg69
F-2.0
sg77
F0.0
sg85
F-2.0
sg93
F-2.0
sg101
F1.0
sg109
S'NICHE-001'
p1622
sg118
g3
(g121
S'0\xa8\x1bgj\x94\x8f?'
p1623
tp1624
Rp1625
sg134
F-2.0
sg142
g143
sg151
F-2.0
sg159
F0.0
sg167
g168
sg169
(lp1626
(dp1627
g179
S'BHMCatPV1001'
p1628
sg188
F0.0
sg196
F0.0
sg204
S'BHMCatS1001V'
p1629
sg213
F0.0
sg221
S'1001'
p1630
sg230
g231
sg239
F1.000001
sg247
S'1001'
p1631
sg256
F0.0
sg264
F0.0
sg272
S'NICHE-001'
p1632
sg281
F1.000001
sg289
F0.0
sg297
F1.0
sg305
F0.0
sg313
F0.0
sg321
F1.0
sg329
S'NICHE-001h'
p1633
sg338
g339
sg347
F0.0
sasg355
g168
sg363
S'NICHE'
p1634
sg372
F-2.0
sg380
F-2.0
sg388
S'1'
p1635
sg390
(dp1636
S'BHMCatPV1001'
p1637
(dp1638
g401
F7.0
sg409
F0.0
sg417
F9.0
sg425
F0.0
sg433
F1.0
sg441
F0.0
sg449
F11.3
sg457
S"'early mars'"
p1639
sg466
F4.5
sg474
F1.5
sg482
F1.000001
sg490
F0.002
sg498
F1.0
sg506
F1.0
sg514
F0.0
sg522
S'Chaboyer'
p1640
sg531
F2.0
sg539
F0.95
sg547
F0.275556
sg555
F0.95
sg563
F1.000001
sg571
F5e+40
sg579
F4.7e+40
sg587
F1.5
sg595
F44.0
sg603
F0.0
sg611
F0.275556
sg619
F5.0
sg627
F1.0
sg635
S'Chaboyer'
p1641
sg644
F0.0
sg652
F0.3
sg660
S"'maximum greenhouse'"
p1642
sg669
F0.3
sg677
F1.0
sg685
S"'Earth'"
p1643
sg694
F0.01
sg702
F10.0
sg710
F1.0
sg718
F2.0
sg726
F3.0
sg734
S'PARSEC'
p1644
sg743
S'PARSEC'
p1645
sg752
F5e+40
sg760
F4.7e+40
sg768
S'BHMCatPV1001'
p1646
sg777
F0.01
sg785
S'BHMCatS1001V'
p1647
sg794
S'NICHE-001h'
p1648
sg803
F7.0
sg811
S'NICHE-001'
p1649
sg820
S"'recent venus'"
p1650
sg829
S"'runaway greenhouse'"
p1651
sg838
F11.3
sg846
F0.0
sg854
F1.0
sg862
F5.0
sg870
F0.002
sg878
F0.3
sssg886
F-2.0
sg894
F-1.0
sg902
S'2014arXiv1408.5163M;'
p1652
sg911
F1.0
sg919
F-2.0
sg927
F-2.0
sg935
F-2.0
sg943
F-2.0
sg951
F-2.0
sg959
F0.1
sg967
F0.0
sg975
F-1.0
sg983
S'BHMCatPV1001;'
p1653
sg992
F-2.0
sg1000
F1.0
sg1008
g1009
sg1017
S'NICHE-001 A'
p1654
sg1026
F-2.0
sg1034
F-1.0
sg1042
F-2.0
sg1050
F-1.0
sg1058
F-1.0
sg1066
F-1.0
sg1074
F0.149972174389221
sg1082
F-1.0
sg1090
F-2.0
sg1098
g1619
sg1106
F-2.0
sg1114
F0.0
sg1122
F-2.0
sg1130
S'1001'
p1655
sg1139
F-1.0
sg1147
F-2.0
sg1155
F15.0
sg1163
F-2.0
sg1171
F-1.0
sg1179
F-1.0
sg1187
F-1.0
sg1195
F-2.0
ssS'BHMCatS0007D'
p1656
(dp1657
g12
F-0.2
sg20
S'Kepler-413 B'
p1658
sg29
F0.073
sg37
F-1.0
sg45
I7
sg53
F3460.0
sg61
F-1.0
sg69
F-1.0
sg77
F0.008
sg85
F0.484
sg93
F-1.0
sg101
F0.542
sg109
S'Kepler-413'
p1659
sg118
g3
(g121
S'\xff\x07\xf4,5d\x84?'
p1660
tp1661
Rp1662
sg134
F51.16246944444444
sg142
g1287
sg151
F-1.0
sg159
F0.02
sg167
S'K type'
p1663
sg169
(lp1664
(dp1665
g179
S'BHMCatPD0008'
p1666
sg188
F20.986236227855734
sg196
F0.1181
sg204
S'BHMCatS007D'
p1667
sg213
F0.002
sg221
S'8'
p1668
sg230
S'2014ApJ...784...14K'
p1669
sg239
F4.351686956521739
sg247
S'0008'
p1670
sg256
F66.262
sg264
F-1.0
sg272
S'Kepler-413'
p1671
sg281
F67.02876661866648
sg289
F-1.0
sg297
F0.3553
sg305
F-1.0
sg313
F0.0
sg321
F1.362
sg329
S'Kepler-413b'
p1672
sg338
g1297
sg347
F0.09874895620781668
sasg355
S'M type'
p1673
sg363
S'KIC'
p1674
sg372
F-1.0
sg380
F-1.0
sg388
S'12351927'
p1675
sg390
(dp1676
S'BHMCatPD0008'
p1677
(dp1678
g401
F7.0
sg409
F0.0
sg417
F0.0
sg425
F0.0
sg433
F1.0
sg441
F-0.2
sg449
F11.3
sg457
S"'early mars'"
p1679
sg466
F4.5
sg474
F1.5
sg482
F4.35168695652174
sg490
F0.002
sg498
F1.0
sg506
F1.0
sg514
F-0.2
sg522
S'Chaboyer'
p1680
sg531
F2.0
sg539
F0.95
sg547
F0.275556
sg555
F0.95
sg563
F67.0287666186665
sg571
F5e+40
sg579
F4.7e+40
sg587
F1.5
sg595
F44.0
sg603
F0.0
sg611
F0.275556
sg619
F5.0
sg627
F1.0
sg635
S'Chaboyer'
p1681
sg644
F0.0
sg652
F0.8
sg660
S"'maximum greenhouse'"
p1682
sg669
F0.3
sg677
F1.0
sg685
S"'Saturn'"
p1683
sg694
F0.01
sg702
F10.0
sg710
F1.0
sg718
F2.0
sg726
F3.0
sg734
S'PARSEC'
p1684
sg743
S'PARSEC'
p1685
sg752
F5e+40
sg760
F4.7e+40
sg768
S'BHMCatPD0008'
p1686
sg777
F0.01
sg785
S'BHMCatS0007D'
p1687
sg794
S'Kepler-413b'
p1688
sg803
F7.0
sg811
S'Kepler-413'
p1689
sg820
S"'recent venus'"
p1690
sg829
S"'runaway greenhouse'"
p1691
sg838
F11.3
sg846
F0.0
sg854
F1.0
sg862
F5.0
sg870
F0.002
sg878
F0.3
sssg886
F4.727
sg894
g3
(g121
S'j\xeb\xf4\xf1f]\x1f@'
p1692
tp1693
Rp1694
sg902
S'2014ApJ...784...14K;'
p1695
sg911
F0.82
sg919
F0.776
sg927
F0.15
sg935
F4700.0
sg943
F87.33
sg951
F-1.0
sg959
F0.0372
sg967
F0.015
sg975
F-1.0
sg983
S'BHMCatPD0008;'
p1696
sg992
F-1.0
sg1000
F0.660975609756098
sg1008
g1009
sg1017
S'Kepler-413 A'
p1697
sg1026
F19.234041666666666
sg1034
F-1.0
sg1042
F13.15
sg1050
F-1.0
sg1058
F279.54
sg1066
F-1.0
sg1074
F0.1015
sg1082
F-1.0
sg1090
F15.52
sg1098
g1656
sg1106
F-1.0
sg1114
F0.008
sg1122
F2.0
sg1130
S'0007'
p1698
sg1139
F-1.431
sg1147
F-1.0
sg1155
F10.116
sg1163
F5.0
sg1171
g3
(g121
S'\xa5"\xf8\xd1\xa4/F?'
p1699
tp1700
Rp1701
sg1179
g3
(g121
S'"\x89]\x8e\x85\x17\t@'
p1702
tp1703
Rp1704
sg1187
g3
(g121
S'R\xcf\x91\x8fZ\xc0\x82@'
p1705
tp1706
Rp1707
sg1195
F-1.0
ssS'BHMCatS0037P'
p1708
(dp1709
g12
F-1.0
sg20
S'BW Aqr B'
p1710
sg29
F-1.0
sg37
F0.8
sg45
I37
sg53
F6450.0
sg61
F0.022
sg69
F-1.0
sg77
F0.04
sg85
F1.79
sg93
F-1.0
sg101
F1.39
sg109
S'BW Aqr'
p1711
sg118
F-1.0
sg134
F-14.667716666666667
sg142
g1200
sg151
F0.019
sg159
F0.04
sg167
S'F7IV'
p1712
sg169
(lp1713
(dp1714
g179
S'BHMCatPP0038'
p1715
sg188
F0.0
sg196
F0.0
sg204
S'BHMCatS0037P'
p1716
sg213
F0.0
sg221
S'38'
p1717
sg230
g231
sg239
F1.000001
sg247
S'0038'
p1718
sg256
F0.0
sg264
F0.0
sg272
S'BW Aqr'
p1719
sg281
F1.000001
sg289
F0.0
sg297
F1.0
sg305
F0.0
sg313
F0.0
sg321
F1.0
sg329
S'BW Aqrh'
p1720
sg338
g339
sg347
F0.0
sasg355
S'F8IV'
p1721
sg363
S'EkCat'
p1722
sg372
F4.075
sg380
F13.5
sg388
S'236'
p1723
sg390
(dp1724
S'BHMCatPP0038'
p1725
(dp1726
g401
F7.0
sg409
F0.0
sg417
F0.0
sg425
F0.0
sg433
F1.0
sg441
F0.0
sg449
F11.3
sg457
S"'early mars'"
p1727
sg466
F4.5
sg474
F1.5
sg482
F1.000001
sg490
F0.002
sg498
F1.0
sg506
F1.0
sg514
F0.0
sg522
S'Chaboyer'
p1728
sg531
F2.0
sg539
F0.95
sg547
F0.275556
sg555
F0.95
sg563
F1.000001
sg571
F5e+40
sg579
F4.7e+40
sg587
F1.5
sg595
F44.0
sg603
F0.0
sg611
F0.275556
sg619
F5.0
sg627
F1.0
sg635
S'Chaboyer'
p1729
sg644
F0.0
sg652
F0.3
sg660
S"'maximum greenhouse'"
p1730
sg669
F0.3
sg677
F1.0
sg685
S"'Saturn'"
p1731
sg694
F0.01
sg702
F10.0
sg710
F1.0
sg718
F2.0
sg726
F3.0
sg734
S'PARSEC'
p1732
sg743
S'PARSEC'
p1733
sg752
F5e+40
sg760
F4.7e+40
sg768
S'BHMCatPP0038'
p1734
sg777
F0.01
sg785
S'BHMCatS0037P'
p1735
sg794
S'BW Aqrh'
p1736
sg803
F7.0
sg811
S'BW Aqr'
p1737
sg820
S"'recent venus'"
p1738
sg829
S"'runaway greenhouse'"
p1739
sg838
F11.3
sg846
F0.0
sg854
F1.0
sg862
F5.0
sg870
F0.002
sg878
F0.3
sssg886
F3.981
sg894
g3
(g121
S'\xae\xc6\x02\xb8\xb0\xb2%@'
p1740
tp1741
Rp1742
sg902
S'1991A&A...246..397C;'
p1743
sg911
F1.49
sg919
F2.06
sg927
F-1.0
sg935
F6350.0
sg943
F88.4
sg951
F-1.0
sg959
F0.178
sg967
F0.02
sg975
F15.0
sg983
S'BHMCatPP0038;'
p1744
sg992
F100.0
sg1000
F0.932885906040268
sg1008
g1009
sg1017
S'BW Aqr A'
p1745
sg1026
F22.387758333333334
sg1034
F-1.0
sg1042
F-1.0
sg1050
F420.0
sg1058
F-1.0
sg1066
g3
(g121
S'\xd5\xc4EG\xa0l\xd9?'
p1746
tp1747
Rp1748
sg1074
F0.0990984036096257
sg1082
g3
(g121
S'\x98\x95+\x0b\x91\xd0\x1a@'
p1749
tp1750
Rp1751
sg1090
F10.401
sg1098
g1708
sg1106
F-1.0
sg1114
F0.02
sg1122
F1.3
sg1130
S'0037'
p1752
sg1139
F-1.0
sg1147
F-1.0
sg1155
F6.719712
sg1163
F9.6
sg1171
F-1.0
sg1179
g3
(g121
S'=WX\xc7\x94\x81\xf7?'
p1753
tp1754
Rp1755
sg1187
F-1.0
sg1195
F100.0
ssS'BHMCatS0027P'
p1756
(dp1757
g12
F-1.0
sg20
S'HS Aur B'
p1758
sg29
F-1.0
sg37
F-1.0
sg45
I27
sg53
F5200.0
sg61
F0.03
sg69
F-1.0
sg77
F0.023
sg85
F0.874
sg93
F-1.0
sg101
F0.877
sg109
S'HS Aur'
p1759
sg118
F-1.0
sg134
F47.67337777777777
sg142
g1200
sg151
F0.02
sg159
F0.03
sg167
S'G8V'
p1760
sg169
(lp1761
(dp1762
g179
S'BHMCatPP0028'
p1763
sg188
F0.0
sg196
F0.0
sg204
S'BHMCatS0027P'
p1764
sg213
F0.0
sg221
S'28'
p1765
sg230
g231
sg239
F1.000001
sg247
S'0028'
p1766
sg256
F0.0
sg264
F0.0
sg272
S'HS Aur'
p1767
sg281
F1.000001
sg289
F0.0
sg297
F1.0
sg305
F0.0
sg313
F0.0
sg321
F1.0
sg329
S'HS Aurh'
p1768
sg338
g339
sg347
F0.0
sasg355
S'K0V'
p1769
sg363
S'EkCat'
p1770
sg372
F4.5
sg380
F-1.0
sg388
S'68'
p1771
sg390
(dp1772
S'BHMCatPP0028'
p1773
(dp1774
g401
F7.0
sg409
F0.0
sg417
F0.0
sg425
F0.0
sg433
F1.0
sg441
F0.0
sg449
F11.3
sg457
S"'early mars'"
p1775
sg466
F4.5
sg474
F1.5
sg482
F1.000001
sg490
F0.002
sg498
F1.0
sg506
F1.0
sg514
F0.0
sg522
S'Chaboyer'
p1776
sg531
F2.0
sg539
F0.95
sg547
F0.275556
sg555
F0.95
sg563
F1.000001
sg571
F5e+40
sg579
F4.7e+40
sg587
F1.5
sg595
F44.0
sg603
F0.0
sg611
F0.275556
sg619
F5.0
sg627
F1.0
sg635
S'Chaboyer'
p1777
sg644
F0.0
sg652
F0.3
sg660
S"'maximum greenhouse'"
p1778
sg669
F0.3
sg677
F1.0
sg685
S"'Saturn'"
p1779
sg694
F0.01
sg702
F10.0
sg710
F1.0
sg718
F2.0
sg726
F3.0
sg734
S'PARSEC'
p1780
sg743
S'PARSEC'
p1781
sg752
F5e+40
sg760
F4.7e+40
sg768
S'BHMCatPP0028'
p1782
sg777
F0.01
sg785
S'BHMCatS0027P'
p1783
sg794
S'HS Aurh'
p1784
sg803
F7.0
sg811
S'HS Aur'
p1785
sg820
S"'recent venus'"
p1786
sg829
S"'runaway greenhouse'"
p1787
sg838
F11.3
sg846
F0.0
sg854
F1.0
sg862
F5.0
sg870
F0.002
sg878
F0.3
sssg886
F4.39
sg894
F-1.0
sg902
S'1986AJ.....91..383P;'
p1788
sg911
F0.898
sg919
F1.005
sg927
F-1.0
sg935
F5350.0
sg943
F90.0
sg951
F-1.0
sg959
F0.0
sg967
F0.019
sg975
F5.0
sg983
S'BHMCatPP0028;'
p1789
sg992
F72.0
sg1000
F0.976614699331848
sg1008
S'DEBCat'
p1790
sg1017
S'HS Aur A'
p1791
sg1026
F6.855130555555555
sg1034
F-1.0
sg1042
F-1.0
sg1050
F130.0
sg1058
F-1.0
sg1066
F-1.0
sg1074
F0.108780164037433
sg1082
F-1.0
sg1090
F10.036
sg1098
g1756
sg1106
F-1.0
sg1114
F0.017
sg1122
F-1.0
sg1130
S'0027'
p1792
sg1139
F-1.0
sg1147
F-1.0
sg1155
F9.815377
sg1163
F-1.0
sg1171
F-1.0
sg1179
F-1.0
sg1187
F-1.0
sg1195
F70.0
ssS'BHMCatS0035P'
p1793
(dp1794
g12
F-1.0
sg20
S'EW Ori B'
p1795
sg29
F-1.0
sg37
F0.6
sg45
I35
sg53
F5900.0
sg61
F0.005
sg69
F-1.0
sg77
F0.005
sg85
F1.097
sg93
F-1.0
sg101
F1.123
sg109
S'EW Ori'
p1796
sg118
F-1.0
sg134
F2.044436111111111
sg142
g1200
sg151
F0.005
sg159
F0.005
sg167
S'G0V'
p1797
sg169
(lp1798
(dp1799
g179
S'BHMCatPP0036'
p1800
sg188
F0.0
sg196
F0.0
sg204
S'BHMCatS0035P'
p1801
sg213
F0.0
sg221
S'36'
p1802
sg230
g231
sg239
F1.000001
sg247
S'0036'
p1803
sg256
F0.0
sg264
F0.0
sg272
S'EW Ori'
p1804
sg281
F1.000001
sg289
F0.0
sg297
F1.0
sg305
F0.0
sg313
F0.0
sg321
F1.0
sg329
S'EW Orih'
p1805
sg338
g339
sg347
F0.0
sasg355
S'G5V'
p1806
sg363
S'EkCat'
p1807
sg372
F4.408
sg380
F8.8
sg388
S'49'
p1808
sg390
(dp1809
S'BHMCatPP0036'
p1810
(dp1811
g401
F7.0
sg409
F0.0
sg417
F0.0
sg425
F0.0
sg433
F1.0
sg441
F0.0
sg449
F11.3
sg457
S"'early mars'"
p1812
sg466
F4.5
sg474
F1.5
sg482
F1.000001
sg490
F0.002
sg498
F1.0
sg506
F1.0
sg514
F0.0
sg522
S'Chaboyer'
p1813
sg531
F2.0
sg539
F0.95
sg547
F0.275556
sg555
F0.95
sg563
F1.000001
sg571
F5e+40
sg579
F4.7e+40
sg587
F1.5
sg595
F44.0
sg603
F0.0
sg611
F0.275556
sg619
F5.0
sg627
F1.0
sg635
S'Chaboyer'
p1814
sg644
F0.0
sg652
F0.3
sg660
S"'maximum greenhouse'"
p1815
sg669
F0.3
sg677
F1.0
sg685
S"'Saturn'"
p1816
sg694
F0.01
sg702
F10.0
sg710
F1.0
sg718
F2.0
sg726
F3.0
sg734
S'PARSEC'
p1817
sg743
S'PARSEC'
p1818
sg752
F5e+40
sg760
F4.7e+40
sg768
S'BHMCatPP0036'
p1819
sg777
F0.01
sg785
S'BHMCatS0035P'
p1820
sg794
S'EW Orih'
p1821
sg803
F7.0
sg811
S'EW Ori'
p1822
sg820
S"'recent venus'"
p1823
sg829
S"'runaway greenhouse'"
p1824
sg838
F11.3
sg846
F0.0
sg854
F1.0
sg862
F5.0
sg870
F0.002
sg878
F0.3
sssg886
F4.372
sg894
g3
(g121
S'\x8b\x8aRZpA\x1a@'
p1825
tp1826
Rp1827
sg902
S'2010A&A...511A..22C;'
p1828
sg911
F1.173
sg919
F1.168
sg927
F-1.0
sg935
F6070.0
sg943
F89.86
sg951
F-1.0
sg959
F0.076
sg967
F0.011
sg975
F7.0
sg983
S'BHMCatPP0036;'
p1829
sg992
F95.0
sg1000
F0.957374254049446
sg1008
g1009
sg1017
S'EW Ori A'
p1830
sg1026
F5.335875
sg1034
F-1.0
sg1042
F-1.0
sg1050
F175.0
sg1058
F-1.0
sg1066
g3
(g121
S'\x83^\x7f\x88E\x83\xdb?'
p1831
tp1832
Rp1833
sg1074
F0.0939316949197861
sg1082
g3
(g121
S'N\xc1t\x12U8\x19@'
p1834
tp1835
Rp1836
sg1090
F9.795
sg1098
g1793
sg1106
F-1.0
sg1114
F0.009
sg1122
F0.7
sg1130
S'0035'
p1837
sg1139
F-1.0
sg1147
F-1.0
sg1155
F6.93684324
sg1163
F9.0
sg1171
F-1.0
sg1179
g3
(g121
S'4V\xd8\x87:V\xe0?'
p1838
tp1839
Rp1840
sg1187
F-1.0
sg1195
F95.0
ssS'BHMCatS1013V'
p1841
(dp1842
g12
F0.0
sg20
S'Sol B'
p1843
sg29
F0.656
sg37
F0.0
sg45
I1013
sg53
F5770.0
sg61
F0.0
sg69
F0.0
sg77
F0.0
sg85
F1.0
sg93
F4.56
sg101
F1.0
sg109
S'Sol'
p1844
sg118
g3
(g121
S'0\xa8\x1bgj\x94\x8f?'
p1845
tp1846
Rp1847
sg134
F-2.0
sg142
g143
sg151
F0.0
sg159
F0.0
sg167
S'G2V'
p1848
sg169
(lp1849
(dp1850
g179
S'BHMCatPV1013'
p1851
sg188
F0.0
sg196
F0.0
sg204
S'BHMCatS1013V'
p1852
sg213
F0.0
sg221
S'1013'
p1853
sg230
g231
sg239
F1.000001
sg247
S'1013'
p1854
sg256
F0.0
sg264
F0.0
sg272
S'Sol'
p1855
sg281
F1.000001
sg289
F0.0
sg297
F1.0
sg305
F0.0
sg313
F0.0
sg321
F1.0
sg329
S'Earth Analogue'
p1856
sg338
g339
sg347
F0.0
sasg355
S'G2V'
p1857
sg363
S'NICHE'
p1858
sg372
F4.43838464
sg380
F2.01909
sg388
S'12'
p1859
sg390
(dp1860
S'BHMCatPV1013'
p1861
(dp1862
g401
F7.0
sg409
F0.0
sg417
F0.0
sg425
F0.0
sg433
F4.56
sg441
F0.0
sg449
F11.3
sg457
S"'early mars'"
p1863
sg466
F4.5
sg474
F1.5
sg482
F1.000001
sg490
F0.002
sg498
F1.0
sg506
F1.0
sg514
F0.0
sg522
S'Chaboyer'
p1864
sg531
F2.0
sg539
F0.95
sg547
F0.275556
sg555
F0.95
sg563
F1.000001
sg571
F5e+40
sg579
F4.7e+40
sg587
F1.5
sg595
F44.0
sg603
F0.0
sg611
F0.275556
sg619
F5.0
sg627
F1.0
sg635
S'Chaboyer'
p1865
sg644
F0.0
sg652
F0.3
sg660
S"'maximum greenhouse'"
p1866
sg669
F0.3
sg677
F1.0
sg685
S"'Earth'"
p1867
sg694
F0.01
sg702
F10.0
sg710
F4.56
sg718
F2.0
sg726
F3.0
sg734
S'PARSEC'
p1868
sg743
S'PARSEC'
p1869
sg752
F5e+40
sg760
F4.7e+40
sg768
S'BHMCatPV1013'
p1870
sg777
F0.01
sg785
S'BHMCatS1013V'
p1871
sg794
S'Earth Analogue'
p1872
sg803
F7.0
sg811
S'Sol'
p1873
sg820
S"'recent venus'"
p1874
sg829
S"'runaway greenhouse'"
p1875
sg838
F11.3
sg846
F0.0
sg854
F4.56
sg862
F5.0
sg870
F0.002
sg878
F0.34
sssg886
F4.43838464
sg894
g3
(g121
S'*~\xba=\xcc\x0c9@'
p1876
tp1877
Rp1878
sg902
S'2014arXiv1408.5163M;'
p1879
sg911
F1.0
sg919
F1.0
sg927
F0.0
sg935
F5770.0
sg943
F90.0
sg951
F25.05
sg959
F0.3
sg967
F0.0
sg975
F0.0
sg983
S'BHMCatPV1013;'
p1880
sg992
F0.0
sg1000
F1.0
sg1008
g1009
sg1017
S'Sol A'
p1881
sg1026
F-2.0
sg1034
F-1.0
sg1042
F25.05
sg1050
F4.848e-06
sg1058
F-1.0
sg1066
g3
(g121
S'\x00\x00\x00\x00\x00\x00\x00\x00'
p1882
tp1883
Rp1884
sg1074
F0.149972174389221
sg1082
g3
(g121
S'*~\xba=\xcc\x0c9@'
p1885
tp1886
Rp1887
sg1090
F-26.74
sg1098
g1841
sg1106
F1.0
sg1114
F0.0
sg1122
F0.0
sg1130
S'1013'
p1888
sg1139
F0.0
sg1147
F4.56
sg1155
F15.0
sg1163
F2.01909
sg1171
g3
(g121
S'0\xa8\x1bgj\x94\x8f?'
p1889
tp1890
Rp1891
sg1179
g3
(g121
S'\x00\x00\x00\x00\x00\x00\x00\x00'
p1892
tp1893
Rp1894
sg1187
F-1.0
sg1195
F0.0
ssS'BHMCatS0001D'
p1895
(dp1896
g12
F-0.3
sg20
S'Kepler-16 B'
p1897
sg29
F0.012
sg37
F-1.0
sg45
I1
sg53
F-1.0
sg61
F0.0016
sg69
F-1.0
sg77
F0.001
sg85
F0.226
sg93
F4.0
sg101
F0.203
sg109
S'Kepler-16'
p1898
sg118
g3
(g121
S'\xe7C\xb1\xc2\x0bc\x80?'
p1899
tp1900
Rp1901
sg134
F51.75743888888889
sg142
g1287
sg151
F0.0017
sg159
F0.001
sg167
S'K type'
p1902
sg169
(lp1903
(dp1904
g179
S'BHMCatPD0001'
p1905
sg188
F5.087572418874117
sg196
F0.0069
sg204
S'BHMCatS001D'
p1906
sg213
F0.001
sg221
g1635
sg230
S'2012Natur.481..475W;2012yCatp038048101W'
p1907
sg239
F8.458745816983205
sg247
S'0001'
p1908
sg256
F228.776
sg264
F0.0011
sg272
S'Kepler-16'
p1909
sg281
F105.88510096781756
sg289
F-1.0
sg297
F0.7048
sg305
F0.028
sg313
F0.0
sg321
F0.893
sg329
S'Kepler-16b'
p1910
sg338
g1297
sg347
F0.02749260712603987
sasg355
S'M type'
p1911
sg363
S'KIC'
p1912
sg372
F5.0358
sg380
F-1.0
sg388
S'12644769'
p1913
sg390
(dp1914
S'BHMCatPD0001'
p1915
(dp1916
g401
F7.0
sg409
F0.0
sg417
F0.0
sg425
F0.0
sg433
F3.0
sg441
F-0.3
sg449
F11.3
sg457
S"'early mars'"
p1917
sg466
F4.5
sg474
F1.5
sg482
F8.45874581698321
sg490
F0.002
sg498
F1.0
sg506
F1.0
sg514
F-0.3
sg522
S'Chaboyer'
p1918
sg531
F2.0
sg539
F0.95
sg547
F0.275556
sg555
F0.95
sg563
F105.885100967818
sg571
F5e+40
sg579
F4.7e+40
sg587
F1.5
sg595
F44.0
sg603
F0.0
sg611
F0.275556
sg619
F5.0
sg627
F1.0
sg635
S'Chaboyer'
p1919
sg644
F0.0
sg652
F0.52
sg660
S"'maximum greenhouse'"
p1920
sg669
F0.3
sg677
F1.0
sg685
S"'Saturn'"
p1921
sg694
F0.01
sg702
F10.0
sg710
F3.0
sg718
F2.0
sg726
F3.0
sg734
S'PARSEC'
p1922
sg743
S'PARSEC'
p1923
sg752
F1e+40
sg760
F4.7e+40
sg768
S'BHMCatPD0001'
p1924
sg777
F0.01
sg785
S'BHMCatS0001D'
p1925
sg794
S'Kepler-16b'
p1926
sg803
F7.0
sg811
S'Kepler-16'
p1927
sg820
S"'recent venus'"
p1928
sg829
S"'runaway greenhouse'"
p1929
sg838
F11.3
sg846
F0.0
sg854
F3.0
sg862
F5.0
sg870
F0.002
sg878
F0.3
sssg886
F4.479
sg894
g3
(g121
S'\xa1\xffg\xf2\xe8\xd6A@'
p1930
tp1931
Rp1932
sg902
S'2011Sci...333.1602D; 2011ApJ...741L...1W;'
p1933
sg911
F0.69
sg919
F0.649
sg927
F1.0
sg935
F4337.0
sg943
F90.3401
sg951
F-1.0
sg959
F0.1594
sg967
F0.004
sg975
F-1.0
sg983
S'BHMCatPD0001;'
p1934
sg992
F-1.0
sg1000
F0.294202898550725
sg1008
g1009
sg1017
S'Kepler-16 A'
p1935
sg1026
F19.27171388888889
sg1034
F0.2
sg1042
F35.1
sg1050
F-1.0
sg1058
F263.464
sg1066
F-1.0
sg1074
F0.2243
sg1082
F-1.0
sg1090
F11.762
sg1098
g1895
sg1106
F-1.0
sg1114
F0.001
sg1122
F0.025
sg1130
S'0001'
p1936
sg1139
F-0.2
sg1147
F2.0
sg1155
F41.079
sg1163
F0.92
sg1171
g3
(g121
S'\xff\x07\xf4,5d\x84?'
p1937
tp1938
Rp1939
sg1179
g3
(g121
S'#B\xd6\xbbs\x06\xef?'
p1940
tp1941
Rp1942
sg1187
F-1.0
sg1195
F80.0
ssS'PlanetFields'
p1943
(lp1944
g221
ag247
ag338
ag179
ag204
ag272
ag329
ag281
ag188
ag239
ag347
ag321
ag297
ag264
ag256
ag305
ag196
ag213
ag289
ag313
ag230
asS'BHMCatS0005D'
p1945
(dp1946
g12
F-0.25
sg20
S'Kepler-47 B'
p1947
sg29
F0.126
sg37
F-1.0
sg45
I5
sg53
F3357.0
sg61
F-1.0
sg69
F-1.0
sg77
F0.017
sg85
F0.35
sg93
F5.0
sg101
F0.362
sg109
S'Kepler-47'
p1948
sg118
g3
(g121
S'\x17\xc4\xeb\x8f\x9cG\x82?'
p1949
tp1950
Rp1951
sg134
F46.92046666666666
sg142
g1287
sg151
F0.05
sg159
F0.006
sg167
g168
sg169
(lp1952
(dp1953
g179
S'BHMCatPD0005'
p1954
sg188
F0.0
sg196
F0.035
sg204
S'BHMCatS005D'
p1955
sg213
F-1.0
sg221
S'5'
p1956
sg230
S'2013ApJ...768..127S;2013ApJ...770...52K'
p1957
sg239
F3.029797520012557
sg247
S'0005'
p1958
sg256
F49.514
sg264
F0.0047
sg272
S'Kepler-47'
p1959
sg281
F7.631358628311175
sg289
F-1.0
sg297
F0.2956
sg305
F0.04
sg313
F0.0
sg321
F1.405
sg329
S'Kepler-47b'
p1960
sg338
g1297
sg347
F0.12343619525977083
sa(dp1961
g179
S'BHMCatPD0006'
p1962
sg188
F0.0
sg196
F0.09
sg204
S'BHMCatS005D'
p1963
sg213
F-1.0
sg221
S'6'
p1964
sg230
S'2014ApJ...784...14K'
p1965
sg239
F4.600803641500549
sg247
S'0006'
p1966
sg256
F303.158
sg264
F0.016
sg272
S'Kepler-47'
p1967
sg281
F28.617594856166907
sg289
F-1.0
sg297
F0.989
sg305
F0.072
sg313
F0.0
sg321
F1.405
sg329
S'Kepler-47c'
p1968
sg338
S'c'
p1969
sg347
F0.20198650133417043
sasg355
g168
sg363
S'KIC'
p1970
sg372
F-1.0
sg380
F-1.0
sg388
S'10020423'
p1971
sg390
(dp1972
S'BHMCatPD0005'
p1973
(dp1974
g401
F7.0
sg409
F0.0
sg417
F5.53
sg425
F0.0
sg433
F3.0
sg441
F-0.25
sg449
F11.3
sg457
S"'early mars'"
p1975
sg466
F4.5
sg474
F1.5
sg482
F3.02979752001256
sg490
F0.002
sg498
F1.0
sg506
F1.0
sg514
F-0.25
sg522
S'Chaboyer'
p1976
sg531
F2.0
sg539
F0.95
sg547
F0.275556
sg555
F0.95
sg563
F7.63135862831118
sg571
F5e+40
sg579
F4.7e+40
sg587
F1.5
sg595
F44.0
sg603
F0.0
sg611
F0.275556
sg619
F5.0
sg627
F1.0
sg635
S'Chaboyer'
p1977
sg644
F0.0
sg652
F0.8
sg660
S"'maximum greenhouse'"
p1978
sg669
F0.3
sg677
F1.0
sg685
S"'Saturn'"
p1979
sg694
F0.01
sg702
F10.0
sg710
F3.0
sg718
F2.0
sg726
F3.0
sg734
S'PARSEC'
p1980
sg743
S'PARSEC'
p1981
sg752
F1e+40
sg760
F4.7e+40
sg768
S'BHMCatPD0005'
p1982
sg777
F0.01
sg785
S'BHMCatS0005D'
p1983
sg794
S'Kepler-47b'
p1984
sg803
F7.0
sg811
S'Kepler-47'
p1985
sg820
S"'recent venus'"
p1986
sg829
S"'runaway greenhouse'"
p1987
sg838
F11.3
sg846
F0.0
sg854
F3.0
sg862
F5.0
sg870
F0.002
sg878
F0.3
ssS'BHMCatPD0006'
p1988
(dp1989
g401
F7.0
sg409
F0.0
sg417
F5.53
sg425
F0.0
sg433
F3.0
sg441
F-0.25
sg449
F11.3
sg457
g1975
sg466
F4.5
sg474
F1.5
sg482
F4.60080364150055
sg490
F0.002
sg498
F1.0
sg506
F1.0
sg514
F-0.25
sg522
g1976
sg531
F2.0
sg539
F0.95
sg547
F0.275556
sg555
F0.95
sg563
F28.6175948561669
sg571
F5e+40
sg579
F4.7e+40
sg587
F1.5
sg595
F44.0
sg603
F0.0
sg611
F0.275556
sg619
F5.0
sg627
F1.0
sg635
g1977
sg644
F0.0
sg652
F0.12
sg660
g1978
sg669
F0.3
sg677
F1.0
sg685
S"'Saturn'"
p1990
sg694
F0.01
sg702
F10.0
sg710
F3.0
sg718
F2.0
sg726
F3.0
sg734
g1980
sg743
g1981
sg752
F1e+40
sg760
F4.7e+40
sg768
S'BHMCatPD0006'
p1991
sg777
F0.01
sg785
g1983
sg794
S'Kepler-47c'
p1992
sg803
F7.0
sg811
g1985
sg820
g1986
sg829
g1987
sg838
F11.3
sg846
F0.0
sg854
F3.0
sg862
F5.0
sg870
F0.002
sg878
F0.3
sssg886
F4.588
sg894
g3
(g121
S"\xca<\xdd\xec\xa2\xc8'@"
p1993
tp1994
Rp1995
sg902
S'2012Sci...337.1511O;'
p1996
sg911
F1.043
sg919
F0.964
sg927
F0.022
sg935
F5636.0
sg943
F89.69
sg951
F-1.0
sg959
F0.0234
sg967
F0.055
sg975
F-1.0
sg983
S'BHMCatPD0005;BHMCatPD0006;'
p1997
sg992
F100.0
sg1000
F0.347075743048897
sg1008
g1009
sg1017
S'Kepler-47 A'
p1998
sg1026
F19.686527777777776
sg1034
F-1.0
sg1042
F7.775
sg1050
F-1.0
sg1058
F212.3
sg1066
F-1.0
sg1074
F0.0836
sg1082
F-1.0
sg1090
F15.178
sg1098
g1945
sg1106
F-1.0
sg1114
F0.013
sg1122
F0.5
sg1130
S'0005'
p1999
sg1139
F-0.252
sg1147
F1.0
sg1155
F7.448
sg1163
F4.1
sg1171
g3
(g121
S'\xf5aR\xa613\x82?'
p2000
tp2001
Rp2002
sg1179
g3
(g121
S'\x87Z\xcb\x12"4\xf7?'
p2003
tp2004
Rp2005
sg1187
g3
(g121
S'\xb6Y6\x15\x84!\x90@'
p2006
tp2007
Rp2008
sg1195
F100.0
ssS'BHMCatS1011V'
p2009
(dp2010
g12
F0.0
sg20
S'NICHE-011 B'
p2011
sg29
F-2.0
sg37
F-2.0
sg45
I1011
sg53
F-2.0
sg61
F-2.0
sg69
F-2.0
sg77
F0.0
sg85
F-2.0
sg93
F-2.0
sg101
F0.55
sg109
S'NICHE-011'
p2012
sg118
g3
(g121
S'0\xa8\x1bgj\x94\x8f?'
p2013
tp2014
Rp2015
sg134
F-2.0
sg142
g143
sg151
F-2.0
sg159
F0.0
sg167
g168
sg169
(lp2016
(dp2017
g179
S'BHMCatPV1011'
p2018
sg188
F0.0
sg196
F0.0
sg204
S'BHMCatS1011V'
p2019
sg213
F0.0
sg221
S'1011'
p2020
sg230
g231
sg239
F1.000001
sg247
S'1011'
p2021
sg256
F0.0
sg264
F0.0
sg272
S'NICHE-011'
p2022
sg281
F1.000001
sg289
F0.0
sg297
F1.0
sg305
F0.0
sg313
F0.0
sg321
F1.0
sg329
S'NICHE-011h'
p2023
sg338
g339
sg347
F0.0
sasg355
g168
sg363
S'NICHE'
p2024
sg372
F-2.0
sg380
F-2.0
sg388
S'11'
p2025
sg390
(dp2026
S'BHMCatPV1011'
p2027
(dp2028
g401
F7.0
sg409
F0.0
sg417
F0.0
sg425
F0.0
sg433
F1.0
sg441
F0.0
sg449
F11.3
sg457
S"'early mars'"
p2029
sg466
F4.5
sg474
F1.5
sg482
F1.000001
sg490
F0.002
sg498
F1.0
sg506
F1.0
sg514
F0.0
sg522
S'Chaboyer'
p2030
sg531
F2.0
sg539
F0.95
sg547
F0.275556
sg555
F0.95
sg563
F1.000001
sg571
F5e+40
sg579
F4.7e+40
sg587
F1.5
sg595
F44.0
sg603
F0.0
sg611
F0.275556
sg619
F5.0
sg627
F1.0
sg635
S'Chaboyer'
p2031
sg644
F0.0
sg652
F0.3
sg660
S"'maximum greenhouse'"
p2032
sg669
F0.3
sg677
F1.0
sg685
S"'Earth'"
p2033
sg694
F0.01
sg702
F10.0
sg710
F1.0
sg718
F2.0
sg726
F3.0
sg734
S'PARSEC'
p2034
sg743
S'PARSEC'
p2035
sg752
F5e+40
sg760
F4.7e+40
sg768
S'BHMCatPV1011'
p2036
sg777
F0.01
sg785
S'BHMCatS1011V'
p2037
sg794
S'NICHE-011h'
p2038
sg803
F7.0
sg811
S'NICHE-011'
p2039
sg820
S"'recent venus'"
p2040
sg829
S"'runaway greenhouse'"
p2041
sg838
F11.3
sg846
F0.0
sg854
F1.0
sg862
F5.0
sg870
F0.002
sg878
F0.3
sssg886
F-2.0
sg894
F-1.0
sg902
S'2014arXiv1408.5163M;'
p2042
sg911
F0.7
sg919
F-2.0
sg927
F-2.0
sg935
F-2.0
sg943
F-2.0
sg951
F-2.0
sg959
F0.4
sg967
F0.0
sg975
F-1.0
sg983
S'BHMCatPV1011;'
p2043
sg992
F-2.0
sg1000
F0.785714285714286
sg1008
g1009
sg1017
S'NICHE-011 A'
p2044
sg1026
F-2.0
sg1034
F-1.0
sg1042
F-2.0
sg1050
F-1.0
sg1058
F-1.0
sg1066
F-1.0
sg1074
F0.203543556080572
sg1082
F-1.0
sg1090
F-2.0
sg1098
g2009
sg1106
F-2.0
sg1114
F0.0
sg1122
F-2.0
sg1130
S'1011'
p2045
sg1139
F-1.0
sg1147
F-2.0
sg1155
F30.0
sg1163
F-2.0
sg1171
F-1.0
sg1179
F-1.0
sg1187
F-1.0
sg1195
F-2.0
ssS'BHMCatS0011P'
p2046
(dp2047
g12
F-1.0
sg20
S'V66 M4 B'
p2048
sg29
F0.88
sg37
F-1.0
sg45
I11
sg53
F5943.0
sg61
F-1.0
sg69
F-1.0
sg77
F0.005
sg85
F0.83
sg93
F-1.0
sg101
F0.744
sg109
S'V66 M4'
p2049
sg118
F-1.0
sg134
F-25.471861111111114
sg142
g1200
sg151
F-1.0
sg159
F0.005
sg167
S'G type'
p2050
sg169
(lp2051
(dp2052
g179
S'BHMCatPP0012'
p2053
sg188
F0.0
sg196
F0.0
sg204
S'BHMCatS0011P'
p2054
sg213
F0.0
sg221
S'12'
p2055
sg230
g231
sg239
F1.000001
sg247
S'0012'
p2056
sg256
F0.0
sg264
F0.0
sg272
S'V66 M4'
p2057
sg281
F1.000001
sg289
F0.0
sg297
F1.0
sg305
F0.0
sg313
F0.0
sg321
F1.0
sg329
S'V66 M4h'
p2058
sg338
g339
sg347
F0.0
sasg355
S'G type'
p2059
sg363
S'DEBCat'
p2060
sg372
F-1.0
sg380
F-1.0
sg388
S'28'
p2061
sg390
(dp2062
S'BHMCatPP0012'
p2063
(dp2064
g401
F7.0
sg409
F0.0
sg417
F0.0
sg425
F0.0
sg433
F1.0
sg441
F0.0
sg449
F11.3
sg457
S"'early mars'"
p2065
sg466
F4.5
sg474
F1.5
sg482
F1.000001
sg490
F0.002
sg498
F1.0
sg506
F1.0
sg514
F0.0
sg522
S'Chaboyer'
p2066
sg531
F2.0
sg539
F0.95
sg547
F0.275556
sg555
F0.95
sg563
F1.000001
sg571
F5e+40
sg579
F4.7e+40
sg587
F1.5
sg595
F44.0
sg603
F0.0
sg611
F0.275556
sg619
F5.0
sg627
F1.0
sg635
S'Chaboyer'
p2067
sg644
F0.0
sg652
F0.3
sg660
S"'maximum greenhouse'"
p2068
sg669
F0.3
sg677
F1.0
sg685
S"'Saturn'"
p2069
sg694
F0.01
sg702
F10.0
sg710
F1.0
sg718
F2.0
sg726
F3.0
sg734
S'PARSEC'
p2070
sg743
S'PARSEC'
p2071
sg752
F5e+40
sg760
F4.7e+40
sg768
S'BHMCatPP0012'
p2072
sg777
F0.01
sg785
S'BHMCatS0011P'
p2073
sg794
S'V66 M4h'
p2074
sg803
F7.0
sg811
S'V66 M4'
p2075
sg820
S"'recent venus'"
p2076
sg829
S"'runaway greenhouse'"
p2077
sg838
F11.3
sg846
F0.0
sg854
F1.0
sg862
F5.0
sg870
F0.002
sg878
F0.3
sssg886
F-1.0
sg894
F-1.0
sg902
S'2013AJ....145...43K;'
p2078
sg911
F0.784
sg919
F0.935
sg927
F-1.0
sg935
F6165.0
sg943
F-1.0
sg951
F-1.0
sg959
F0.0
sg967
F0.005
sg975
F-1.0
sg983
S'BHMCatPP0012;'
p2079
sg992
F-1.0
sg1000
F0.948979591836735
sg1008
g1009
sg1017
S'V66 M4 A'
p2080
sg1026
F16.392286111111112
sg1034
F-1.0
sg1042
F-1.0
sg1050
F-1.0
sg1058
F-1.0
sg1066
F-1.0
sg1074
F0.091
sg1082
F-1.0
sg1090
F16.84
sg1098
g2046
sg1106
F-1.0
sg1114
F0.004
sg1122
F-1.0
sg1130
S'0011'
p2081
sg1139
F-1.0
sg1147
F-1.0
sg1155
F8.111
sg1163
F-1.0
sg1171
F-1.0
sg1179
F-1.0
sg1187
g3
(g121
S'\xae\x1a\xc5y#\xe2\xaa@'
p2082
tp2083
Rp2084
sg1195
F-1.0
ssS'BHMCatS0013P'
p2085
(dp2086
g12
F-1.0
sg20
S'V785 Cep B'
p2087
sg29
F0.6
sg37
F-1.0
sg45
I13
sg53
F5874.0
sg61
F-1.0
sg69
F-1.0
sg77
F0.019
sg85
F1.373
sg93
F-1.0
sg101
F1.081
sg109
S'V785 Cep'
p2088
sg118
F-1.0
sg134
F85.17629166666667
sg142
g1200
sg151
F-1.0
sg159
F0.019
sg167
S'G type'
p2089
sg169
(lp2090
(dp2091
g179
S'BHMCatPP0014'
p2092
sg188
F0.0
sg196
F0.0
sg204
S'BHMCatS0013P'
p2093
sg213
F0.0
sg221
S'14'
p2094
sg230
g231
sg239
F1.000001
sg247
S'0014'
p2095
sg256
F0.0
sg264
F0.0
sg272
S'V785 Cep'
p2096
sg281
F1.000001
sg289
F0.0
sg297
F1.0
sg305
F0.0
sg313
F0.0
sg321
F1.0
sg329
S'V785 Ceph'
p2097
sg338
g339
sg347
F0.0
sasg355
S'G type'
p2098
sg363
S'DEBCat'
p2099
sg372
F-1.0
sg380
F-1.0
sg388
S'26'
p2100
sg390
(dp2101
S'BHMCatPP0014'
p2102
(dp2103
g401
F7.0
sg409
F0.0
sg417
F0.0
sg425
F0.0
sg433
F1.0
sg441
F0.0
sg449
F11.3
sg457
S"'early mars'"
p2104
sg466
F4.5
sg474
F1.5
sg482
F1.000001
sg490
F0.002
sg498
F1.0
sg506
F1.0
sg514
F0.0
sg522
S'Chaboyer'
p2105
sg531
F2.0
sg539
F0.95
sg547
F0.275556
sg555
F0.95
sg563
F1.000001
sg571
F5e+40
sg579
F4.7e+40
sg587
F1.5
sg595
F44.0
sg603
F0.0
sg611
F0.275556
sg619
F5.0
sg627
F1.0
sg635
S'Chaboyer'
p2106
sg644
F0.0
sg652
F0.3
sg660
S"'maximum greenhouse'"
p2107
sg669
F0.3
sg677
F1.0
sg685
S"'Saturn'"
p2108
sg694
F0.01
sg702
F10.0
sg710
F1.0
sg718
F2.0
sg726
F3.0
sg734
S'PARSEC'
p2109
sg743
S'PARSEC'
p2110
sg752
F5e+40
sg760
F4.7e+40
sg768
S'BHMCatPP0014'
p2111
sg777
F0.01
sg785
S'BHMCatS0013P'
p2112
sg794
S'V785 Ceph'
p2113
sg803
F7.0
sg811
S'V785 Cep'
p2114
sg820
S"'recent venus'"
p2115
sg829
S"'runaway greenhouse'"
p2116
sg838
F11.3
sg846
F0.0
sg854
F1.0
sg862
F5.0
sg870
F0.002
sg878
F0.3
sssg886
F-1.0
sg894
F-1.0
sg902
S'2014AJ....147...42Z; 2012MNRAS.425.3104F;'
p2117
sg911
F1.103
sg919
F1.424
sg927
F-1.0
sg935
F5902.0
sg943
F-1.0
sg951
F-1.0
sg959
F0.0
sg967
F0.007
sg975
F-1.0
sg983
S'BHMCatPP0014;'
p2118
sg992
F-1.0
sg1000
F0.980054397098821
sg1008
g1009
sg1017
S'V785 Cep A'
p2119
sg1026
F0.8770944444444445
sg1034
F-1.0
sg1042
F-1.0
sg1050
F-1.0
sg1058
F-1.0
sg1066
F-1.0
sg1074
F0.0885
sg1082
F-1.0
sg1090
F14.74
sg1098
g2085
sg1106
F-1.0
sg1114
F0.007
sg1122
F-1.0
sg1130
S'0013'
p2120
sg1139
F-1.0
sg1147
F-1.0
sg1155
F6.504
sg1163
F-1.0
sg1171
F-1.0
sg1179
F-1.0
sg1187
g3
(g121
S'\x03%\xcc\x91\x0b\xf3\x9d@'
p2121
tp2122
Rp2123
sg1195
F-1.0
ssS'BHMCatS1007V'
p2124
(dp2125
g12
F0.0
sg20
S'NICHE-007 B'
p2126
sg29
F-2.0
sg37
F-2.0
sg45
I1007
sg53
F-2.0
sg61
F-2.0
sg69
F-2.0
sg77
F0.0
sg85
F-2.0
sg93
F-2.0
sg101
F0.85
sg109
S'NICHE-007'
p2127
sg118
g3
(g121
S'0\xa8\x1bgj\x94\x8f?'
p2128
tp2129
Rp2130
sg134
F-2.0
sg142
g143
sg151
F-2.0
sg159
F0.0
sg167
g168
sg169
(lp2131
(dp2132
g179
S'BHMCatPV1007'
p2133
sg188
F0.0
sg196
F0.0
sg204
S'BHMCatS1007V'
p2134
sg213
F0.0
sg221
S'1007'
p2135
sg230
g231
sg239
F1.000001
sg247
S'1007'
p2136
sg256
F0.0
sg264
F0.0
sg272
S'NICHE-007'
p2137
sg281
F1.000001
sg289
F0.0
sg297
F1.0
sg305
F0.0
sg313
F0.0
sg321
F1.0
sg329
S'NICHE-007h'
p2138
sg338
g339
sg347
F0.0
sasg355
g168
sg363
S'NICHE'
p2139
sg372
F-2.0
sg380
F-2.0
sg388
S'7'
p2140
sg390
(dp2141
S'BHMCatPV1007'
p2142
(dp2143
g401
F7.0
sg409
F0.0
sg417
F0.0
sg425
F0.0
sg433
F1.0
sg441
F0.0
sg449
F11.3
sg457
S"'early mars'"
p2144
sg466
F4.5
sg474
F1.5
sg482
F1.000001
sg490
F0.002
sg498
F1.0
sg506
F1.0
sg514
F0.0
sg522
S'Chaboyer'
p2145
sg531
F2.0
sg539
F0.95
sg547
F0.275556
sg555
F0.95
sg563
F1.000001
sg571
F5e+40
sg579
F4.7e+40
sg587
F1.5
sg595
F44.0
sg603
F0.0
sg611
F0.275556
sg619
F5.0
sg627
F1.0
sg635
S'Chaboyer'
p2146
sg644
F0.0
sg652
F0.3
sg660
S"'maximum greenhouse'"
p2147
sg669
F0.3
sg677
F1.0
sg685
S"'Earth'"
p2148
sg694
F0.01
sg702
F10.0
sg710
F1.0
sg718
F2.0
sg726
F3.0
sg734
S'PARSEC'
p2149
sg743
S'PARSEC'
p2150
sg752
F5e+40
sg760
F4.7e+40
sg768
S'BHMCatPV1007'
p2151
sg777
F0.01
sg785
S'BHMCatS1007V'
p2152
sg794
S'NICHE-007h'
p2153
sg803
F7.0
sg811
S'NICHE-007'
p2154
sg820
S"'recent venus'"
p2155
sg829
S"'runaway greenhouse'"
p2156
sg838
F11.3
sg846
F0.0
sg854
F1.0
sg862
F5.0
sg870
F0.002
sg878
F0.3
sssg886
F-2.0
sg894
F-1.0
sg902
S'2014arXiv1408.5163M;'
p2157
sg911
F0.85
sg919
F-2.0
sg927
F-2.0
sg935
F-2.0
sg943
F-2.0
sg951
F-2.0
sg959
F0.2
sg967
F0.0
sg975
F-1.0
sg983
S'BHMCatPV1007;'
p2158
sg992
F-2.0
sg1000
F1.0
sg1008
g1009
sg1017
S'NICHE-007 A'
p2159
sg1026
F-2.0
sg1034
F-1.0
sg1042
F-2.0
sg1050
F-1.0
sg1058
F-1.0
sg1066
F-1.0
sg1074
F0.12242693814828
sg1082
F-1.0
sg1090
F-2.0
sg1098
g2124
sg1106
F-2.0
sg1114
F0.0
sg1122
F-2.0
sg1130
S'1007'
p2160
sg1139
F-1.0
sg1147
F-2.0
sg1155
F12.0
sg1163
F-2.0
sg1171
F-1.0
sg1179
F-1.0
sg1187
F-1.0
sg1195
F-2.0
ssS'BHMCatS0038P'
p2161
(dp2162
g12
F-1.0
sg20
S'NGC188 KR V12 B'
p2163
sg29
F-1.0
sg37
F-1.0
sg45
I38
sg53
F5875.0
sg61
F0.013
sg69
F-1.0
sg77
F0.019
sg85
F1.373
sg93
F-1.0
sg101
F1.081
sg109
S'NGC188 KR V12'
p2164
sg118
F-1.0
sg134
F85.17629166666667
sg142
g1200
sg151
F0.012
sg159
F0.019
sg167
S'G type'
p2165
sg169
(lp2166
(dp2167
g179
S'BHMCatPP0039'
p2168
sg188
F0.0
sg196
F0.0
sg204
S'BHMCatS0038P'
p2169
sg213
F0.0
sg221
S'39'
p2170
sg230
g231
sg239
F1.000001
sg247
S'0039'
p2171
sg256
F0.0
sg264
F0.0
sg272
S'NGC188 KR V12'
p2172
sg281
F1.000001
sg289
F0.0
sg297
F1.0
sg305
F0.0
sg313
F0.0
sg321
F1.0
sg329
S'NGC188 KR V12h'
p2173
sg338
g339
sg347
F0.0
sasg355
S'G type'
p2174
sg363
S'EkCat'
p2175
sg372
F4.196
sg380
F17.0
sg388
g1956
sg390
(dp2176
S'BHMCatPP0039'
p2177
(dp2178
g401
F7.0
sg409
F0.0
sg417
F0.0
sg425
F0.0
sg433
F1.0
sg441
F0.0
sg449
F11.3
sg457
S"'early mars'"
p2179
sg466
F4.5
sg474
F1.5
sg482
F1.000001
sg490
F0.002
sg498
F1.0
sg506
F1.0
sg514
F0.0
sg522
S'Chaboyer'
p2180
sg531
F2.0
sg539
F0.95
sg547
F0.275556
sg555
F0.95
sg563
F1.000001
sg571
F5e+40
sg579
F4.7e+40
sg587
F1.5
sg595
F44.0
sg603
F0.0
sg611
F0.275556
sg619
F5.0
sg627
F1.0
sg635
S'Chaboyer'
p2181
sg644
F0.0
sg652
F0.3
sg660
S"'maximum greenhouse'"
p2182
sg669
F0.3
sg677
F1.0
sg685
S"'Saturn'"
p2183
sg694
F0.01
sg702
F10.0
sg710
F1.0
sg718
F2.0
sg726
F3.0
sg734
S'PARSEC'
p2184
sg743
S'PARSEC'
p2185
sg752
F5e+40
sg760
F4.7e+40
sg768
S'BHMCatPP0039'
p2186
sg777
F0.01
sg785
S'BHMCatS0038P'
p2187
sg794
S'NGC188 KR V12h'
p2188
sg803
F7.0
sg811
S'NGC188 KR V12'
p2189
sg820
S"'recent venus'"
p2190
sg829
S"'runaway greenhouse'"
p2191
sg838
F11.3
sg846
F0.0
sg854
F1.0
sg862
F5.0
sg870
F0.002
sg878
F0.3
sssg886
F4.174
sg894
g3
(g121
S"\xa9\x8d'\xff]3\x13@"
p2192
tp2193
Rp2194
sg902
S'2009AJ....137.5086M;'
p2195
sg911
F1.103
sg919
F1.424
sg927
F-1.0
sg935
F5900.0
sg943
F88.62
sg951
F-1.0
sg959
F0.0
sg967
F0.007
sg975
F75.0
sg983
S'BHMCatPP0039;'
p2196
sg992
F100.0
sg1000
F0.980054397098821
sg1008
g1009
sg1017
S'NGC188 KR V12 A'
p2197
sg1026
F0.8770944444444445
sg1034
F-1.0
sg1042
F-1.0
sg1050
F1770.0
sg1058
F-1.0
sg1066
F-1.0
sg1074
F0.0884857046791444
sg1082
g3
(g121
S'\xaf\xfaO\xef\xc1U\x10@'
p2198
tp2199
Rp2200
sg1090
F14.64
sg1098
g2161
sg1106
F-1.0
sg1114
F0.007
sg1122
F-1.0
sg1130
S'0038'
p2201
sg1139
F-1.0
sg1147
F-1.0
sg1155
F6.5042969
sg1163
F15.0
sg1171
F-1.0
sg1179
F-1.0
sg1187
F-1.0
sg1195
F100.0
ssS'BHMCatS1005V'
p2202
(dp2203
g12
F0.0
sg20
S'NICHE-005 B'
p2204
sg29
F-2.0
sg37
F-2.0
sg45
I1005
sg53
F-2.0
sg61
F-2.0
sg69
F-2.0
sg77
F0.0
sg85
F-2.0
sg93
F-2.0
sg101
F1.0
sg109
S'NICHE-005'
p2205
sg118
g3
(g121
S'0\xa8\x1bgj\x94\x8f?'
p2206
tp2207
Rp2208
sg134
F-2.0
sg142
g143
sg151
F-2.0
sg159
F0.0
sg167
g168
sg169
(lp2209
(dp2210
g179
S'BHMCatPV1005'
p2211
sg188
F0.0
sg196
F0.0
sg204
S'BHMCatS1005V'
p2212
sg213
F0.0
sg221
S'1005'
p2213
sg230
g231
sg239
F1.000001
sg247
S'1005'
p2214
sg256
F0.0
sg264
F0.0
sg272
S'NICHE-005'
p2215
sg281
F1.000001
sg289
F0.0
sg297
F1.0
sg305
F0.0
sg313
F0.0
sg321
F1.0
sg329
S'NICHE-005h'
p2216
sg338
g339
sg347
F0.0
sasg355
g168
sg363
S'NICHE'
p2217
sg372
F-2.0
sg380
F-2.0
sg388
g1956
sg390
(dp2218
S'BHMCatPV1005'
p2219
(dp2220
g401
F7.0
sg409
F0.0
sg417
F0.0
sg425
F0.0
sg433
F1.0
sg441
F0.0
sg449
F11.3
sg457
S"'early mars'"
p2221
sg466
F4.5
sg474
F1.5
sg482
F1.000001
sg490
F0.002
sg498
F1.0
sg506
F1.0
sg514
F0.0
sg522
S'Chaboyer'
p2222
sg531
F2.0
sg539
F0.95
sg547
F0.275556
sg555
F0.95
sg563
F1.000001
sg571
F5e+40
sg579
F4.7e+40
sg587
F1.5
sg595
F44.0
sg603
F0.0
sg611
F0.275556
sg619
F5.0
sg627
F1.0
sg635
S'Chaboyer'
p2223
sg644
F0.0
sg652
F0.3
sg660
S"'maximum greenhouse'"
p2224
sg669
F0.3
sg677
F1.0
sg685
S"'Earth'"
p2225
sg694
F0.01
sg702
F10.0
sg710
F1.0
sg718
F2.0
sg726
F3.0
sg734
S'PARSEC'
p2226
sg743
S'PARSEC'
p2227
sg752
F5e+40
sg760
F4.7e+40
sg768
S'BHMCatPV1005'
p2228
sg777
F0.01
sg785
S'BHMCatS1005V'
p2229
sg794
S'NICHE-005h'
p2230
sg803
F7.0
sg811
S'NICHE-005'
p2231
sg820
S"'recent venus'"
p2232
sg829
S"'runaway greenhouse'"
p2233
sg838
F11.3
sg846
F0.0
sg854
F1.0
sg862
F5.0
sg870
F0.002
sg878
F0.3
sssg886
F-2.0
sg894
F-1.0
sg902
S'2014arXiv1408.5163M;'
p2234
sg911
F1.0
sg919
F-2.0
sg927
F-2.0
sg935
F-2.0
sg943
F-2.0
sg951
F-2.0
sg959
F0.5
sg967
F0.0
sg975
F-1.0
sg983
S'BHMCatPV1005;'
p2235
sg992
F-2.0
sg1000
F1.0
sg1008
g1009
sg1017
S'NICHE-005 A'
p2236
sg1026
F-2.0
sg1034
F-1.0
sg1042
F-2.0
sg1050
F-1.0
sg1058
F-1.0
sg1066
F-1.0
sg1074
F0.377906198822968
sg1082
F-1.0
sg1090
F-2.0
sg1098
g2202
sg1106
F-2.0
sg1114
F0.0
sg1122
F-2.0
sg1130
S'1005'
p2237
sg1139
F-1.0
sg1147
F-2.0
sg1155
F60.0
sg1163
F-2.0
sg1171
F-1.0
sg1179
F-1.0
sg1187
F-1.0
sg1195
F-2.0
ssS'BHMCatS0029P'
p2238
(dp2239
g12
F-1.0
sg20
S'ASAS J162637-5042.8  B'
p2240
sg29
F-1.0
sg37
F-1.0
sg45
I29
sg53
F-1.0
sg61
F0.151
sg69
F-1.0
sg77
F0.33
sg85
F2.25
sg93
F-1.0
sg101
F1.246
sg109
S'ASAS J162637-5042.8'
p2241
sg118
F-1.0
sg134
F-49.2863
sg142
g1200
sg151
F0.13
sg159
F0.33
sg167
S'G1'
p2242
sg169
(lp2243
(dp2244
g179
S'BHMCatPP0030'
p2245
sg188
F0.0
sg196
F0.0
sg204
S'BHMCatS0029P'
p2246
sg213
F0.0
sg221
S'30'
p2247
sg230
g231
sg239
F1.000001
sg247
S'0030'
p2248
sg256
F0.0
sg264
F0.0
sg272
S'ASAS J162637-5042.8'
p2249
sg281
F1.000001
sg289
F0.0
sg297
F1.0
sg305
F0.0
sg313
F0.0
sg321
F1.0
sg329
S'ASAS J162637-5042.8 h'
p2250
sg338
g339
sg347
F0.0
sasg355
g168
sg363
S'EkCat'
p2251
sg372
F3.82900138511398
sg380
F-1.0
sg388
S'143'
p2252
sg390
(dp2253
S'BHMCatPP0030'
p2254
(dp2255
g401
F7.0
sg409
F0.0
sg417
F0.0
sg425
F0.0
sg433
F1.0
sg441
F0.0
sg449
F11.3
sg457
S"'early mars'"
p2256
sg466
F4.5
sg474
F1.5
sg482
F1.000001
sg490
F0.002
sg498
F1.0
sg506
F1.0
sg514
F0.0
sg522
S'Chaboyer'
p2257
sg531
F2.0
sg539
F0.95
sg547
F0.275556
sg555
F0.95
sg563
F1.000001
sg571
F5e+40
sg579
F4.7e+40
sg587
F1.5
sg595
F44.0
sg603
F0.0
sg611
F0.275556
sg619
F5.0
sg627
F1.0
sg635
S'Chaboyer'
p2258
sg644
F0.0
sg652
F0.3
sg660
S"'maximum greenhouse'"
p2259
sg669
F0.3
sg677
F1.0
sg685
S"'Saturn'"
p2260
sg694
F0.01
sg702
F10.0
sg710
F1.0
sg718
F2.0
sg726
F3.0
sg734
S'PARSEC'
p2261
sg743
S'PARSEC'
p2262
sg752
F5e+40
sg760
F4.7e+40
sg768
S'BHMCatPP0030'
p2263
sg777
F0.01
sg785
S'BHMCatS0029P'
p2264
sg794
S'ASAS J162637-5042.8 h'
p2265
sg803
F7.0
sg811
S'ASAS J162637-5042.8'
p2266
sg820
S"'recent venus'"
p2267
sg829
S"'runaway greenhouse'"
p2268
sg838
F11.3
sg846
F0.0
sg854
F1.0
sg862
F5.0
sg870
F0.002
sg878
F0.3
sssg886
F3.7917898139359
sg894
F-1.0
sg902
S'2008AN....329..835B;'
p2269
sg911
F1.469
sg919
F2.55
sg927
F-1.0
sg935
F-1.0
sg943
F85.6
sg951
F-1.0
sg959
F0.019
sg967
F0.008
sg975
F19.0
sg983
S'BHMCatPP0030;'
p2270
sg992
F-1.0
sg1000
F0.848196051735875
sg1008
g1009
sg1017
S'ASAS J162637-5042.8  A'
p2271
sg1026
F16.443722222222224
sg1034
F-1.0
sg1042
F-1.0
sg1050
F200.0
sg1058
F-1.0
sg1066
F-1.0
sg1074
F0.117112063636364
sg1082
F-1.0
sg1090
F9.868
sg1098
g2238
sg1106
F-1.0
sg1114
F0.007
sg1122
F-1.0
sg1130
S'0029'
p2272
sg1139
F-1.0
sg1147
F-1.0
sg1155
F8.87621
sg1163
F-1.0
sg1171
F-1.0
sg1179
F-1.0
sg1187
F-1.0
sg1195
F-1.0
ssS'BHMCatS0039P'
p2273
(dp2274
g12
F-1.0
sg20
S'BD-02 873 B'
p2275
sg29
F-1.0
sg37
F-1.0
sg45
I39
sg53
F-1.0
sg61
F0.196
sg69
F-1.0
sg77
F0.29
sg85
F1.43
sg93
F-1.0
sg101
F1.179
sg109
S'BD-02 873'
p2276
sg118
F-1.0
sg134
F-0.26017500000000005
sg142
g1200
sg151
F0.197
sg159
F0.26
sg167
S'G3.5'
p2277
sg169
(lp2278
(dp2279
g179
S'BHMCatPP0040'
p2280
sg188
F0.0
sg196
F0.0
sg204
S'BHMCatS0039P'
p2281
sg213
F0.0
sg221
S'40'
p2282
sg230
g231
sg239
F1.000001
sg247
S'0040'
p2283
sg256
F0.0
sg264
F0.0
sg272
S'BD-02 873'
p2284
sg281
F1.000001
sg289
F0.0
sg297
F1.0
sg305
F0.0
sg313
F0.0
sg321
F1.0
sg329
S'BD-02 873h'
p2285
sg338
g339
sg347
F0.0
sasg355
g168
sg363
S'EkCat'
p2286
sg372
F4.19869010917852
sg380
F-1.0
sg388
S'40'
p2287
sg390
(dp2288
S'BHMCatPP0040'
p2289
(dp2290
g401
F7.0
sg409
F0.0
sg417
F0.0
sg425
F0.0
sg433
F1.0
sg441
F0.0
sg449
F11.3
sg457
S"'early mars'"
p2291
sg466
F4.5
sg474
F1.5
sg482
F1.000001
sg490
F0.002
sg498
F1.0
sg506
F1.0
sg514
F0.0
sg522
S'Chaboyer'
p2292
sg531
F2.0
sg539
F0.95
sg547
F0.275556
sg555
F0.95
sg563
F1.000001
sg571
F5e+40
sg579
F4.7e+40
sg587
F1.5
sg595
F44.0
sg603
F0.0
sg611
F0.275556
sg619
F5.0
sg627
F1.0
sg635
S'Chaboyer'
p2293
sg644
F0.0
sg652
F0.3
sg660
S"'maximum greenhouse'"
p2294
sg669
F0.3
sg677
F1.0
sg685
S"'Saturn'"
p2295
sg694
F0.01
sg702
F10.0
sg710
F1.0
sg718
F2.0
sg726
F3.0
sg734
S'PARSEC'
p2296
sg743
S'PARSEC'
p2297
sg752
F5e+40
sg760
F4.7e+40
sg768
S'BHMCatPP0040'
p2298
sg777
F0.01
sg785
S'BHMCatS0039P'
p2299
sg794
S'BD-02 873h'
p2300
sg803
F7.0
sg811
S'BD-02 873'
p2301
sg820
S"'recent venus'"
p2302
sg829
S"'runaway greenhouse'"
p2303
sg838
F11.3
sg846
F0.0
sg854
F1.0
sg862
F5.0
sg870
F0.002
sg878
F0.3
sssg886
F4.14665265525305
sg894
F-1.0
sg902
S'2007A&A...474..653V;'
p2304
sg911
F1.293
sg919
F1.59
sg927
F-1.0
sg935
F-1.0
sg943
F88.5
sg951
F-1.0
sg959
F0.132
sg967
F0.009
sg975
F17.0
sg983
S'BHMCatPP0040;'
p2305
sg992
F-1.0
sg1000
F0.911832946635731
sg1008
g1009
sg1017
S'BD-02 873 A'
p2306
sg1026
F4.344713888888888
sg1034
F-1.0
sg1042
F-1.0
sg1050
F129.0
sg1058
F-1.0
sg1066
F-1.0
sg1074
F0.0919767240641711
sg1082
F-1.0
sg1090
F8.621
sg1098
g2273
sg1106
F-1.0
sg1114
F0.009
sg1122
F-1.0
sg1130
S'0039'
p2307
sg1139
F-1.0
sg1147
F-1.0
sg1155
F6.47649
sg1163
F-1.0
sg1171
F-1.0
sg1179
F-1.0
sg1187
F-1.0
sg1195
F-1.0
ssS'BHMCatS1009V'
p2308
(dp2309
g12
F0.0
sg20
S'NICHE-009 B'
p2310
sg29
F-2.0
sg37
F-2.0
sg45
I1009
sg53
F-2.0
sg61
F-2.0
sg69
F-2.0
sg77
F0.0
sg85
F-2.0
sg93
F-2.0
sg101
F0.55
sg109
S'NICHE-009'
p2311
sg118
g3
(g121
S'0\xa8\x1bgj\x94\x8f?'
p2312
tp2313
Rp2314
sg134
F-2.0
sg142
g143
sg151
F-2.0
sg159
F0.0
sg167
g168
sg169
(lp2315
(dp2316
g179
S'BHMCatPV1009'
p2317
sg188
F0.0
sg196
F0.0
sg204
S'BHMCatS1009V'
p2318
sg213
F0.0
sg221
S'1009'
p2319
sg230
g231
sg239
F1.000001
sg247
S'1009'
p2320
sg256
F0.0
sg264
F0.0
sg272
S'NICHE-009'
p2321
sg281
F1.000001
sg289
F0.0
sg297
F1.0
sg305
F0.0
sg313
F0.0
sg321
F1.0
sg329
S'NICHE-009h'
p2322
sg338
g339
sg347
F0.0
sasg355
g168
sg363
S'NICHE'
p2323
sg372
F-2.0
sg380
F-2.0
sg388
g1292
sg390
(dp2324
S'BHMCatPV1009'
p2325
(dp2326
g401
F7.0
sg409
F0.0
sg417
F0.0
sg425
F0.0
sg433
F1.0
sg441
F0.0
sg449
F11.3
sg457
S"'early mars'"
p2327
sg466
F4.5
sg474
F1.5
sg482
F1.000001
sg490
F0.002
sg498
F1.0
sg506
F1.0
sg514
F0.0
sg522
S'Chaboyer'
p2328
sg531
F2.0
sg539
F0.95
sg547
F0.275556
sg555
F0.95
sg563
F1.000001
sg571
F5e+40
sg579
F4.7e+40
sg587
F1.5
sg595
F44.0
sg603
F0.0
sg611
F0.275556
sg619
F5.0
sg627
F1.0
sg635
S'Chaboyer'
p2329
sg644
F0.0
sg652
F0.3
sg660
S"'maximum greenhouse'"
p2330
sg669
F0.3
sg677
F1.0
sg685
S"'Earth'"
p2331
sg694
F0.01
sg702
F10.0
sg710
F1.0
sg718
F2.0
sg726
F3.0
sg734
S'PARSEC'
p2332
sg743
S'PARSEC'
p2333
sg752
F5e+40
sg760
F4.7e+40
sg768
S'BHMCatPV1009'
p2334
sg777
F0.01
sg785
S'BHMCatS1009V'
p2335
sg794
S'NICHE-009h'
p2336
sg803
F7.0
sg811
S'NICHE-009'
p2337
sg820
S"'recent venus'"
p2338
sg829
S"'runaway greenhouse'"
p2339
sg838
F11.3
sg846
F0.0
sg854
F1.0
sg862
F5.0
sg870
F0.002
sg878
F0.3
sssg886
F-2.0
sg894
F-1.0
sg902
S'2014arXiv1408.5163M;'
p2340
sg911
F0.85
sg919
F-2.0
sg927
F-2.0
sg935
F-2.0
sg943
F-2.0
sg951
F-2.0
sg959
F0.3
sg967
F0.0
sg975
F-1.0
sg983
S'BHMCatPV1009;'
p2341
sg992
F-2.0
sg1000
F0.647058823529412
sg1008
g1009
sg1017
S'NICHE-009 A'
p2342
sg1026
F-2.0
sg1034
F-1.0
sg1042
F-2.0
sg1050
F-1.0
sg1058
F-1.0
sg1066
F-1.0
sg1074
F0.133160893790228
sg1082
F-1.0
sg1090
F-2.0
sg1098
g2308
sg1106
F-2.0
sg1114
F0.0
sg1122
F-2.0
sg1130
S'1009'
p2343
sg1139
F-1.0
sg1147
F-2.0
sg1155
F15.0
sg1163
F-2.0
sg1171
F-1.0
sg1179
F-1.0
sg1187
F-1.0
sg1195
F-2.0
ssS'BHMCatS0015P'
p2344
(dp2345
g12
F-1.0
sg20
S'LSPM J1112+7626 B'
p2346
sg29
F-1.0
sg37
F-1.0
sg45
I15
sg53
F2952.0
sg61
F0.014
sg69
F-1.0
sg77
F0.005
sg85
F0.3
sg93
F-1.0
sg101
F0.275
sg109
S'LSPM J1112+7626'
p2347
sg118
F-1.0
sg134
F76.449
sg142
g1200
sg151
F0.012
sg159
F0.005
sg167
S'M4V'
p2348
sg169
(lp2349
(dp2350
g179
S'BHMCatPP0016'
p2351
sg188
F0.0
sg196
F0.0
sg204
S'BHMCatS0015P'
p2352
sg213
F0.0
sg221
S'16'
p2353
sg230
g231
sg239
F1.000001
sg247
S'0016'
p2354
sg256
F0.0
sg264
F0.0
sg272
S'LSPM J1112+7626'
p2355
sg281
F1.000001
sg289
F0.0
sg297
F1.0
sg305
F0.0
sg313
F0.0
sg321
F1.0
sg329
S'LSPM J1112+7626h'
p2356
sg338
g339
sg347
F0.0
sasg355
S'M type'
p2357
sg363
S'EkCat'
p2358
sg372
F4.929
sg380
F-1.0
sg388
S'113'
p2359
sg390
(dp2360
S'BHMCatPP0016'
p2361
(dp2362
g401
F7.0
sg409
F0.0
sg417
F0.0
sg425
F0.0
sg433
F1.0
sg441
F0.0
sg449
F11.3
sg457
S"'early mars'"
p2363
sg466
F4.5
sg474
F1.5
sg482
F1.000001
sg490
F0.002
sg498
F1.0
sg506
F1.0
sg514
F0.0
sg522
S'Chaboyer'
p2364
sg531
F2.0
sg539
F0.95
sg547
F0.275556
sg555
F0.95
sg563
F1.000001
sg571
F5e+40
sg579
F4.7e+40
sg587
F1.5
sg595
F44.0
sg603
F0.0
sg611
F0.275556
sg619
F5.0
sg627
F1.0
sg635
S'Chaboyer'
p2365
sg644
F0.0
sg652
F0.3
sg660
S"'maximum greenhouse'"
p2366
sg669
F0.3
sg677
F1.0
sg685
S"'Saturn'"
p2367
sg694
F0.01
sg702
F10.0
sg710
F1.0
sg718
F2.0
sg726
F3.0
sg734
S'PARSEC'
p2368
sg743
S'PARSEC'
p2369
sg752
F5e+40
sg760
F4.7e+40
sg768
S'BHMCatPP0016'
p2370
sg777
F0.01
sg785
S'BHMCatS0015P'
p2371
sg794
S'LSPM J1112+7626h'
p2372
sg803
F7.0
sg811
S'LSPM J1112+7626'
p2373
sg820
S"'recent venus'"
p2374
sg829
S"'runaway greenhouse'"
p2375
sg838
F11.3
sg846
F0.0
sg854
F1.0
sg862
F5.0
sg870
F0.002
sg878
F0.3
sssg886
F4.861
sg894
F-1.0
sg902
S'2011ApJ...742..123I;'
p2376
sg911
F0.395
sg919
F0.381
sg927
F-1.0
sg935
F3061.0
sg943
F89.71
sg951
F-1.0
sg959
F0.239
sg967
F0.002
sg975
F5.0
sg983
S'BHMCatPP0016;'
p2377
sg992
F163.0
sg1000
F0.69620253164557
sg1008
S'DEBCat'
p2378
sg1017
S'LSPM J1112+7626 A'
p2379
sg1026
F11.211755555555555
sg1034
F-1.0
sg1042
F-1.0
sg1050
F48.1
sg1058
F-1.0
sg1066
F-1.0
sg1074
F0.203875532085561
sg1082
F-1.0
sg1090
F12.015
sg1098
g2344
sg1106
F-1.0
sg1114
F0.001
sg1122
F-1.0
sg1130
S'0015'
p2380
sg1139
F-1.0
sg1147
F-1.0
sg1155
F41.032336
sg1163
F-1.0
sg1171
F-1.0
sg1179
F-1.0
sg1187
F-1.0
sg1195
F162.0
ssS'BHMCatS0017P'
p2381
(dp2382
g12
F-1.0
sg20
S'AI Phe B'
p2383
sg29
F-1.0
sg37
F1.0
sg45
I17
sg53
F5010.0
sg61
F0.012
sg69
F-1.0
sg77
F0.048
sg85
F1.816
sg93
F-1.0
sg101
F1.195
sg109
S'AI Phe'
p2384
sg118
F-1.0
sg134
F-45.73441944444444
sg142
g1200
sg151
F0.014
sg159
F0.024
sg167
S'F7V'
p2385
sg169
(lp2386
(dp2387
g179
S'BHMCatPP0018'
p2388
sg188
F0.0
sg196
F0.0
sg204
S'BHMCatS0017P'
p2389
sg213
F0.0
sg221
S'18'
p2390
sg230
g231
sg239
F1.000001
sg247
S'0018'
p2391
sg256
F0.0
sg264
F0.0
sg272
S'AI Phe'
p2392
sg281
F1.000001
sg289
F0.0
sg297
F1.0
sg305
F0.0
sg313
F0.0
sg321
F1.0
sg329
S'AI Pheh'
p2393
sg338
g339
sg347
F0.0
sasg355
S'K0IV'
p2394
sg363
S'EkCat'
p2395
sg372
F3.997
sg380
F4.0
sg388
g1292
sg390
(dp2396
S'BHMCatPP0018'
p2397
(dp2398
g401
F7.0
sg409
F0.0
sg417
F0.0
sg425
F0.0
sg433
F1.0
sg441
F0.0
sg449
F11.3
sg457
S"'early mars'"
p2399
sg466
F4.5
sg474
F1.5
sg482
F1.000001
sg490
F0.002
sg498
F1.0
sg506
F1.0
sg514
F0.0
sg522
S'Chaboyer'
p2400
sg531
F2.0
sg539
F0.95
sg547
F0.275556
sg555
F0.95
sg563
F1.000001
sg571
F5e+40
sg579
F4.7e+40
sg587
F1.5
sg595
F44.0
sg603
F0.0
sg611
F0.275556
sg619
F5.0
sg627
F1.0
sg635
S'Chaboyer'
p2401
sg644
F0.0
sg652
F0.3
sg660
S"'maximum greenhouse'"
p2402
sg669
F0.3
sg677
F1.0
sg685
S"'Saturn'"
p2403
sg694
F0.01
sg702
F10.0
sg710
F1.0
sg718
F2.0
sg726
F3.0
sg734
S'PARSEC'
p2404
sg743
S'PARSEC'
p2405
sg752
F5e+40
sg760
F4.7e+40
sg768
S'BHMCatPP0018'
p2406
sg777
F0.01
sg785
S'BHMCatS0017P'
p2407
sg794
S'AI Pheh'
p2408
sg803
F7.0
sg811
S'AI Phe'
p2409
sg820
S"'recent venus'"
p2410
sg829
S"'runaway greenhouse'"
p2411
sg838
F11.3
sg846
F0.0
sg854
F1.0
sg862
F5.0
sg870
F0.002
sg878
F0.3
sssg886
F3.596
sg894
g3
(g121
S'\x8e\xb6x\\\xa2\xb08@'
p2412
tp2413
Rp2414
sg902
S'1988A&A...196..128A;'
p2415
sg911
F1.236
sg919
F2.93
sg927
F-1.0
sg935
F6310.0
sg943
F88.45
sg951
F-1.0
sg959
F0.186
sg967
F0.005
sg975
F6.0
sg983
S'BHMCatPP0018;'
p2416
sg992
F120.0
sg1000
F0.966828478964401
sg1008
g1009
sg1017
S'AI Phe A'
p2417
sg1026
F1.1594972222222222
sg1034
F-1.0
sg1042
F-1.0
sg1050
F162.0
sg1058
F-1.0
sg1066
g3
(g121
S'\x9c\xae\xf4\x92?\xf4\x16@'
p2418
tp2419
Rp2420
sg1074
F0.222494302139037
sg1082
g3
(g121
S'\x9c\xae\xf4\x92?\xf46@'
p2421
tp2422
Rp2423
sg1090
F8.607
sg1098
g2381
sg1106
F-1.0
sg1114
F0.004
sg1122
F1.0
sg1130
S'0017'
p2424
sg1139
F-1.0
sg1147
F-1.0
sg1155
F24.592325
sg1163
F6.0
sg1171
F-1.0
sg1179
g3
(g121
S'_$\xfb\x92\xc1u\x10@'
p2425
tp2426
Rp2427
sg1187
F-1.0
sg1195
F150.0
ssS'BHMCatS0003D'
p2428
(dp2429
g12
F-0.603
sg20
S'Kepler-35 B'
p2430
sg29
F0.123
sg37
F-1.0
sg45
I3
sg53
F5202.0
sg61
F-1.0
sg69
F-1.0
sg77
F0.002
sg85
F0.786
sg93
F12.0
sg101
F0.809
sg109
S'Kepler-35'
p2431
sg118
g3
(g121
S'0ts\xcf\xf9\xe6p?'
p2432
tp2433
Rp2434
sg134
F46.68976111111111
sg142
g1287
sg151
F-1.0
sg159
F0.002
sg167
S'G type'
p2435
sg169
(lp2436
(dp2437
g179
S'BHMCatPD0003'
p2438
sg188
F6.359465523592647
sg196
F0.042
sg204
S'BHMCatS003D'
p2439
sg213
F0.005
sg221
g1421
sg230
S'2012ApJ...758...87O'
p2440
sg239
F8.16923183173756
sg247
S'0003'
p2441
sg256
F131.458
sg264
F0.00102
sg272
S'Kepler-35'
p2442
sg281
F40.3826060748133
sg289
F-1.0
sg297
F0.60347
sg305
F0.085
sg313
F0.0
sg321
F1.697
sg329
S'Kepler-35b'
p2443
sg338
g1297
sg347
F0.15710061214879925
sasg355
S'G type'
p2444
sg363
S'KIC'
p2445
sg372
F-1.0
sg380
F-1.0
sg388
S'9837578'
p2446
sg390
(dp2447
S'BHMCatPD0003'
p2448
(dp2449
g401
F7.0
sg409
F0.0
sg417
F0.0
sg425
F0.0
sg433
F10.0
sg441
F-0.603
sg449
F11.3
sg457
S"'early mars'"
p2450
sg466
F4.5
sg474
F1.5
sg482
F8.16923183173756
sg490
F0.002
sg498
F1.0
sg506
F1.0
sg514
F-0.603
sg522
S'Chaboyer'
p2451
sg531
F2.0
sg539
F0.95
sg547
F0.275556
sg555
F0.95
sg563
F40.3826060748133
sg571
F5e+40
sg579
F4.7e+40
sg587
F1.5
sg595
F44.0
sg603
F0.0
sg611
F0.275556
sg619
F5.0
sg627
F1.0
sg635
S'Chaboyer'
p2452
sg644
F0.0
sg652
F0.8
sg660
S"'maximum greenhouse'"
p2453
sg669
F0.3
sg677
F1.0
sg685
S"'Saturn'"
p2454
sg694
F0.01
sg702
F10.0
sg710
F10.0
sg718
F2.0
sg726
F3.0
sg734
S'PARSEC'
p2455
sg743
S'PARSEC'
p2456
sg752
F5e+40
sg760
F4.7e+40
sg768
S'BHMCatPD0003'
p2457
sg777
F0.01
sg785
S'BHMCatS0003D'
p2458
sg794
S'Kepler-35b'
p2459
sg803
F7.0
sg811
S'Kepler-35'
p2460
sg820
S"'recent venus'"
p2461
sg829
S"'runaway greenhouse'"
p2462
sg838
F11.3
sg846
F0.0
sg854
F10.0
sg862
F5.0
sg870
F0.002
sg878
F0.3
sssg886
F4.756
sg894
F-1.0
sg902
S'2012Natur.481..475W; 2012yCatp038048101W;'
p2463
sg911
F0.888
sg919
F1.028
sg927
F0.1
sg935
F5606.0
sg943
F90.4238
sg951
F-1.0
sg959
F0.1421
sg967
F0.005
sg975
F-1.0
sg983
S'BHMCatPD0003;'
p2464
sg992
F100.0
sg1000
F0.911036036036036
sg1008
g1009
sg1017
S'Kepler-35 A'
p2465
sg1026
F19.633131944444443
sg1034
F-1.0
sg1042
F20.8
sg1050
F-1.0
sg1058
F86.276
sg1066
F-1.0
sg1074
F0.1762
sg1082
F-1.0
sg1090
F15.726
sg1098
g2428
sg1106
F-1.0
sg1114
F0.004
sg1122
F-1.0
sg1130
S'0003'
p2466
sg1139
F-0.603
sg1147
F8.0
sg1155
F20.734
sg1163
F-1.0
sg1171
g3
(g121
S'0ts\xcf\xf9\xe6p?'
p2467
tp2468
Rp2469
sg1179
F-1.0
sg1187
g3
(g121
S'\x9d{Ss\x17\xef\x99@'
p2470
tp2471
Rp2472
sg1195
F150.0
ssS'BHMCatS1010V'
p2473
(dp2474
g12
F0.0
sg20
S'NICHE-010 B'
p2475
sg29
F-2.0
sg37
F-2.0
sg45
I1010
sg53
F-2.0
sg61
F-2.0
sg69
F-2.0
sg77
F0.0
sg85
F-2.0
sg93
F-2.0
sg101
F0.7
sg109
S'NICHE-010'
p2476
sg118
g3
(g121
S'0\xa8\x1bgj\x94\x8f?'
p2477
tp2478
Rp2479
sg134
F-2.0
sg142
g143
sg151
F-2.0
sg159
F0.0
sg167
g168
sg169
(lp2480
(dp2481
g179
S'BHMCatPV1010'
p2482
sg188
F0.0
sg196
F0.0
sg204
S'BHMCatS1010V'
p2483
sg213
F0.0
sg221
S'1010'
p2484
sg230
g231
sg239
F1.000001
sg247
S'1010'
p2485
sg256
F0.0
sg264
F0.0
sg272
S'NICHE-010'
p2486
sg281
F1.000001
sg289
F0.0
sg297
F1.0
sg305
F0.0
sg313
F0.0
sg321
F1.0
sg329
S'NICHE-010h'
p2487
sg338
g339
sg347
F0.0
sasg355
g168
sg363
S'NICHE'
p2488
sg372
F-2.0
sg380
F-2.0
sg388
S'10'
p2489
sg390
(dp2490
S'BHMCatPV1010'
p2491
(dp2492
g401
F7.0
sg409
F0.0
sg417
F0.0
sg425
F0.0
sg433
F1.0
sg441
F0.0
sg449
F11.3
sg457
S"'early mars'"
p2493
sg466
F4.5
sg474
F1.5
sg482
F1.000001
sg490
F0.002
sg498
F1.0
sg506
F1.0
sg514
F0.0
sg522
S'Chaboyer'
p2494
sg531
F2.0
sg539
F0.95
sg547
F0.275556
sg555
F0.95
sg563
F1.000001
sg571
F5e+40
sg579
F4.7e+40
sg587
F1.5
sg595
F44.0
sg603
F0.0
sg611
F0.275556
sg619
F5.0
sg627
F1.0
sg635
S'Chaboyer'
p2495
sg644
F0.0
sg652
F0.3
sg660
S"'maximum greenhouse'"
p2496
sg669
F0.3
sg677
F1.0
sg685
S"'Earth'"
p2497
sg694
F0.01
sg702
F10.0
sg710
F1.0
sg718
F2.0
sg726
F3.0
sg734
S'PARSEC'
p2498
sg743
S'PARSEC'
p2499
sg752
F5e+40
sg760
F4.7e+40
sg768
S'BHMCatPV1010'
p2500
sg777
F0.01
sg785
S'BHMCatS1010V'
p2501
sg794
S'NICHE-010h'
p2502
sg803
F7.0
sg811
S'NICHE-010'
p2503
sg820
S"'recent venus'"
p2504
sg829
S"'runaway greenhouse'"
p2505
sg838
F11.3
sg846
F0.0
sg854
F1.0
sg862
F5.0
sg870
F0.002
sg878
F0.3
sssg886
F-2.0
sg894
F-1.0
sg902
S'2014arXiv1408.5163M;'
p2506
sg911
F0.7
sg919
F-2.0
sg927
F-2.0
sg935
F-2.0
sg943
F-2.0
sg951
F-2.0
sg959
F0.4
sg967
F0.0
sg975
F-1.0
sg983
S'BHMCatPV1010;'
p2507
sg992
F-2.0
sg1000
F1.0
sg1008
g1009
sg1017
S'NICHE-010 A'
p2508
sg1026
F-2.0
sg1034
F-1.0
sg1042
F-2.0
sg1050
F-1.0
sg1058
F-1.0
sg1066
F-1.0
sg1074
F0.150371038433526
sg1082
F-1.0
sg1090
F-2.0
sg1098
g2473
sg1106
F-2.0
sg1114
F0.0
sg1122
F-2.0
sg1130
S'1010'
p2509
sg1139
F-1.0
sg1147
F-2.0
sg1155
F18.0
sg1163
F-2.0
sg1171
F-1.0
sg1179
F-1.0
sg1187
F-1.0
sg1195
F-2.0
ssS'FieldsText'
p2510
(dp2511
g12
g3
(g4
(S'S10'
p2512
I0
I1
tp2513
Rp2514
(I3
S'|'
p2515
NNNI10
I1
I0
tp2516
bS'[Fe/H]_fit'
p2517
tp2518
Rp2519
sg20
g3
(g4
(S'S10'
p2520
I0
I1
tp2521
Rp2522
(I3
S'|'
p2523
NNNI10
I1
I0
tp2524
bS'Star 2 Id.'
p2525
tp2526
Rp2527
sg29
g3
(g4
(S'S3'
p2528
I0
I1
tp2529
Rp2530
(I3
S'|'
p2531
NNNI3
I1
I0
tp2532
bS'B-V'
p2533
tp2534
Rp2535
sg37
g3
(g4
(S'S15'
p2536
I0
I1
tp2537
Rp2538
(I3
S'|'
p2539
NNNI15
I1
I0
tp2540
bS'v_2 sin i_2,err'
p2541
tp2542
Rp2543
sg45
g3
(g4
(S'S3'
p2544
I0
I1
tp2545
Rp2546
(I3
S'|'
p2547
NNNI3
I1
I0
tp2548
bS'No.'
p2549
tp2550
Rp2551
sg53
g3
(g4
(S'S3'
p2552
I0
I1
tp2553
Rp2554
(I3
S'|'
p2555
NNNI3
I1
I0
tp2556
bS'T_2'
p2557
tp2558
Rp2559
sg61
g3
(g4
(S'S11'
p2560
I0
I1
tp2561
Rp2562
(I3
S'|'
p2563
NNNI11
I1
I0
tp2564
bS'log g_2,err'
p2565
tp2566
Rp2567
sg69
g3
(g4
(S'S11'
p2568
I0
I1
tp2569
Rp2570
(I3
S'|'
p2571
NNNI11
I1
I0
tp2572
bS'P_rot,2,err'
p2573
tp2574
Rp2575
sg77
g3
(g4
(S'S7'
p2576
I0
I1
tp2577
Rp2578
(I3
S'|'
p2579
NNNI7
I1
I0
tp2580
bS'R_1,err'
p2581
tp2582
Rp2583
sg85
g3
(g4
(S'S3'
p2584
I0
I1
tp2585
Rp2586
(I3
S'|'
p2587
NNNI3
I1
I0
tp2588
bS'R_2'
p2589
tp2590
Rp2591
sg93
g3
(g4
(S'S8'
p2592
I0
I1
tp2593
Rp2594
(I3
S'|'
p2595
NNNI8
I1
I0
tp2596
bS'\\tau_max'
p2597
tp2598
Rp2599
sg101
g3
(g4
(S'S3'
p2600
I0
I1
tp2601
Rp2602
(I3
S'|'
p2603
NNNI3
I1
I0
tp2604
bS'M_2'
p2605
tp2606
Rp2607
sg109
g3
(g4
(S'S10'
p2608
I0
I1
tp2609
Rp2610
(I3
S'|'
p2611
NNNI10
I1
I0
tp2612
bS'System Id.'
p2613
tp2614
Rp2615
sg118
g3
(g4
(S'S5'
p2616
I0
I1
tp2617
Rp2618
(I3
S'|'
p2619
NNNI5
I1
I0
tp2620
bS'Z_fit'
p2621
tp2622
Rp2623
sg134
g3
(g4
(S'S3'
p2624
I0
I1
tp2625
Rp2626
(I3
S'|'
p2627
NNNI3
I1
I0
tp2628
bS'DEC'
p2629
tp2630
Rp2631
sg142
g3
(g4
(S'S4'
p2632
I0
I1
tp2633
Rp2634
(I3
S'|'
p2635
NNNI4
I1
I0
tp2636
bS'Type'
p2637
tp2638
Rp2639
sg151
g3
(g4
(S'S11'
p2640
I0
I1
tp2641
Rp2642
(I3
S'|'
p2643
NNNI11
I1
I0
tp2644
bS'log g_2,err'
p2645
tp2646
Rp2647
sg159
g3
(g4
(S'S7'
p2648
I0
I1
tp2649
Rp2650
(I3
S'|'
p2651
NNNI7
I1
I0
tp2652
bS'R_2,err'
p2653
tp2654
Rp2655
sg167
g3
(g4
(S'S10'
p2656
I0
I1
tp2657
Rp2658
(I3
S'|'
p2659
NNNI10
I1
I0
tp2660
bS'Sp. Type 1'
p2661
tp2662
Rp2663
sg355
g3
(g4
(S'S10'
p2664
I0
I1
tp2665
Rp2666
(I3
S'|'
p2667
NNNI10
I1
I0
tp2668
bS'Sp. Type 2'
p2669
tp2670
Rp2671
sg363
g3
(g4
(S'S11'
p2672
I0
I1
tp2673
Rp2674
(I3
S'|'
p2675
NNNI11
I1
I0
tp2676
bS'Source Cat.'
p2677
tp2678
Rp2679
sg372
g3
(g4
(S'S8'
p2680
I0
I1
tp2681
Rp2682
(I3
S'|'
p2683
NNNI8
I1
I0
tp2684
bS'log g_2 '
p2685
tp2686
Rp2687
sg380
g3
(g4
(S'S11'
p2688
I0
I1
tp2689
Rp2690
(I3
S'|'
p2691
NNNI11
I1
I0
tp2692
bS'v_2 sin i_2'
p2693
tp2694
Rp2695
sg388
g3
(g4
(S'S10'
p2696
I0
I1
tp2697
Rp2698
(I3
S'|'
p2699
NNNI10
I1
I0
tp2700
bS'Source Id.'
p2701
tp2702
Rp2703
sg886
g3
(g4
(S'S7'
p2704
I0
I1
tp2705
Rp2706
(I3
S'|'
p2707
NNNI7
I1
I0
tp2708
bS'log g_1'
p2709
tp2710
Rp2711
sg894
g3
(g4
(S'S9'
p2712
I0
I1
tp2713
Rp2714
(I3
S'|'
p2715
NNNI9
I1
I0
tp2716
bS'P_rot,v,1'
p2717
tp2718
Rp2719
sg902
g3
(g4
(S'S8'
p2720
I0
I1
tp2721
Rp2722
(I3
S'|'
p2723
NNNI8
I1
I0
tp2724
bS'ADS Link'
p2725
tp2726
Rp2727
sg911
g3
(g4
(S'S3'
p2728
I0
I1
tp2729
Rp2730
(I3
S'|'
p2731
NNNI3
I1
I0
tp2732
bS'M_1'
p2733
tp2734
Rp2735
sg919
g3
(g4
(S'S3'
p2736
I0
I1
tp2737
Rp2738
(I3
S'|'
p2739
NNNI3
I1
I0
tp2740
bS'R_1'
p2741
tp2742
Rp2743
sg927
g3
(g4
(S'S11'
p2744
I0
I1
tp2745
Rp2746
(I3
S'|'
p2747
NNNI11
I1
I0
tp2748
bS'P_rot,1,err'
p2749
tp2750
Rp2751
sg935
g3
(g4
(S'S3'
p2752
I0
I1
tp2753
Rp2754
(I3
S'|'
p2755
NNNI3
I1
I0
tp2756
bS'T_1'
p2757
tp2758
Rp2759
sg943
g3
(g4
(S'S5'
p2760
I0
I1
tp2761
Rp2762
(I3
S'|'
p2763
NNNI5
I1
I0
tp2764
bS'i_bin'
p2765
tp2766
Rp2767
sg951
g3
(g4
(S'S7'
p2768
I0
I1
tp2769
Rp2770
(I3
S'|'
p2771
NNNI7
I1
I0
tp2772
bS'P_rot,2'
p2773
tp2774
Rp2775
sg959
g3
(g4
(S'S5'
p2776
I0
I1
tp2777
Rp2778
(I3
S'|'
p2779
NNNI5
I1
I0
tp2780
bS'e_bin'
p2781
tp2782
Rp2783
sg967
g3
(g4
(S'S7'
p2784
I0
I1
tp2785
Rp2786
(I3
S'|'
p2787
NNNI7
I1
I0
tp2788
bS'M_1,err'
p2789
tp2790
Rp2791
sg975
g3
(g4
(S'S5'
p2792
I0
I1
tp2793
Rp2794
(I3
S'|'
p2795
NNNI5
I1
I0
tp2796
bS'd,err'
p2797
tp2798
Rp2799
sg983
g3
(g4
(S'S7'
p2800
I0
I1
tp2801
Rp2802
(I3
S'|'
p2803
NNNI7
I1
I0
tp2804
bS'Planets'
p2805
tp2806
Rp2807
sg992
g3
(g4
(S'S7'
p2808
I0
I1
tp2809
Rp2810
(I3
S'|'
p2811
NNNI7
I1
I0
tp2812
bS'T_2,err'
p2813
tp2814
Rp2815
sg1000
g3
(g4
(S'S1'
p2816
I0
I1
tp2817
Rp2818
(I3
S'|'
p2819
NNNI1
I1
I0
tp2820
bS'q'
p2821
tp2822
Rp2823
sg1008
g3
(g4
(S'S5'
p2824
I0
I1
tp2825
Rp2826
(I3
S'|'
p2827
NNNI5
I1
I0
tp2828
bS'Notes'
p2829
tp2830
Rp2831
sg1017
g3
(g4
(S'S10'
p2832
I0
I1
tp2833
Rp2834
(I3
S'|'
p2835
NNNI10
I1
I0
tp2836
bS'Star 1 Id.'
p2837
tp2838
Rp2839
sg1026
g3
(g4
(S'S2'
p2840
I0
I1
tp2841
Rp2842
(I3
S'|'
p2843
NNNI2
I1
I0
tp2844
bS'RA'
p2845
tp2846
Rp2847
sg1034
g3
(g4
(S'S14'
p2848
I0
I1
tp2849
Rp2850
(I3
S'|'
p2851
NNNI14
I1
I0
tp2852
bS'[Fe/H]_fit,err'
p2853
tp2854
Rp2855
sg1042
g3
(g4
(S'S7'
p2856
I0
I1
tp2857
Rp2858
(I3
S'|'
p2859
NNNI7
I1
I0
tp2860
bS'P_rot,1'
p2861
tp2862
Rp2863
sg1050
g3
(g4
(S'S1'
p2864
I0
I1
tp2865
Rp2866
(I3
S'|'
p2867
NNNI1
I1
I0
tp2868
bS'd'
p2869
tp2870
Rp2871
sg1058
g3
(g4
(S'S10'
p2872
I0
I1
tp2873
Rp2874
(I3
S'|'
p2875
NNNI10
I1
I0
tp2876
bS'\\omega_bin'
p2877
tp2878
Rp2879
sg1066
g3
(g4
(S'S13'
p2880
I0
I1
tp2881
Rp2882
(I3
S'|'
p2883
NNNI13
I1
I0
tp2884
bS'P_rot,v,2,err'
p2885
tp2886
Rp2887
sg1074
g3
(g4
(S'S5'
p2888
I0
I1
tp2889
Rp2890
(I3
S'|'
p2891
NNNI5
I1
I0
tp2892
bS'a_bin'
p2893
tp2894
Rp2895
sg1082
g3
(g4
(S'S9'
p2896
I0
I1
tp2897
Rp2898
(I3
S'|'
p2899
NNNI9
I1
I0
tp2900
bS'P_rot,v,2'
p2901
tp2902
Rp2903
sg1090
g3
(g4
(S'S1'
p2904
I0
I1
tp2905
Rp2906
(I3
S'|'
p2907
NNNI1
I1
I0
tp2908
bg143
tp2909
Rp2910
sg1098
g3
(g4
(S'S7'
p2911
I0
I1
tp2912
Rp2913
(I3
S'|'
p2914
NNNI7
I1
I0
tp2915
bS'Cat.Id.'
p2916
tp2917
Rp2918
sg1106
g3
(g4
(S'S3'
p2919
I0
I1
tp2920
Rp2921
(I3
S'|'
p2922
NNNI3
I1
I0
tp2923
bS'L_x'
p2924
tp2925
Rp2926
sg1114
g3
(g4
(S'S7'
p2927
I0
I1
tp2928
Rp2929
(I3
S'|'
p2930
NNNI7
I1
I0
tp2931
bS'M_2,err'
p2932
tp2933
Rp2934
sg1122
g3
(g4
(S'S15'
p2935
I0
I1
tp2936
Rp2937
(I3
S'|'
p2938
NNNI15
I1
I0
tp2939
bS'v_1 sin i_1,err'
p2940
tp2941
Rp2942
sg1130
g3
(g4
(S'S3'
p2943
I0
I1
tp2944
Rp2945
(I3
S'|'
p2946
NNNI3
I1
I0
tp2947
bS'No.'
p2948
tp2949
Rp2950
sg1139
g3
(g4
(S'S10'
p2951
I0
I1
tp2952
Rp2953
(I3
S'|'
p2954
NNNI10
I1
I0
tp2955
bS'[Fe/H]_obs'
p2956
tp2957
Rp2958
sg1147
g3
(g4
(S'S8'
p2959
I0
I1
tp2960
Rp2961
(I3
S'|'
p2962
NNNI8
I1
I0
tp2963
bS'\\tau_min'
p2964
tp2965
Rp2966
sg1155
g3
(g4
(S'S5'
p2967
I0
I1
tp2968
Rp2969
(I3
S'|'
p2970
NNNI5
I1
I0
tp2971
bS'P_bin'
p2972
tp2973
Rp2974
sg1163
g3
(g4
(S'S11'
p2975
I0
I1
tp2976
Rp2977
(I3
S'|'
p2978
NNNI11
I1
I0
tp2979
bS'v_1 sin i,1'
p2980
tp2981
Rp2982
sg1171
g3
(g4
(S'S5'
p2983
I0
I1
tp2984
Rp2985
(I3
S'|'
p2986
NNNI5
I1
I0
tp2987
bS'Z_obs'
p2988
tp2989
Rp2990
sg1179
g3
(g4
(S'S13'
p2991
I0
I1
tp2992
Rp2993
(I3
S'|'
p2994
NNNI13
I1
I0
tp2995
bS'P_rot,v,1,err'
p2996
tp2997
Rp2998
sg1187
g3
(g4
(S'S5'
p2999
I0
I1
tp3000
Rp3001
(I3
S'|'
p3002
NNNI5
I1
I0
tp3003
bS'd_mod'
p3004
tp3005
Rp3006
sg1195
g3
(g4
(S'S7'
p3007
I0
I1
tp3008
Rp3009
(I3
S'|'
p3010
NNNI7
I1
I0
tp3011
bS'T_1,err'
p3012
tp3013
Rp3014
ssS'Fields'
p3015
(lp3016
g45
ag1130
ag142
ag1098
ag363
ag388
ag109
ag1017
ag911
ag967
ag919
ag77
ag935
ag1195
ag886
ag151
ag1163
ag1122
ag894
ag1179
ag1042
ag927
ag167
ag20
ag101
ag1114
ag85
ag159
ag53
ag992
ag372
ag61
ag380
ag37
ag1082
ag1066
ag951
ag69
ag355
ag1000
ag1155
ag1074
ag959
ag1058
ag118
ag12
ag1034
ag1171
ag1139
ag943
ag1147
ag93
ag1090
ag29
ag1050
ag975
ag1187
ag1106
ag1026
ag134
ag983
ag1008
ag902
asS'PlanetFieldsType'
p3017
(dp3018
g179
g3
(g4
(S'S3'
p3019
I0
I1
tp3020
Rp3021
(I3
S'|'
p3022
NNNI3
I1
I0
tp3023
bS'str'
p3024
tp3025
Rp3026
sg188
g3
(g4
(S'S5'
p3027
I0
I1
tp3028
Rp3029
(I3
S'|'
p3030
NNNI5
I1
I0
tp3031
bS'float'
p3032
tp3033
Rp3034
sg196
g3
(g4
(S'S5'
p3035
I0
I1
tp3036
Rp3037
(I3
S'|'
p3038
NNNI5
I1
I0
tp3039
bS'float'
p3040
tp3041
Rp3042
sg204
g3
(g4
(S'S3'
p3043
I0
I1
tp3044
Rp3045
(I3
S'|'
p3046
NNNI3
I1
I0
tp3047
bS'str'
p3048
tp3049
Rp3050
sg213
g3
(g4
(S'S5'
p3051
I0
I1
tp3052
Rp3053
(I3
S'|'
p3054
NNNI5
I1
I0
tp3055
bS'float'
p3056
tp3057
Rp3058
sg221
g3
(g4
(S'S3'
p3059
I0
I1
tp3060
Rp3061
(I3
S'|'
p3062
NNNI3
I1
I0
tp3063
bS'str'
p3064
tp3065
Rp3066
sg230
g3
(g4
(S'S3'
p3067
I0
I1
tp3068
Rp3069
(I3
S'|'
p3070
NNNI3
I1
I0
tp3071
bS'str'
p3072
tp3073
Rp3074
sg239
g3
(g4
(S'S5'
p3075
I0
I1
tp3076
Rp3077
(I3
S'|'
p3078
NNNI5
I1
I0
tp3079
bS'float'
p3080
tp3081
Rp3082
sg247
g3
(g4
(S'S3'
p3083
I0
I1
tp3084
Rp3085
(I3
S'|'
p3086
NNNI3
I1
I0
tp3087
bS'str'
p3088
tp3089
Rp3090
sg256
g3
(g4
(S'S5'
p3091
I0
I1
tp3092
Rp3093
(I3
S'|'
p3094
NNNI5
I1
I0
tp3095
bS'float'
p3096
tp3097
Rp3098
sg264
g3
(g4
(S'S5'
p3099
I0
I1
tp3100
Rp3101
(I3
S'|'
p3102
NNNI5
I1
I0
tp3103
bS'float'
p3104
tp3105
Rp3106
sg272
g3
(g4
(S'S3'
p3107
I0
I1
tp3108
Rp3109
(I3
S'|'
p3110
NNNI3
I1
I0
tp3111
bS'str'
p3112
tp3113
Rp3114
sg281
g3
(g4
(S'S5'
p3115
I0
I1
tp3116
Rp3117
(I3
S'|'
p3118
NNNI5
I1
I0
tp3119
bS'float'
p3120
tp3121
Rp3122
sg289
g3
(g4
(S'S5'
p3123
I0
I1
tp3124
Rp3125
(I3
S'|'
p3126
NNNI5
I1
I0
tp3127
bS'float'
p3128
tp3129
Rp3130
sg297
g3
(g4
(S'S5'
p3131
I0
I1
tp3132
Rp3133
(I3
S'|'
p3134
NNNI5
I1
I0
tp3135
bS'float'
p3136
tp3137
Rp3138
sg305
g3
(g4
(S'S5'
p3139
I0
I1
tp3140
Rp3141
(I3
S'|'
p3142
NNNI5
I1
I0
tp3143
bS'float'
p3144
tp3145
Rp3146
sg313
g3
(g4
(S'S5'
p3147
I0
I1
tp3148
Rp3149
(I3
S'|'
p3150
NNNI5
I1
I0
tp3151
bS'float'
p3152
tp3153
Rp3154
sg321
g3
(g4
(S'S5'
p3155
I0
I1
tp3156
Rp3157
(I3
S'|'
p3158
NNNI5
I1
I0
tp3159
bS'float'
p3160
tp3161
Rp3162
sg329
g3
(g4
(S'S3'
p3163
I0
I1
tp3164
Rp3165
(I3
S'|'
p3166
NNNI3
I1
I0
tp3167
bS'str'
p3168
tp3169
Rp3170
sg338
g3
(g4
(S'S3'
p3171
I0
I1
tp3172
Rp3173
(I3
S'|'
p3174
NNNI3
I1
I0
tp3175
bS'str'
p3176
tp3177
Rp3178
sg347
g3
(g4
(S'S5'
p3179
I0
I1
tp3180
Rp3181
(I3
S'|'
p3182
NNNI5
I1
I0
tp3183
bS'float'
p3184
tp3185
Rp3186
ssS'BHMCatS0025P'
p3187
(dp3188
g12
F-1.0
sg20
S'HP Dra B'
p3189
sg29
F-1.0
sg37
F0.01
sg45
I25
sg53
F5895.0
sg61
F0.011
sg69
F-1.0
sg77
F0.012
sg85
F1.052
sg93
F-1.0
sg101
F1.094
sg109
S'HP Dra'
p3190
sg118
F-1.0
sg134
F51.308274999999995
sg142
g1200
sg151
F0.01
sg159
F0.01
sg167
S'F9V'
p3191
sg169
(lp3192
(dp3193
g179
S'BHMCatPP0026'
p3194
sg188
F0.0
sg196
F0.0
sg204
S'BHMCatS0025P'
p3195
sg213
F0.0
sg221
S'26'
p3196
sg230
g231
sg239
F1.000001
sg247
S'0026'
p3197
sg256
F0.0
sg264
F0.0
sg272
S'HP Dra'
p3198
sg281
F1.000001
sg289
F0.0
sg297
F1.0
sg305
F0.0
sg313
F0.0
sg321
F1.0
sg329
S'HP Drah'
p3199
sg338
g339
sg347
F0.0
sasg355
S'F9V'
p3200
sg363
S'EkCat'
p3201
sg372
F4.433
sg380
F4.43
sg388
S'176'
p3202
sg390
(dp3203
S'BHMCatPP0026'
p3204
(dp3205
g401
F7.0
sg409
F0.0
sg417
F0.0
sg425
F0.0
sg433
F1.0
sg441
F0.0
sg449
F11.3
sg457
S"'early mars'"
p3206
sg466
F4.5
sg474
F1.5
sg482
F1.000001
sg490
F0.002
sg498
F1.0
sg506
F1.0
sg514
F0.0
sg522
S'Chaboyer'
p3207
sg531
F2.0
sg539
F0.95
sg547
F0.275556
sg555
F0.95
sg563
F1.000001
sg571
F5e+40
sg579
F4.7e+40
sg587
F1.5
sg595
F44.0
sg603
F0.0
sg611
F0.275556
sg619
F5.0
sg627
F1.0
sg635
S'Chaboyer'
p3208
sg644
F0.0
sg652
F0.3
sg660
S"'maximum greenhouse'"
p3209
sg669
F0.3
sg677
F1.0
sg685
S"'Saturn'"
p3210
sg694
F0.01
sg702
F10.0
sg710
F1.0
sg718
F2.0
sg726
F3.0
sg734
S'PARSEC'
p3211
sg743
S'PARSEC'
p3212
sg752
F5e+40
sg760
F4.7e+40
sg768
S'BHMCatPP0026'
p3213
sg777
F0.01
sg785
S'BHMCatS0025P'
p3214
sg794
S'HP Drah'
p3215
sg803
F7.0
sg811
S'HP Dra'
p3216
sg820
S"'recent venus'"
p3217
sg829
S"'runaway greenhouse'"
p3218
sg838
F11.3
sg846
F0.0
sg854
F1.0
sg862
F5.0
sg870
F0.002
sg878
F0.3
sssg886
F4.218
sg894
g3
(g121
S'V\x1a\x88\xcd\x86k0@'
p3219
tp3220
Rp3221
sg902
S'2010AJ....140..129M;'
p3222
sg911
F1.133
sg919
F1.371
sg927
F-1.0
sg935
F6000.0
sg943
F87.82
sg951
F-1.0
sg959
F0.037
sg967
F0.005
sg975
F3.0
sg983
S'BHMCatPP0026;'
p3223
sg992
F150.0
sg1000
F0.965578111209179
sg1008
S'DEBCat'
p3224
sg1017
S'HP Dra A'
p3225
sg1026
F18.914855555555555
sg1034
F-1.0
sg1042
F-1.0
sg1050
F77.0
sg1058
F-1.0
sg1066
g3
(g121
S'\xb3\t\xa1\x87D\xbe\x9b?'
p3226
tp3227
Rp3228
sg1074
F0.124699212433155
sg1082
g3
(g121
S'\xe4\xd5YK \x01(@'
p3229
tp3230
Rp3231
sg1090
F7.951
sg1098
g3187
sg1106
F-1.0
sg1114
F0.007
sg1122
F0.01
sg1130
S'0025'
p3232
sg1139
F-1.0
sg1147
F-1.0
sg1155
F10.76152
sg1163
F4.22
sg1171
F-1.0
sg1179
g3
(g121
S'kJ\x8ff\x03\xec\xa3?'
p3233
tp3234
Rp3235
sg1187
F-1.0
sg1195
F150.0
ssS'BHMCatS0019P'
p3236
(dp3237
g12
F-1.0
sg20
S'V565 Lyr B'
p3238
sg29
F-1.0
sg37
F1.0
sg45
I19
sg53
F5430.0
sg61
F0.008
sg69
F-1.0
sg77
F0.007
sg85
F0.971
sg93
F-1.0
sg101
F0.929
sg109
S'V565 Lyr'
p3239
sg118
F-1.0
sg134
F37.76925
sg142
g1200
sg151
F0.0053
sg159
F0.009
sg167
S'G type'
p3240
sg169
(lp3241
(dp3242
g179
S'BHMCatPP0020'
p3243
sg188
F0.0
sg196
F0.0
sg204
S'BHMCatS0019P'
p3244
sg213
F0.0
sg221
S'20'
p3245
sg230
g231
sg239
F1.000001
sg247
S'0020'
p3246
sg256
F0.0
sg264
F0.0
sg272
S'V565 Lyr'
p3247
sg281
F1.000001
sg289
F0.0
sg297
F1.0
sg305
F0.0
sg313
F0.0
sg321
F1.0
sg329
S'V565 Lyrh'
p3248
sg338
g339
sg347
F0.0
sasg355
S'G type'
p3249
sg363
S'EkCat'
p3250
sg372
F4.4319
sg380
F3.5
sg388
S'187'
p3251
sg390
(dp3252
S'BHMCatPP0020'
p3253
(dp3254
g401
F7.0
sg409
F0.0
sg417
F0.0
sg425
F0.0
sg433
F1.0
sg441
F0.0
sg449
F11.3
sg457
S"'early mars'"
p3255
sg466
F4.5
sg474
F1.5
sg482
F1.000001
sg490
F0.002
sg498
F1.0
sg506
F1.0
sg514
F0.0
sg522
S'Chaboyer'
p3256
sg531
F2.0
sg539
F0.95
sg547
F0.275556
sg555
F0.95
sg563
F1.000001
sg571
F5e+40
sg579
F4.7e+40
sg587
F1.5
sg595
F44.0
sg603
F0.0
sg611
F0.275556
sg619
F5.0
sg627
F1.0
sg635
S'Chaboyer'
p3257
sg644
F0.0
sg652
F0.3
sg660
S"'maximum greenhouse'"
p3258
sg669
F0.3
sg677
F1.0
sg685
S"'Saturn'"
p3259
sg694
F0.01
sg702
F10.0
sg710
F1.0
sg718
F2.0
sg726
F3.0
sg734
S'PARSEC'
p3260
sg743
S'PARSEC'
p3261
sg752
F5e+40
sg760
F4.7e+40
sg768
S'BHMCatPP0020'
p3262
sg777
F0.01
sg785
S'BHMCatS0019P'
p3263
sg794
S'V565 Lyrh'
p3264
sg803
F7.0
sg811
S'V565 Lyr'
p3265
sg820
S"'recent venus'"
p3266
sg829
S"'runaway greenhouse'"
p3267
sg838
F11.3
sg846
F0.0
sg854
F1.0
sg862
F5.0
sg870
F0.002
sg878
F0.3
sssg886
F4.3524
sg894
g3
(g121
S'@\x96\x81(w\xd7+@'
p3268
tp3269
Rp3270
sg902
S'2011A&A...525A...2B;'
p3271
sg911
F0.996
sg919
F1.101
sg927
F-1.0
sg935
F5600.0
sg943
F89.38
sg951
F-1.0
sg959
F0.02
sg967
F0.003
sg975
F250.0
sg983
S'BHMCatPP0020;'
p3272
sg992
F125.0
sg1000
F0.932730923694779
sg1008
S'DEBCat'
p3273
sg1017
S'V565 Lyr A'
p3274
sg1026
F19.34697222222222
sg1034
F-1.0
sg1042
F-1.0
sg1050
F4010.0
sg1058
F-1.0
sg1066
g3
(g121
S'\x9fL\xbd\xcc\x12\t\x10@'
p3275
tp3276
Rp3277
sg1074
F0.172270169919786
sg1082
g3
(g121
S'\x16FK\xe6\xe0\x0f,@'
p3278
tp3279
Rp3280
sg1090
F17.73
sg1098
g3236
sg1106
F-1.0
sg1114
F0.003
sg1122
F1.0
sg1130
S'0019'
p3281
sg1139
F-1.0
sg1147
F-1.0
sg1155
F18.798638
sg1163
F4.0
sg1171
F-1.0
sg1179
g3
(g121
S'@\x96\x81(w\xd7\x0b@'
p3282
tp3283
Rp3284
sg1187
F-1.0
sg1195
F95.0
ssS'BHMCatS0031P'
p3285
(dp3286
g12
F-1.0
sg20
S'M4-V66 B'
p3287
sg29
F-1.0
sg37
F-1.0
sg45
I31
sg53
F5938.0
sg61
F0.085
sg69
F-1.0
sg77
F0.005
sg85
F0.83
sg93
F-1.0
sg101
F0.744
sg109
S'M4-V66'
p3288
sg118
F-1.0
sg134
F-25.471861111111114
sg142
g1200
sg151
F0.077
sg159
F0.005
sg167
S'F type'
p3289
sg169
(lp3290
(dp3291
g179
S'BHMCatPP0032'
p3292
sg188
F0.0
sg196
F0.0
sg204
S'BHMCatS0031P'
p3293
sg213
F0.0
sg221
S'32'
p3294
sg230
g231
sg239
F1.000001
sg247
S'0032'
p3295
sg256
F0.0
sg264
F0.0
sg272
S'M4-V66'
p3296
sg281
F1.000001
sg289
F0.0
sg297
F1.0
sg305
F0.0
sg313
F0.0
sg321
F1.0
sg329
S'M4-V66h'
p3297
sg338
g339
sg347
F0.0
sasg355
S'G type'
p3298
sg363
S'EkCat'
p3299
sg372
F4.469
sg380
F-1.0
sg388
S'140'
p3300
sg390
(dp3301
S'BHMCatPP0032'
p3302
(dp3303
g401
F7.0
sg409
F0.0
sg417
F0.0
sg425
F0.0
sg433
F1.0
sg441
F0.0
sg449
F11.3
sg457
S"'early mars'"
p3304
sg466
F4.5
sg474
F1.5
sg482
F1.000001
sg490
F0.002
sg498
F1.0
sg506
F1.0
sg514
F0.0
sg522
S'Chaboyer'
p3305
sg531
F2.0
sg539
F0.95
sg547
F0.275556
sg555
F0.95
sg563
F1.000001
sg571
F5e+40
sg579
F4.7e+40
sg587
F1.5
sg595
F44.0
sg603
F0.0
sg611
F0.275556
sg619
F5.0
sg627
F1.0
sg635
S'Chaboyer'
p3306
sg644
F0.0
sg652
F0.3
sg660
S"'maximum greenhouse'"
p3307
sg669
F0.3
sg677
F1.0
sg685
S"'Saturn'"
p3308
sg694
F0.01
sg702
F10.0
sg710
F1.0
sg718
F2.0
sg726
F3.0
sg734
S'PARSEC'
p3309
sg743
S'PARSEC'
p3310
sg752
F5e+40
sg760
F4.7e+40
sg768
S'BHMCatPP0032'
p3311
sg777
F0.01
sg785
S'BHMCatS0031P'
p3312
sg794
S'M4-V66h'
p3313
sg803
F7.0
sg811
S'M4-V66'
p3314
sg820
S"'recent venus'"
p3315
sg829
S"'runaway greenhouse'"
p3316
sg838
F11.3
sg846
F0.0
sg854
F1.0
sg862
F5.0
sg870
F0.002
sg878
F0.3
sssg886
F4.388
sg894
F-1.0
sg902
S'2013AJ....145...43K;'
p3317
sg911
F0.784
sg919
F0.934
sg927
F-1.0
sg935
F6162.0
sg943
F89.44
sg951
F-1.0
sg959
F0.0
sg967
F0.004
sg975
F30.0
sg983
S'BHMCatPP0032;'
p3318
sg992
F105.0
sg1000
F0.948979591836735
sg1008
g1009
sg1017
S'M4-V66 A'
p3319
sg1026
F16.392286111111112
sg1034
F-1.0
sg1042
F-1.0
sg1050
F1850.0
sg1058
F-1.0
sg1066
F-1.0
sg1074
F0.0910457855614973
sg1082
F-1.0
sg1090
F16.84
sg1098
g3285
sg1106
F-1.0
sg1114
F0.004
sg1122
F-1.0
sg1130
S'0031'
p3320
sg1139
F-1.0
sg1147
F-1.0
sg1155
F8.11130346
sg1163
F-1.0
sg1171
F-1.0
sg1179
F-1.0
sg1187
F-1.0
sg1195
F98.0
ssS'BHMCatS0009P'
p3321
(dp3322
g12
F-1.0
sg20
S'KX Cnc B'
p3323
sg29
F0.56
sg37
F-1.0
sg45
I9
sg53
F5847.0
sg61
F-1.0
sg69
F-1.0
sg77
F0.002
sg85
F1.049
sg93
F-1.0
sg101
F1.131
sg109
S'KX Cnc'
p3324
sg118
F-1.0
sg134
F31.86138888888889
sg142
g1200
sg151
F-1.0
sg159
F0.002
sg167
S'G0V'
p3325
sg169
(lp3326
(dp3327
g179
S'BHMCatPP0010'
p3328
sg188
F0.0
sg196
F0.0
sg204
S'BHMCatS0009P'
p3329
sg213
F0.0
sg221
S'10'
p3330
sg230
g231
sg239
F1.000001
sg247
S'0010'
p3331
sg256
F0.0
sg264
F0.0
sg272
S'KX Cnc'
p3332
sg281
F1.000001
sg289
F0.0
sg297
F1.0
sg305
F0.0
sg313
F0.0
sg321
F1.0
sg329
S'KX Cnch'
p3333
sg338
g339
sg347
F0.0
sasg355
S'G0V'
p3334
sg363
S'DEBCat'
p3335
sg372
F-1.0
sg380
F-1.0
sg388
S'39'
p3336
sg390
(dp3337
S'BHMCatPP0010'
p3338
(dp3339
g401
F7.0
sg409
F0.0
sg417
F0.0
sg425
F0.0
sg433
F1.0
sg441
F0.0
sg449
F11.3
sg457
S"'early mars'"
p3340
sg466
F4.5
sg474
F1.5
sg482
F1.000001
sg490
F0.002
sg498
F1.0
sg506
F1.0
sg514
F0.0
sg522
S'Chaboyer'
p3341
sg531
F2.0
sg539
F0.95
sg547
F0.275556
sg555
F0.95
sg563
F1.000001
sg571
F5e+40
sg579
F4.7e+40
sg587
F1.5
sg595
F44.0
sg603
F0.0
sg611
F0.275556
sg619
F5.0
sg627
F1.0
sg635
S'Chaboyer'
p3342
sg644
F0.0
sg652
F0.3
sg660
S"'maximum greenhouse'"
p3343
sg669
F0.3
sg677
F1.0
sg685
S"'Saturn'"
p3344
sg694
F0.01
sg702
F10.0
sg710
F1.0
sg718
F2.0
sg726
F3.0
sg734
S'PARSEC'
p3345
sg743
S'PARSEC'
p3346
sg752
F5e+40
sg760
F4.7e+40
sg768
S'BHMCatPP0010'
p3347
sg777
F0.01
sg785
S'BHMCatS0009P'
p3348
sg794
S'KX Cnch'
p3349
sg803
F7.0
sg811
S'KX Cnc'
p3350
sg820
S"'recent venus'"
p3351
sg829
S"'runaway greenhouse'"
p3352
sg838
F11.3
sg846
F0.0
sg854
F1.0
sg862
F5.0
sg870
F0.002
sg878
F0.3
sssg886
F-1.0
sg894
F-1.0
sg902
S'2006PZP.....6...14D;'
p3353
sg911
F1.138
sg919
F1.064
sg927
F-1.0
sg935
F5902.0
sg943
F-1.0
sg951
F-1.0
sg959
F0.4666
sg967
F0.003
sg975
F-1.0
sg983
S'BHMCatPP0010;'
p3354
sg992
F-1.0
sg1000
F0.993848857644991
sg1008
g1009
sg1017
S'KX Cnc A'
p3355
sg1026
F8.71275
sg1034
F-1.0
sg1042
F-1.0
sg1050
F-1.0
sg1058
F-1.0
sg1066
F-1.0
sg1074
F0.2553
sg1082
F-1.0
sg1090
F7.19
sg1098
g3321
sg1106
F-1.0
sg1114
F0.003
sg1122
F-1.0
sg1130
S'0009'
p3356
sg1139
F-1.0
sg1147
F-1.0
sg1155
F31.22
sg1163
F-1.0
sg1171
F-1.0
sg1179
F-1.0
sg1187
g3
(g121
S'\x91\xac\xf7z\xc5DF@'
p3357
tp3358
Rp3359
sg1195
F-1.0
ssS'BHMCatS0021P'
p3360
(dp3361
g12
F-1.0
sg20
S'KIC 6131659 B'
p3362
sg29
F-1.0
sg37
F-1.0
sg45
I21
sg53
F4780.0
sg61
F0.009
sg69
F-1.0
sg77
F0.003
sg85
F0.64
sg93
F-1.0
sg101
F0.685
sg109
S'KIC 6131659'
p3363
sg118
F-1.0
sg134
F41.436905555555555
sg142
g1200
sg151
F0.004
sg159
F0.006
sg167
S'G5V'
p3364
sg169
(lp3365
(dp3366
g179
S'BHMCatPP0022'
p3367
sg188
F0.0
sg196
F0.0
sg204
S'BHMCatS0021P'
p3368
sg213
F0.0
sg221
S'22'
p3369
sg230
g231
sg239
F1.000001
sg247
S'0022'
p3370
sg256
F0.0
sg264
F0.0
sg272
S'KIC 6131659'
p3371
sg281
F1.000001
sg289
F0.0
sg297
F1.0
sg305
F0.0
sg313
F0.0
sg321
F1.0
sg329
S'KIC 6131659h'
p3372
sg338
g339
sg347
F0.0
sasg355
g168
sg363
S'EkCat'
p3373
sg372
F4.66185785287664
sg380
F-1.0
sg388
S'198'
p3374
sg390
(dp3375
S'BHMCatPP0022'
p3376
(dp3377
g401
F7.0
sg409
F0.0
sg417
F0.0
sg425
F0.0
sg433
F1.0
sg441
F0.0
sg449
F11.3
sg457
S"'early mars'"
p3378
sg466
F4.5
sg474
F1.5
sg482
F1.000001
sg490
F0.002
sg498
F1.0
sg506
F1.0
sg514
F0.0
sg522
S'Chaboyer'
p3379
sg531
F2.0
sg539
F0.95
sg547
F0.275556
sg555
F0.95
sg563
F1.000001
sg571
F5e+40
sg579
F4.7e+40
sg587
F1.5
sg595
F44.0
sg603
F0.0
sg611
F0.275556
sg619
F5.0
sg627
F1.0
sg635
S'Chaboyer'
p3380
sg644
F0.0
sg652
F0.3
sg660
S"'maximum greenhouse'"
p3381
sg669
F0.3
sg677
F1.0
sg685
S"'Saturn'"
p3382
sg694
F0.01
sg702
F10.0
sg710
F1.0
sg718
F2.0
sg726
F3.0
sg734
S'PARSEC'
p3383
sg743
S'PARSEC'
p3384
sg752
F5e+40
sg760
F4.7e+40
sg768
S'BHMCatPP0022'
p3385
sg777
F0.01
sg785
S'BHMCatS0021P'
p3386
sg794
S'KIC 6131659h'
p3387
sg803
F7.0
sg811
S'KIC 6131659'
p3388
sg820
S"'recent venus'"
p3389
sg829
S"'runaway greenhouse'"
p3390
sg838
F11.3
sg846
F0.0
sg854
F1.0
sg862
F5.0
sg870
F0.002
sg878
F0.3
sssg886
F4.51361395576685
sg894
F-1.0
sg902
S'2008AN....329..835B;'
p3391
sg911
F0.922
sg919
F0.88
sg927
F-1.0
sg935
F5660.0
sg943
F89.19
sg951
F-1.0
sg959
F0.0
sg967
F0.007
sg975
F31.0
sg983
S'BHMCatPP0022;'
p3392
sg992
F105.0
sg1000
F0.74295010845987
sg1008
S'DEBCat'
p3393
sg1017
S'KIC 6131659 A'
p3394
sg1026
F19.618605555555558
sg1034
F-1.0
sg1042
F-1.0
sg1050
F322.0
sg1058
F-1.0
sg1066
F-1.0
sg1074
F0.154768526069519
sg1082
F-1.0
sg1090
F17.85
sg1098
g3360
sg1106
F-1.0
sg1114
F0.005
sg1122
F-1.0
sg1130
S'0021'
p3395
sg1139
F-1.0
sg1147
F-1.0
sg1155
F17.52782716
sg1163
F-1.0
sg1171
F-1.0
sg1179
F-1.0
sg1187
F-1.0
sg1195
F140.0
ssS'BHMCatS1012V'
p3396
(dp3397
g12
F0.0
sg20
S'NICHE-012 B'
p3398
sg29
F-2.0
sg37
F-2.0
sg45
I1012
sg53
F-2.0
sg61
F-2.0
sg69
F-2.0
sg77
F0.0
sg85
F-2.0
sg93
F-2.0
sg101
F0.55
sg109
S'NICHE-012'
p3399
sg118
g3
(g121
S'0\xa8\x1bgj\x94\x8f?'
p3400
tp3401
Rp3402
sg134
F-2.0
sg142
g143
sg151
F-2.0
sg159
F0.0
sg167
g168
sg169
(lp3403
(dp3404
g179
S'BHMCatPV1012'
p3405
sg188
F0.0
sg196
F0.0
sg204
S'BHMCatS1012V'
p3406
sg213
F0.0
sg221
S'1012'
p3407
sg230
g231
sg239
F1.000001
sg247
S'1012'
p3408
sg256
F0.0
sg264
F0.0
sg272
S'NICHE-012'
p3409
sg281
F1.000001
sg289
F0.0
sg297
F1.0
sg305
F0.0
sg313
F0.0
sg321
F1.0
sg329
S'NICHE-012h'
p3410
sg338
g339
sg347
F0.0
sasg355
g168
sg363
S'NICHE'
p3411
sg372
F-2.0
sg380
F-2.0
sg388
S'12'
p3412
sg390
(dp3413
S'BHMCatPV1012'
p3414
(dp3415
g401
F7.0
sg409
F0.0
sg417
F0.0
sg425
F0.0
sg433
F1.0
sg441
F0.0
sg449
F11.3
sg457
S"'early mars'"
p3416
sg466
F4.5
sg474
F1.5
sg482
F1.000001
sg490
F0.002
sg498
F1.0
sg506
F1.0
sg514
F0.0
sg522
S'Chaboyer'
p3417
sg531
F2.0
sg539
F0.95
sg547
F0.275556
sg555
F0.95
sg563
F1.000001
sg571
F5e+40
sg579
F4.7e+40
sg587
F1.5
sg595
F44.0
sg603
F0.0
sg611
F0.275556
sg619
F5.0
sg627
F1.0
sg635
S'Chaboyer'
p3418
sg644
F0.0
sg652
F0.3
sg660
S"'maximum greenhouse'"
p3419
sg669
F0.3
sg677
F1.0
sg685
S"'Earth'"
p3420
sg694
F0.01
sg702
F10.0
sg710
F1.0
sg718
F2.0
sg726
F3.0
sg734
S'PARSEC'
p3421
sg743
S'PARSEC'
p3422
sg752
F5e+40
sg760
F4.7e+40
sg768
S'BHMCatPV1012'
p3423
sg777
F0.01
sg785
S'BHMCatS1012V'
p3424
sg794
S'NICHE-012h'
p3425
sg803
F7.0
sg811
S'NICHE-012'
p3426
sg820
S"'recent venus'"
p3427
sg829
S"'runaway greenhouse'"
p3428
sg838
F11.3
sg846
F0.0
sg854
F1.0
sg862
F5.0
sg870
F0.002
sg878
F0.3
sssg886
F-2.0
sg894
F-1.0
sg902
S'2014arXiv1408.5163M;'
p3429
sg911
F0.55
sg919
F-2.0
sg927
F-2.0
sg935
F-2.0
sg943
F-2.0
sg951
F-2.0
sg959
F0.3
sg967
F0.0
sg975
F-1.0
sg983
S'BHMCatPV1012;'
p3430
sg992
F-2.0
sg1000
F1.0
sg1008
g1009
sg1017
S'NICHE-012 A'
p3431
sg1026
F-2.0
sg1034
F-1.0
sg1042
F-2.0
sg1050
F-1.0
sg1058
F-1.0
sg1066
F-1.0
sg1074
F0.148852937346155
sg1082
F-1.0
sg1090
F-2.0
sg1098
g3396
sg1106
F-2.0
sg1114
F0.0
sg1122
F-2.0
sg1130
S'1012'
p3432
sg1139
F-1.0
sg1147
F-2.0
sg1155
F20.0
sg1163
F-2.0
sg1171
F-1.0
sg1179
F-1.0
sg1187
F-1.0
sg1195
F-2.0
ssS'PlanetFieldsText'
p3433
(dp3434
g179
g3
(g4
(S'S12'
p3435
I0
I1
tp3436
Rp3437
(I3
S'|'
p3438
NNNI12
I1
I0
tp3439
bS'Plan.Cat.Id.'
p3440
tp3441
Rp3442
sg188
g3
(g4
(S'S7'
p3443
I0
I1
tp3444
Rp3445
(I3
S'|'
p3446
NNNI7
I1
I0
tp3447
bS'M_p,err'
p3448
tp3449
Rp3450
sg196
g3
(g4
(S'S5'
p3451
I0
I1
tp3452
Rp3453
(I3
S'|'
p3454
NNNI5
I1
I0
tp3455
bS'e_orb'
p3456
tp3457
Rp3458
sg204
g3
(g4
(S'S11'
p3459
I0
I1
tp3460
Rp3461
(I3
S'|'
p3462
NNNI11
I1
I0
tp3463
bS'Sys.Cat.Id.'
p3464
tp3465
Rp3466
sg213
g3
(g4
(S'S9'
p3467
I0
I1
tp3468
Rp3469
(I3
S'|'
p3470
NNNI9
I1
I0
tp3471
bS'e_orb,err'
p3472
tp3473
Rp3474
sg221
g3
(g4
(S'S3'
p3475
I0
I1
tp3476
Rp3477
(I3
S'|'
p3478
NNNI3
I1
I0
tp3479
bS'No.'
p3480
tp3481
Rp3482
sg230
g3
(g4
(S'S8'
p3483
I0
I1
tp3484
Rp3485
(I3
S'|'
p3486
NNNI8
I1
I0
tp3487
bS'ADS Link'
p3488
tp3489
Rp3490
sg239
g3
(g4
(S'S3'
p3491
I0
I1
tp3492
Rp3493
(I3
S'|'
p3494
NNNI3
I1
I0
tp3495
bS'R_p'
p3496
tp3497
Rp3498
sg247
g3
(g4
(S'S3'
p3499
I0
I1
tp3500
Rp3501
(I3
S'|'
p3502
NNNI3
I1
I0
tp3503
bS'No.'
p3504
tp3505
Rp3506
sg256
g3
(g4
(S'S5'
p3507
I0
I1
tp3508
Rp3509
(I3
S'|'
p3510
NNNI5
I1
I0
tp3511
bS'P_orb'
p3512
tp3513
Rp3514
sg264
g3
(g4
(S'S9'
p3515
I0
I1
tp3516
Rp3517
(I3
S'|'
p3518
NNNI9
I1
I0
tp3519
bS'a_orb,err'
p3520
tp3521
Rp3522
sg272
g3
(g4
(S'S10'
p3523
I0
I1
tp3524
Rp3525
(I3
S'|'
p3526
NNNI10
I1
I0
tp3527
bS'System Id.'
p3528
tp3529
Rp3530
sg281
g3
(g4
(S'S3'
p3531
I0
I1
tp3532
Rp3533
(I3
S'|'
p3534
NNNI3
I1
I0
tp3535
bS'M_p'
p3536
tp3537
Rp3538
sg289
g3
(g4
(S'S10'
p3539
I0
I1
tp3540
Rp3541
(I3
S'|'
p3542
NNNI10
I1
I0
tp3543
bS'\\omega_orb'
p3544
tp3545
Rp3546
sg297
g3
(g4
(S'S5'
p3547
I0
I1
tp3548
Rp3549
(I3
S'|'
p3550
NNNI5
I1
I0
tp3551
bS'a_orb'
p3552
tp3553
Rp3554
sg305
g3
(g4
(S'S9'
p3555
I0
I1
tp3556
Rp3557
(I3
S'|'
p3558
NNNI9
I1
I0
tp3559
bS'P_orb,err'
p3560
tp3561
Rp3562
sg313
g3
(g4
(S'S14'
p3563
I0
I1
tp3564
Rp3565
(I3
S'|'
p3566
NNNI14
I1
I0
tp3567
bS'\\omega_orb,err'
p3568
tp3569
Rp3570
sg321
g3
(g4
(S'S5'
p3571
I0
I1
tp3572
Rp3573
(I3
S'|'
p3574
NNNI5
I1
I0
tp3575
bS'M_orb'
p3576
tp3577
Rp3578
sg329
g3
(g4
(S'S10'
p3579
I0
I1
tp3580
Rp3581
(I3
S'|'
p3582
NNNI10
I1
I0
tp3583
bS'Planet Id.'
p3584
tp3585
Rp3586
sg338
g3
(g4
(S'S4'
p3587
I0
I1
tp3588
Rp3589
(I3
S'|'
p3590
NNNI4
I1
I0
tp3591
bS'Type'
p3592
tp3593
Rp3594
sg347
g3
(g4
(S'S7'
p3595
I0
I1
tp3596
Rp3597
(I3
S'|'
p3598
NNNI7
I1
I0
tp3599
bS'R_p,err'
p3600
tp3601
Rp3602
ssS'BHMCatS0020P'
p3603
(dp3604
g12
F-1.0
sg20
S'LV Her B'
p3605
sg29
F-1.0
sg37
F1.0
sg45
I20
sg53
F6030.0
sg61
F0.008
sg69
F-1.0
sg77
F0.012
sg85
F1.313
sg93
F-1.0
sg101
F1.17
sg109
S'LV Her'
p3606
sg118
F-1.0
sg134
F23.17516666666667
sg142
g1200
sg151
F0.008
sg159
F0.011
sg167
S'F9V'
p3607
sg169
(lp3608
(dp3609
g179
S'BHMCatPP0021'
p3610
sg188
F0.0
sg196
F0.0
sg204
S'BHMCatS0020P'
p3611
sg213
F0.0
sg221
S'21'
p3612
sg230
g231
sg239
F1.000001
sg247
S'0021'
p3613
sg256
F0.0
sg264
F0.0
sg272
S'LV Her'
p3614
sg281
F1.000001
sg289
F0.0
sg297
F1.0
sg305
F0.0
sg313
F0.0
sg321
F1.0
sg329
S'LV Herh'
p3615
sg338
g339
sg347
F0.0
sasg355
S'F9V'
p3616
sg363
S'EkCat'
p3617
sg372
F4.27
sg380
F13.0
sg388
S'154'
p3618
sg390
(dp3619
S'BHMCatPP0021'
p3620
(dp3621
g401
F7.0
sg409
F0.0
sg417
F0.0
sg425
F0.0
sg433
F1.0
sg441
F0.0
sg449
F11.3
sg457
S"'early mars'"
p3622
sg466
F4.5
sg474
F1.5
sg482
F1.000001
sg490
F0.002
sg498
F1.0
sg506
F1.0
sg514
F0.0
sg522
S'Chaboyer'
p3623
sg531
F2.0
sg539
F0.95
sg547
F0.275556
sg555
F0.95
sg563
F1.000001
sg571
F5e+40
sg579
F4.7e+40
sg587
F1.5
sg595
F44.0
sg603
F0.0
sg611
F0.275556
sg619
F5.0
sg627
F1.0
sg635
S'Chaboyer'
p3624
sg644
F0.0
sg652
F0.3
sg660
S"'maximum greenhouse'"
p3625
sg669
F0.3
sg677
F1.0
sg685
S"'Saturn'"
p3626
sg694
F0.01
sg702
F10.0
sg710
F1.0
sg718
F2.0
sg726
F3.0
sg734
S'PARSEC'
p3627
sg743
S'PARSEC'
p3628
sg752
F5e+40
sg760
F4.7e+40
sg768
S'BHMCatPP0021'
p3629
sg777
F0.01
sg785
S'BHMCatS0020P'
p3630
sg794
S'LV Herh'
p3631
sg803
F7.0
sg811
S'LV Her'
p3632
sg820
S"'recent venus'"
p3633
sg829
S"'runaway greenhouse'"
p3634
sg838
F11.3
sg846
F0.0
sg854
F1.0
sg862
F5.0
sg870
F0.002
sg878
F0.3
sssg886
F4.249
sg894
g3
(g121
S'\x96L\xb1\x9e\x1c"\x15@'
p3635
tp3636
Rp3637
sg902
S'2009AJ....138.1622T;'
p3638
sg911
F1.193
sg919
F1.358
sg927
F-1.0
sg935
F6060.0
sg943
F89.55
sg951
F-1.0
sg959
F0.613
sg967
F0.01
sg975
F24.0
sg983
S'BHMCatPP0021;'
p3639
sg992
F150.0
sg1000
F0.980720871751886
sg1008
S'DEBCat'
p3640
sg1017
S'LV Her A'
p3641
sg1026
F17.592333333333332
sg1034
F-1.0
sg1042
F-1.0
sg1050
F352.0
sg1058
F-1.0
sg1066
g3
(g121
S'\x14\ni\x0f\xf4%\xd9?'
p3642
tp3643
Rp3644
sg1074
F0.182091571122995
sg1082
g3
(g121
S'0X\x85L\xd6n\x14@'
p3645
tp3646
Rp3647
sg1090
F10.984
sg1098
g3603
sg1106
F-1.0
sg1114
F0.008
sg1122
F1.0
sg1130
S'0020'
p3648
sg1139
F-1.0
sg1147
F-1.0
sg1155
F18.4359535
sg1163
F13.0
sg1171
F-1.0
sg1179
g3
(g121
S'\xe06\xda`\x99\x02\xda?'
p3649
tp3650
Rp3651
sg1187
F-1.0
sg1195
F150.0
ssS'BHMCatS0022P'
p3652
(dp3653
g12
F-1.0
sg20
S'V568 Lyr  B'
p3654
sg29
F-1.0
sg37
F-1.0
sg45
I22
sg53
F4900.0
sg61
F0.008
sg69
F-1.0
sg77
F0.016
sg85
F0.768
sg93
F-1.0
sg101
F0.827
sg109
S'V568 Lyr'
p3655
sg118
F-1.0
sg134
F37.75963888888889
sg142
g1200
sg151
F0.01
sg159
F0.006
sg167
S'G type'
p3656
sg169
(lp3657
(dp3658
g179
S'BHMCatPP0023'
p3659
sg188
F0.0
sg196
F0.0
sg204
S'BHMCatS0022P'
p3660
sg213
F0.0
sg221
S'23'
p3661
sg230
g231
sg239
F1.000001
sg247
S'0023'
p3662
sg256
F0.0
sg264
F0.0
sg272
S'V568 Lyr'
p3663
sg281
F1.000001
sg289
F0.0
sg297
F1.0
sg305
F0.0
sg313
F0.0
sg321
F1.0
sg329
S'V568 Lyr h'
p3664
sg338
g339
sg347
F0.0
sasg355
S'K type'
p3665
sg363
S'EkCat'
p3666
sg372
F4.586
sg380
F-1.0
sg388
S'188'
p3667
sg390
(dp3668
S'BHMCatPP0023'
p3669
(dp3670
g401
F7.0
sg409
F0.0
sg417
F0.0
sg425
F0.0
sg433
F1.0
sg441
F0.0
sg449
F11.3
sg457
S"'early mars'"
p3671
sg466
F4.5
sg474
F1.5
sg482
F1.000001
sg490
F0.002
sg498
F1.0
sg506
F1.0
sg514
F0.0
sg522
S'Chaboyer'
p3672
sg531
F2.0
sg539
F0.95
sg547
F0.275556
sg555
F0.95
sg563
F1.000001
sg571
F5e+40
sg579
F4.7e+40
sg587
F1.5
sg595
F44.0
sg603
F0.0
sg611
F0.275556
sg619
F5.0
sg627
F1.0
sg635
S'Chaboyer'
p3673
sg644
F0.0
sg652
F0.3
sg660
S"'maximum greenhouse'"
p3674
sg669
F0.3
sg677
F1.0
sg685
S"'Saturn'"
p3675
sg694
F0.01
sg702
F10.0
sg710
F1.0
sg718
F2.0
sg726
F3.0
sg734
S'PARSEC'
p3676
sg743
S'PARSEC'
p3677
sg752
F5e+40
sg760
F4.7e+40
sg768
S'BHMCatPP0023'
p3678
sg777
F0.01
sg785
S'BHMCatS0022P'
p3679
sg794
S'V568 Lyr h'
p3680
sg803
F7.0
sg811
S'V568 Lyr'
p3681
sg820
S"'recent venus'"
p3682
sg829
S"'runaway greenhouse'"
p3683
sg838
F11.3
sg846
F0.0
sg854
F1.0
sg862
F5.0
sg870
F0.002
sg878
F0.3
sssg886
F4.178
sg894
F-1.0
sg902
S'2008A&A...492..171G;'
p3684
sg911
F1.074
sg919
F1.399
sg927
F-1.0
sg935
F5665.0
sg943
F89.76
sg951
F-1.0
sg959
F0.0
sg967
F0.008
sg975
F187.0
sg983
S'BHMCatPP0023;'
p3685
sg992
F100.0
sg1000
F0.770018621973929
sg1008
S'DEBCat'
p3686
sg1017
S'V568 Lyr  A'
p3687
sg1026
F19.348416666666665
sg1034
F-1.0
sg1042
F-1.0
sg1050
F3972.0
sg1058
F-1.0
sg1066
F-1.0
sg1074
F0.14406273328877
sg1082
F-1.0
sg1090
F16.91
sg1098
g3652
sg1106
F-1.0
sg1114
F0.004
sg1122
F-1.0
sg1130
S'0022'
p3688
sg1139
F-1.0
sg1147
F-1.0
sg1155
F14.469918
sg1163
F-1.0
sg1171
F-1.0
sg1179
F-1.0
sg1187
F-1.0
sg1195
F100.0
ssS'BHMCatS0032P'
p3689
(dp3690
g12
F-1.0
sg20
S'CD-80 28 B'
p3691
sg29
F-1.0
sg37
F-1.0
sg45
I32
sg53
F-1.0
sg61
F0.1
sg69
F-1.0
sg77
F0.33
sg85
F4.06
sg93
F-1.0
sg101
F1.384
sg109
S'CD-80 28'
p3692
sg118
F-1.0
sg134
F-79.93870555555556
sg142
g1200
sg151
F0.104
sg159
F0.41
sg167
S'K2'
p3693
sg169
(lp3694
(dp3695
g179
S'BHMCatPP0033'
p3696
sg188
F0.0
sg196
F0.0
sg204
S'BHMCatS0032P'
p3697
sg213
F0.0
sg221
S'33'
p3698
sg230
g231
sg239
F1.000001
sg247
S'0033'
p3699
sg256
F0.0
sg264
F0.0
sg272
S'CD-80 28'
p3700
sg281
F1.000001
sg289
F0.0
sg297
F1.0
sg305
F0.0
sg313
F0.0
sg321
F1.0
sg329
S'CD-80 28h'
p3701
sg338
g339
sg347
F0.0
sasg355
g168
sg363
S'EkCat'
p3702
sg372
F3.36193240197991
sg380
F-1.0
sg388
g2140
sg390
(dp3703
S'BHMCatPP0033'
p3704
(dp3705
g401
F7.0
sg409
F0.0
sg417
F0.0
sg425
F0.0
sg433
F1.0
sg441
F0.0
sg449
F11.3
sg457
S"'early mars'"
p3706
sg466
F4.5
sg474
F1.5
sg482
F1.000001
sg490
F0.002
sg498
F1.0
sg506
F1.0
sg514
F0.0
sg522
S'Chaboyer'
p3707
sg531
F2.0
sg539
F0.95
sg547
F0.275556
sg555
F0.95
sg563
F1.000001
sg571
F5e+40
sg579
F4.7e+40
sg587
F1.5
sg595
F44.0
sg603
F0.0
sg611
F0.275556
sg619
F5.0
sg627
F1.0
sg635
S'Chaboyer'
p3708
sg644
F0.0
sg652
F0.3
sg660
S"'maximum greenhouse'"
p3709
sg669
F0.3
sg677
F1.0
sg685
S"'Saturn'"
p3710
sg694
F0.01
sg702
F10.0
sg710
F1.0
sg718
F2.0
sg726
F3.0
sg734
S'PARSEC'
p3711
sg743
S'PARSEC'
p3712
sg752
F5e+40
sg760
F4.7e+40
sg768
S'BHMCatPP0033'
p3713
sg777
F0.01
sg785
S'BHMCatS0032P'
p3714
sg794
S'CD-80 28h'
p3715
sg803
F7.0
sg811
S'CD-80 28'
p3716
sg820
S"'recent venus'"
p3717
sg829
S"'runaway greenhouse'"
p3718
sg838
F11.3
sg846
F0.0
sg854
F1.0
sg862
F5.0
sg870
F0.002
sg878
F0.3
sssg886
F3.57835330017799
sg894
F-1.0
sg902
S'2008AN....329..835B;'
p3719
sg911
F1.38
sg919
F3.16
sg927
F-1.0
sg935
F-1.0
sg943
F80.4
sg951
F-1.0
sg959
F0.0
sg967
F0.055
sg975
F7.0
sg983
S'BHMCatPP0033;'
p3720
sg992
F-1.0
sg1000
F1.00289855072464
sg1008
g1009
sg1017
S'CD-80 28 A'
p3721
sg1026
F1.0939444444444444
sg1034
F-1.0
sg1042
F-1.0
sg1050
F71.0
sg1058
F-1.0
sg1066
F-1.0
sg1074
F0.108919804812834
sg1082
F-1.0
sg1090
F10.177
sg1098
g3689
sg1106
F-1.0
sg1114
F0.055
sg1122
F-1.0
sg1130
S'0032'
p3722
sg1139
F-1.0
sg1147
F-1.0
sg1155
F8.069406
sg1163
F-1.0
sg1171
F-1.0
sg1179
F-1.0
sg1187
F-1.0
sg1195
F-1.0
ssS'BHMCatS0004D'
p3723
(dp3724
g12
F-0.11
sg20
S'Kepler-38 B'
p3725
sg29
F0.096
sg37
F-1.0
sg45
I4
sg53
F3325.0
sg61
F-1.0
sg69
F-1.0
sg77
F0.003
sg85
F0.272
sg93
F13.0
sg101
F0.249
sg109
S'Kepler-38'
p3726
sg118
g3
(g121
S'\xf0\xd5|I\xa8\xd3\x88?'
p3727
tp3728
Rp3729
sg134
F42.279205555555556
sg142
g1287
sg151
F0.011
sg159
F0.005
sg167
S'G type'
p3730
sg169
(lp3731
(dp3732
g179
S'BHMCatPD0004'
p3733
sg188
F0.0
sg196
F0.032
sg204
S'BHMCatS004D'
p3734
sg213
F-1.0
sg221
g389
sg230
S'2012Sci...337.1511O'
p3735
sg239
F4.3763741955736934
sg247
S'0004'
p3736
sg256
F105.595
sg264
F0.0082
sg272
S'Kepler-38'
p3737
sg281
F120.82984494826027
sg289
F-1.0
sg297
F0.4644
sg305
F0.038
sg313
F0.0
sg321
F1.198
sg329
S'Kepler-38b'
p3738
sg338
g1297
sg347
F0.11221472296342803
sasg355
S'M type'
p3739
sg363
S'KIC'
p3740
sg372
F4.964
sg380
F-1.0
sg388
S'6762829'
p3741
sg390
(dp3742
S'BHMCatPD0004'
p3743
(dp3744
g401
F7.0
sg409
F0.0
sg417
F0.0
sg425
F0.0
sg433
F10.0
sg441
F-0.11
sg449
F11.3
sg457
S"'early mars'"
p3745
sg466
F4.5
sg474
F1.5
sg482
F4.37637419557369
sg490
F0.002
sg498
F1.0
sg506
F1.0
sg514
F-0.11
sg522
S'Chaboyer'
p3746
sg531
F2.0
sg539
F0.95
sg547
F0.275556
sg555
F0.95
sg563
F120.82984494826
sg571
F5e+40
sg579
F4.7e+40
sg587
F1.5
sg595
F44.0
sg603
F0.0
sg611
F0.275556
sg619
F5.0
sg627
F1.0
sg635
S'Chaboyer'
p3747
sg644
F0.0
sg652
F0.8
sg660
S"'maximum greenhouse'"
p3748
sg669
F0.3
sg677
F1.0
sg685
S"'Saturn'"
p3749
sg694
F0.01
sg702
F10.0
sg710
F10.0
sg718
F2.0
sg726
F3.0
sg734
S'PARSEC'
p3750
sg743
S'PARSEC'
p3751
sg752
F1e+40
sg760
F4.7e+40
sg768
S'BHMCatPD0004'
p3752
sg777
F0.01
sg785
S'BHMCatS0004D'
p3753
sg794
S'Kepler-38b'
p3754
sg803
F7.0
sg811
S'Kepler-38'
p3755
sg820
S"'recent venus'"
p3756
sg829
S"'runaway greenhouse'"
p3757
sg838
F11.3
sg846
F0.0
sg854
F10.0
sg862
F5.0
sg870
F0.002
sg878
F0.3
sssg886
F4.47
sg894
g3
(g121
S'\xc3W\x8b\x85C\x83B@'
p3758
tp3759
Rp3760
sg902
S'2012ApJ...758...87O;'
p3761
sg911
F0.949
sg919
F1.757
sg927
F-1.0
sg935
F5623.0
sg943
F89.412
sg951
F-1.0
sg959
F0.1032
sg967
F0.055
sg975
F-1.0
sg983
S'BHMCatPD0004;'
p3762
sg992
F-1.0
sg1000
F0.262381454162276
sg1008
g1009
sg1017
S'Kepler-38 A'
p3763
sg1026
F19.122025
sg1034
F-1.0
sg1042
F-1.0
sg1050
F-1.0
sg1058
F268.68
sg1066
F-1.0
sg1074
F0.1469
sg1082
F-1.0
sg1090
F13.941
sg1098
g3723
sg1106
F-1.0
sg1114
F0.007
sg1122
F0.5
sg1130
S'0004'
p3764
sg1139
F-0.158
sg1147
F7.0
sg1155
F18.795
sg1163
F2.4
sg1171
g3
(g121
S'\x95\x00#\x0cUZ\x86?'
p3765
tp3766
Rp3767
sg1179
g3
(g121
S'\x9b\xe7\x92\xde\xc5\xda\x1e@'
p3768
tp3769
Rp3770
sg1187
g3
(g121
S'\x84pS\xf9Vl\x90@'
p3771
tp3772
Rp3773
sg1195
F50.0
ssS'BHMCatS0010P'
p3774
(dp3775
g12
F-1.0
sg20
S'V54 M55 B'
p3776
sg29
F0.56
sg37
F-1.0
sg45
I10
sg53
F5023.0
sg61
F-1.0
sg69
F-1.0
sg77
F0.009
sg85
F0.528
sg93
F-1.0
sg101
F0.555
sg109
S'V54 M55'
p3777
sg118
F-1.0
sg134
F-1.0
sg142
g1200
sg151
F-1.0
sg159
F0.005
sg167
S'F type'
p3778
sg169
(lp3779
(dp3780
g179
S'BHMCatPP0011'
p3781
sg188
F0.0
sg196
F0.0
sg204
S'BHMCatS0010P'
p3782
sg213
F0.0
sg221
S'11'
p3783
sg230
g231
sg239
F1.000001
sg247
S'0011'
p3784
sg256
F0.0
sg264
F0.0
sg272
S'V54 M55'
p3785
sg281
F1.000001
sg289
F0.0
sg297
F1.0
sg305
F0.0
sg313
F0.0
sg321
F1.0
sg329
S'V54 M55h'
p3786
sg338
g339
sg347
F0.0
sasg355
S'K type'
p3787
sg363
S'DEBCat'
p3788
sg372
F-1.0
sg380
F-1.0
sg388
S'29'
p3789
sg390
(dp3790
S'BHMCatPP0011'
p3791
(dp3792
g401
F7.0
sg409
F0.0
sg417
F0.0
sg425
F0.0
sg433
F1.0
sg441
F0.0
sg449
F11.3
sg457
S"'early mars'"
p3793
sg466
F4.5
sg474
F1.5
sg482
F1.000001
sg490
F0.002
sg498
F1.0
sg506
F1.0
sg514
F0.0
sg522
S'Chaboyer'
p3794
sg531
F2.0
sg539
F0.95
sg547
F0.275556
sg555
F0.95
sg563
F1.000001
sg571
F5e+40
sg579
F4.7e+40
sg587
F1.5
sg595
F44.0
sg603
F0.0
sg611
F0.275556
sg619
F5.0
sg627
F1.0
sg635
S'Chaboyer'
p3795
sg644
F0.0
sg652
F0.3
sg660
S"'maximum greenhouse'"
p3796
sg669
F0.3
sg677
F1.0
sg685
S"'Saturn'"
p3797
sg694
F0.01
sg702
F10.0
sg710
F1.0
sg718
F2.0
sg726
F3.0
sg734
S'PARSEC'
p3798
sg743
S'PARSEC'
p3799
sg752
F5e+40
sg760
F4.7e+40
sg768
S'BHMCatPP0011'
p3800
sg777
F0.01
sg785
S'BHMCatS0010P'
p3801
sg794
S'V54 M55h'
p3802
sg803
F7.0
sg811
S'V54 M55'
p3803
sg820
S"'recent venus'"
p3804
sg829
S"'runaway greenhouse'"
p3805
sg838
F11.3
sg846
F0.0
sg854
F1.0
sg862
F5.0
sg870
F0.002
sg878
F0.3
sssg886
F-1.0
sg894
F-1.0
sg902
S'2014AcA....64...11K;'
p3806
sg911
F0.726
sg919
F1.006
sg927
F-1.0
sg935
F6251.0
sg943
F-1.0
sg951
F-1.0
sg959
F0.133
sg967
F0.015
sg975
F-1.0
sg983
S'BHMCatPP0011;'
p3807
sg992
F-1.0
sg1000
F0.764462809917356
sg1008
g1009
sg1017
S'V54 M55 A'
p3808
sg1026
F-1.0
sg1034
F-1.0
sg1042
F-1.0
sg1050
F-1.0
sg1058
F-1.0
sg1066
F-1.0
sg1074
F0.0938
sg1082
F-1.0
sg1090
F18.3
sg1098
g3774
sg1106
F-1.0
sg1114
F0.008
sg1122
F-1.0
sg1130
S'0010'
p3809
sg1139
F-1.0
sg1147
F-1.0
sg1155
F9.269
sg1163
F-1.0
sg1171
F-1.0
sg1179
F-1.0
sg1187
g3
(g121
S'\x83\xc9\x05\x13\xd2\xd2\xb7@'
p3810
tp3811
Rp3812
sg1195
F-1.0
ssS'BHMCatS0023P'
p3813
(dp3814
g12
F-1.0
sg20
S'TYC 176-2950-1 B'
p3815
sg29
F-1.0
sg37
F-1.0
sg45
I23
sg53
F-1.0
sg61
F0.015
sg69
F-1.0
sg77
F0.03
sg85
F1.18
sg93
F-1.0
sg101
F1.041
sg109
S'TYC 176-2950-1'
p3816
sg118
F-1.0
sg134
F5.814813888888889
sg142
g1200
sg151
F0.016
sg159
F0.02
sg167
S'G6'
p3817
sg169
(lp3818
(dp3819
g179
S'BHMCatPP0024'
p3820
sg188
F0.0
sg196
F0.0
sg204
S'BHMCatS0023P'
p3821
sg213
F0.0
sg221
S'24'
p3822
sg230
g231
sg239
F1.000001
sg247
S'0024'
p3823
sg256
F0.0
sg264
F0.0
sg272
S'TYC 176-2950-1'
p3824
sg281
F1.000001
sg289
F0.0
sg297
F1.0
sg305
F0.0
sg313
F0.0
sg321
F1.0
sg329
S'TYC 176-2950-1h'
p3825
sg338
g339
sg347
F0.0
sasg355
g168
sg363
S'EkCat'
p3826
sg372
F4.31153509391184
sg380
F-1.0
sg388
S'74'
p3827
sg390
(dp3828
S'BHMCatPP0024'
p3829
(dp3830
g401
F7.0
sg409
F0.0
sg417
F0.0
sg425
F0.0
sg433
F1.0
sg441
F0.0
sg449
F11.3
sg457
S"'early mars'"
p3831
sg466
F4.5
sg474
F1.5
sg482
F1.000001
sg490
F0.002
sg498
F1.0
sg506
F1.0
sg514
F0.0
sg522
S'Chaboyer'
p3832
sg531
F2.0
sg539
F0.95
sg547
F0.275556
sg555
F0.95
sg563
F1.000001
sg571
F5e+40
sg579
F4.7e+40
sg587
F1.5
sg595
F44.0
sg603
F0.0
sg611
F0.275556
sg619
F5.0
sg627
F1.0
sg635
S'Chaboyer'
p3833
sg644
F0.0
sg652
F0.3
sg660
S"'maximum greenhouse'"
p3834
sg669
F0.3
sg677
F1.0
sg685
S"'Saturn'"
p3835
sg694
F0.01
sg702
F10.0
sg710
F1.0
sg718
F2.0
sg726
F3.0
sg734
S'PARSEC'
p3836
sg743
S'PARSEC'
p3837
sg752
F5e+40
sg760
F4.7e+40
sg768
S'BHMCatPP0024'
p3838
sg777
F0.01
sg785
S'BHMCatS0023P'
p3839
sg794
S'TYC 176-2950-1h'
p3840
sg803
F7.0
sg811
S'TYC 176-2950-1'
p3841
sg820
S"'recent venus'"
p3842
sg829
S"'runaway greenhouse'"
p3843
sg838
F11.3
sg846
F0.0
sg854
F1.0
sg862
F5.0
sg870
F0.002
sg878
F0.3
sssg886
F4.02613295021946
sg894
F-1.0
sg902
S'2008AN....329..835B;'
p3844
sg911
F1.055
sg919
F1.65
sg927
F-1.0
sg935
F-1.0
sg943
F88.2
sg951
F-1.0
sg959
F0.21
sg967
F0.008
sg975
F17.0
sg983
S'BHMCatPP0024;'
p3845
sg992
F-1.0
sg1000
F0.986729857819905
sg1008
g1009
sg1017
S'TYC 176-2950-1 A'
p3846
sg1026
F7.273766666666667
sg1034
F-1.0
sg1042
F-1.0
sg1050
F177.0
sg1058
F-1.0
sg1066
F-1.0
sg1074
F0.128004044117647
sg1082
F-1.0
sg1090
F10.215
sg1098
g3813
sg1106
F-1.0
sg1114
F0.008
sg1122
F-1.0
sg1130
S'0023'
p3847
sg1139
F-1.0
sg1147
F-1.0
sg1155
F11.55478
sg1163
F-1.0
sg1171
F-1.0
sg1179
F-1.0
sg1187
F-1.0
sg1195
F-1.0
ssS'BHMCatS1002V'
p3848
(dp3849
g12
F0.0
sg20
S'NICHE-002 B'
p3850
sg29
F-2.0
sg37
F-2.0
sg45
I1002
sg53
F-2.0
sg61
F-2.0
sg69
F-2.0
sg77
F0.0
sg85
F-2.0
sg93
F-2.0
sg101
F0.85
sg109
S'NICHE-002'
p3851
sg118
g3
(g121
S'0\xa8\x1bgj\x94\x8f?'
p3852
tp3853
Rp3854
sg134
F-2.0
sg142
g143
sg151
F-2.0
sg159
F0.0
sg167
g168
sg169
(lp3855
(dp3856
g179
S'BHMCatPV1002'
p3857
sg188
F0.0
sg196
F0.0
sg204
S'BHMCatS1002V'
p3858
sg213
F0.0
sg221
S'1002'
p3859
sg230
g231
sg239
F1.000001
sg247
S'1002'
p3860
sg256
F0.0
sg264
F0.0
sg272
S'NICHE-002'
p3861
sg281
F1.000001
sg289
F0.0
sg297
F1.0
sg305
F0.0
sg313
F0.0
sg321
F1.0
sg329
S'NICHE-002h'
p3862
sg338
g339
sg347
F0.0
sasg355
g168
sg363
S'NICHE'
p3863
sg372
F-2.0
sg380
F-2.0
sg388
S'2'
p3864
sg390
(dp3865
S'BHMCatPV1002'
p3866
(dp3867
g401
F7.0
sg409
F0.0
sg417
F0.0
sg425
F0.0
sg433
F1.0
sg441
F0.0
sg449
F11.3
sg457
S"'early mars'"
p3868
sg466
F4.5
sg474
F1.5
sg482
F1.000001
sg490
F0.002
sg498
F1.0
sg506
F1.0
sg514
F0.0
sg522
S'Chaboyer'
p3869
sg531
F2.0
sg539
F0.95
sg547
F0.275556
sg555
F0.95
sg563
F1.000001
sg571
F5e+40
sg579
F4.7e+40
sg587
F1.5
sg595
F44.0
sg603
F0.0
sg611
F0.275556
sg619
F5.0
sg627
F1.0
sg635
S'Chaboyer'
p3870
sg644
F0.0
sg652
F0.3
sg660
S"'maximum greenhouse'"
p3871
sg669
F0.3
sg677
F1.0
sg685
S"'Earth'"
p3872
sg694
F0.01
sg702
F10.0
sg710
F1.0
sg718
F2.0
sg726
F3.0
sg734
S'PARSEC'
p3873
sg743
S'PARSEC'
p3874
sg752
F5e+40
sg760
F4.7e+40
sg768
S'BHMCatPV1002'
p3875
sg777
F0.01
sg785
S'BHMCatS1002V'
p3876
sg794
S'NICHE-002h'
p3877
sg803
F7.0
sg811
S'NICHE-002'
p3878
sg820
S"'recent venus'"
p3879
sg829
S"'runaway greenhouse'"
p3880
sg838
F11.3
sg846
F0.0
sg854
F1.0
sg862
F5.0
sg870
F0.002
sg878
F0.3
sssg886
F-2.0
sg894
F-1.0
sg902
S'2014arXiv1408.5163M;'
p3881
sg911
F1.0
sg919
F-2.0
sg927
F-2.0
sg935
F-2.0
sg943
F-2.0
sg951
F-2.0
sg959
F0.5
sg967
F0.0
sg975
F-1.0
sg983
S'BHMCatPV1002;'
p3882
sg992
F-2.0
sg1000
F0.85
sg1008
g1009
sg1017
S'NICHE-002 A'
p3883
sg1026
F-2.0
sg1034
F-1.0
sg1042
F-2.0
sg1050
F-1.0
sg1058
F-1.0
sg1066
F-1.0
sg1074
F0.177017861626706
sg1082
F-1.0
sg1090
F-2.0
sg1098
g3848
sg1106
F-2.0
sg1114
F0.0
sg1122
F-2.0
sg1130
S'1002'
p3884
sg1139
F-1.0
sg1147
F-2.0
sg1155
F20.0
sg1163
F-2.0
sg1171
F-1.0
sg1179
F-1.0
sg1187
F-1.0
sg1195
F-2.0
ssS'BHMCatS0006D'
p3885
(dp3886
g12
F-0.15
sg20
S'Kepler-64 B'
p3887
sg29
F0.107
sg37
F-1.0
sg45
I6
sg53
F3561.0
sg61
F-1.0
sg69
F-1.0
sg77
F0.044
sg85
F0.408
sg93
F2.0
sg101
F0.378
sg109
S'Kepler-64'
p3888
sg118
g3
(g121
S'\x1f\xe4\x96\xebQ\xbf\x86?'
p3889
tp3890
Rp3891
sg134
F39.9551
sg142
g1287
sg151
F-1.0
sg159
F0.024
sg167
S'F type'
p3892
sg169
(lp3893
(dp3894
g179
S'BHMCatPD0007'
p3895
sg188
F82.67305180670441
sg196
F0.0539
sg204
S'BHMCatS006D'
p3896
sg213
F0.0081
sg221
g2140
sg230
S'2013ApJ...768..127S;2013ApJ...770...52K'
p3897
sg239
F6.20547417987757
sg247
S'0007'
p3898
sg256
F138.506
sg264
F0.011
sg272
S'Kepler-64'
p3899
sg281
F168.52583637520513
sg289
F-1.0
sg297
F0.634
sg305
F0.1
sg313
F0.0
sg321
F1.906
sg329
S'Kepler-64b'
p3900
sg338
g1297
sg347
F0.16832208444514205
sasg355
S'M type'
p3901
sg363
S'KIC'
p3902
sg372
F-1.0
sg380
F-1.0
sg388
S'4862625'
p3903
sg390
(dp3904
S'BHMCatPD0007'
p3905
(dp3906
g401
F7.0
sg409
F0.0
sg417
F0.0
sg425
F0.0
sg433
F1.5
sg441
F-0.15
sg449
F11.3
sg457
S"'early mars'"
p3907
sg466
F4.5
sg474
F1.5
sg482
F6.20547417987757
sg490
F0.002
sg498
F1.0
sg506
F1.0
sg514
F-0.15
sg522
S'Chaboyer'
p3908
sg531
F2.0
sg539
F0.95
sg547
F0.275556
sg555
F0.95
sg563
F168.525836375205
sg571
F5e+40
sg579
F4.7e+40
sg587
F1.5
sg595
F44.0
sg603
F0.0
sg611
F0.275556
sg619
F5.0
sg627
F1.0
sg635
S'Chaboyer'
p3909
sg644
F0.0
sg652
F0.8
sg660
S"'maximum greenhouse'"
p3910
sg669
F0.3
sg677
F1.0
sg685
S"'Saturn'"
p3911
sg694
F0.01
sg702
F10.0
sg710
F1.5
sg718
F2.0
sg726
F3.0
sg734
S'PARSEC'
p3912
sg743
S'PARSEC'
p3913
sg752
F1e+40
sg760
F4.7e+40
sg768
S'BHMCatPD0007'
p3914
sg777
F0.01
sg785
S'BHMCatS0006D'
p3915
sg794
S'Kepler-64b'
p3916
sg803
F7.0
sg811
S'Kepler-64'
p3917
sg820
S"'recent venus'"
p3918
sg829
S"'runaway greenhouse'"
p3919
sg838
F11.3
sg846
F0.0
sg854
F1.5
sg862
F5.0
sg870
F0.002
sg878
F0.3
sssg886
F4.658
sg894
g3
(g121
S'\x94\x0b\xed\xa8\xcf\x7f\x05@'
p3920
tp3921
Rp3922
sg902
S'2013ApJ...768..127S; 2013ApJ...770...52K;'
p3923
sg911
F1.528
sg919
F1.734
sg927
F-1.0
sg935
F6407.0
sg943
F87.36
sg951
F-1.0
sg959
F0.2117
sg967
F0.087
sg975
F-1.0
sg983
S'BHMCatPD0007;'
p3924
sg992
F150.0
sg1000
F0.24738219895288
sg1008
g1009
sg1017
S'Kepler-64 A'
p3925
sg1026
F19.881006666666668
sg1034
F-1.0
sg1042
F-1.0
sg1050
F-1.0
sg1058
F218.56
sg1066
F-1.0
sg1074
F0.1744
sg1082
F-1.0
sg1090
F13.718
sg1098
g3885
sg1106
F-1.0
sg1114
F0.023
sg1122
F2.0
sg1130
S'0006'
p3926
sg1139
F-0.217
sg1147
F1.0
sg1155
F20.0
sg1163
F32.6
sg1171
g3
(g121
S'h3|\x07\xbb\xa5\x83?'
p3927
tp3928
Rp3929
sg1179
g3
(g121
S'n\x92\xae\x97\x83\x1a\xc5?'
p3930
tp3931
Rp3932
sg1187
g3
(g121
S'\xca\x19\xa8%\xd0\xfe\x93@'
p3933
tp3934
Rp3935
sg1195
F150.0
ssS'BHMCatS1006V'
p3936
(dp3937
g12
F0.0
sg20
S'NICHE-006 B'
p3938
sg29
F-2.0
sg37
F-2.0
sg45
I1006
sg53
F-2.0
sg61
F-2.0
sg69
F-2.0
sg77
F0.0
sg85
F-2.0
sg93
F-2.0
sg101
F0.55
sg109
S'NICHE-006'
p3939
sg118
g3
(g121
S'0\xa8\x1bgj\x94\x8f?'
p3940
tp3941
Rp3942
sg134
F-2.0
sg142
g143
sg151
F-2.0
sg159
F0.0
sg167
g168
sg169
(lp3943
(dp3944
g179
S'BHMCatPV1006'
p3945
sg188
F0.0
sg196
F0.0
sg204
S'BHMCatS1006V'
p3946
sg213
F0.0
sg221
S'1006'
p3947
sg230
g231
sg239
F1.000001
sg247
S'1006'
p3948
sg256
F0.0
sg264
F0.0
sg272
S'NICHE-006'
p3949
sg281
F1.000001
sg289
F0.0
sg297
F1.0
sg305
F0.0
sg313
F0.0
sg321
F1.0
sg329
S'NICHE-006h'
p3950
sg338
g339
sg347
F0.0
sasg355
g168
sg363
S'NICHE'
p3951
sg372
F-2.0
sg380
F-2.0
sg388
g1964
sg390
(dp3952
S'BHMCatPV1006'
p3953
(dp3954
g401
F7.0
sg409
F0.0
sg417
F0.0
sg425
F0.0
sg433
F1.0
sg441
F0.0
sg449
F11.3
sg457
S"'early mars'"
p3955
sg466
F4.5
sg474
F1.5
sg482
F1.000001
sg490
F0.002
sg498
F1.0
sg506
F1.0
sg514
F0.0
sg522
S'Chaboyer'
p3956
sg531
F2.0
sg539
F0.95
sg547
F0.275556
sg555
F0.95
sg563
F1.000001
sg571
F5e+40
sg579
F4.7e+40
sg587
F1.5
sg595
F44.0
sg603
F0.0
sg611
F0.275556
sg619
F5.0
sg627
F1.0
sg635
S'Chaboyer'
p3957
sg644
F0.0
sg652
F0.3
sg660
S"'maximum greenhouse'"
p3958
sg669
F0.3
sg677
F1.0
sg685
S"'Earth'"
p3959
sg694
F0.01
sg702
F10.0
sg710
F1.0
sg718
F2.0
sg726
F3.0
sg734
S'PARSEC'
p3960
sg743
S'PARSEC'
p3961
sg752
F5e+40
sg760
F4.7e+40
sg768
S'BHMCatPV1006'
p3962
sg777
F0.01
sg785
S'BHMCatS1006V'
p3963
sg794
S'NICHE-006h'
p3964
sg803
F7.0
sg811
S'NICHE-006'
p3965
sg820
S"'recent venus'"
p3966
sg829
S"'runaway greenhouse'"
p3967
sg838
F11.3
sg846
F0.0
sg854
F1.0
sg862
F5.0
sg870
F0.002
sg878
F0.3
sssg886
F-2.0
sg894
F-1.0
sg902
S'2014arXiv1408.5163M;'
p3968
sg911
F1.0
sg919
F-2.0
sg927
F-2.0
sg935
F-2.0
sg943
F-2.0
sg951
F-2.0
sg959
F0.1
sg967
F0.0
sg975
F-1.0
sg983
S'BHMCatPV1006;'
p3969
sg992
F-2.0
sg1000
F0.55
sg1008
g1009
sg1017
S'NICHE-006 A'
p3970
sg1026
F-2.0
sg1034
F-1.0
sg1042
F-2.0
sg1050
F-1.0
sg1058
F-1.0
sg1066
F-1.0
sg1074
F0.118714722140125
sg1082
F-1.0
sg1090
F-2.0
sg1098
g3936
sg1106
F-2.0
sg1114
F0.0
sg1122
F-2.0
sg1130
S'1006'
p3971
sg1139
F-1.0
sg1147
F-2.0
sg1155
F12.0
sg1163
F-2.0
sg1171
F-1.0
sg1179
F-1.0
sg1187
F-1.0
sg1195
F-2.0
ssS'BHMCatS0012P'
p3972
(dp3973
g12
F-1.0
sg20
S'EW Ori B'
p3974
sg29
F0.57
sg37
F-1.0
sg45
I12
sg53
F5902.0
sg61
F-1.0
sg69
F-1.0
sg77
F0.005
sg85
F1.097
sg93
F-1.0
sg101
F1.123
sg109
S'EW Ori'
p3975
sg118
F-1.0
sg134
F2.044436111111111
sg142
g1200
sg151
F-1.0
sg159
F0.005
sg167
S'G0V'
p3976
sg169
(lp3977
(dp3978
g179
S'BHMCatPP0013'
p3979
sg188
F0.0
sg196
F0.0
sg204
S'BHMCatS0012P'
p3980
sg213
F0.0
sg221
S'13'
p3981
sg230
g231
sg239
F1.000001
sg247
S'0013'
p3982
sg256
F0.0
sg264
F0.0
sg272
S'EW Ori'
p3983
sg281
F1.000001
sg289
F0.0
sg297
F1.0
sg305
F0.0
sg313
F0.0
sg321
F1.0
sg329
S'EW Orih'
p3984
sg338
g339
sg347
F0.0
sasg355
S'G2V'
p3985
sg363
S'DEBCat'
p3986
sg372
F-1.0
sg380
F-1.0
sg388
S'27'
p3987
sg390
(dp3988
S'BHMCatPP0013'
p3989
(dp3990
g401
F7.0
sg409
F0.0
sg417
F0.0
sg425
F0.0
sg433
F1.0
sg441
F0.0
sg449
F11.3
sg457
S"'early mars'"
p3991
sg466
F4.5
sg474
F1.5
sg482
F1.000001
sg490
F0.002
sg498
F1.0
sg506
F1.0
sg514
F0.0
sg522
S'Chaboyer'
p3992
sg531
F2.0
sg539
F0.95
sg547
F0.275556
sg555
F0.95
sg563
F1.000001
sg571
F5e+40
sg579
F4.7e+40
sg587
F1.5
sg595
F44.0
sg603
F0.0
sg611
F0.275556
sg619
F5.0
sg627
F1.0
sg635
S'Chaboyer'
p3993
sg644
F0.0
sg652
F0.3
sg660
S"'maximum greenhouse'"
p3994
sg669
F0.3
sg677
F1.0
sg685
S"'Saturn'"
p3995
sg694
F0.01
sg702
F10.0
sg710
F1.0
sg718
F2.0
sg726
F3.0
sg734
S'PARSEC'
p3996
sg743
S'PARSEC'
p3997
sg752
F5e+40
sg760
F4.7e+40
sg768
S'BHMCatPP0013'
p3998
sg777
F0.01
sg785
S'BHMCatS0012P'
p3999
sg794
S'EW Orih'
p4000
sg803
F7.0
sg811
S'EW Ori'
p4001
sg820
S"'recent venus'"
p4002
sg829
S"'runaway greenhouse'"
p4003
sg838
F11.3
sg846
F0.0
sg854
F1.0
sg862
F5.0
sg870
F0.002
sg878
F0.3
sssg886
F-1.0
sg894
F-1.0
sg902
S'2010A%26A...511A..22C;'
p4004
sg911
F1.173
sg919
F1.168
sg927
F-1.0
sg935
F6067.0
sg943
F-1.0
sg951
F-1.0
sg959
F0.0758
sg967
F0.011
sg975
F-1.0
sg983
S'BHMCatPP0013;'
p4005
sg992
F-1.0
sg1000
F0.957374254049446
sg1008
g1009
sg1017
S'EW Ori A'
p4006
sg1026
F5.335875
sg1034
F-1.0
sg1042
F-1.0
sg1050
F-1.0
sg1058
F-1.0
sg1066
F-1.0
sg1074
F0.0946
sg1082
F-1.0
sg1090
F9.09
sg1098
g3972
sg1106
F-1.0
sg1114
F0.009
sg1122
F-1.0
sg1130
S'0012'
p4007
sg1139
F-1.0
sg1147
F-1.0
sg1155
F6.937
sg1163
F-1.0
sg1171
F-1.0
sg1179
F-1.0
sg1187
g3
(g121
S'\xcaW.o\xfe\x1b^@'
p4008
tp4009
Rp4010
sg1195
F-1.0
ssS'BHMCatS0014P'
p4011
(dp4012
g12
F-1.0
sg20
S'M4-V69 B'
p4013
sg29
F0.902
sg37
F-1.0
sg45
I14
sg53
F5915.0
sg61
F0.119
sg69
F-1.0
sg77
F0.01
sg85
F0.807
sg93
F11.23
sg101
F0.728
sg109
S'M4-V69'
p4014
sg118
F-1.0
sg134
F-25.378333333333334
sg142
g1200
sg151
F0.132
sg159
F0.008
sg167
S'F type'
p4015
sg169
(lp4016
(dp4017
g179
S'BHMCatPP0015'
p4018
sg188
F0.0
sg196
F0.0
sg204
S'BHMCatS0014P'
p4019
sg213
F0.0
sg221
S'15'
p4020
sg230
g231
sg239
F1.000001
sg247
S'0015'
p4021
sg256
F0.0
sg264
F0.0
sg272
S'M4-V69'
p4022
sg281
F1.000001
sg289
F0.0
sg297
F1.0
sg305
F0.0
sg313
F0.0
sg321
F1.0
sg329
S'M4-V69h'
p4023
sg338
g339
sg347
F0.0
sasg355
S'G type'
p4024
sg363
S'EkCat'
p4025
sg372
F4.483
sg380
F-1.0
sg388
S'141'
p4026
sg390
(dp4027
S'BHMCatPP0015'
p4028
(dp4029
g401
F7.0
sg409
F0.0
sg417
F0.0
sg425
F0.0
sg433
F10.9
sg441
F0.0
sg449
F11.3
sg457
S"'early mars'"
p4030
sg466
F4.5
sg474
F1.5
sg482
F1.000001
sg490
F0.002
sg498
F1.0
sg506
F1.0
sg514
F0.0
sg522
S'Chaboyer'
p4031
sg531
F2.0
sg539
F0.95
sg547
F0.275556
sg555
F0.95
sg563
F1.000001
sg571
F5e+40
sg579
F4.7e+40
sg587
F1.5
sg595
F44.0
sg603
F0.0
sg611
F0.275556
sg619
F5.0
sg627
F1.0
sg635
S'Chaboyer'
p4032
sg644
F0.0
sg652
F0.3
sg660
S"'maximum greenhouse'"
p4033
sg669
F0.3
sg677
F1.0
sg685
S"'Saturn'"
p4034
sg694
F0.01
sg702
F10.0
sg710
F10.9
sg718
F2.0
sg726
F3.0
sg734
S'PARSEC'
p4035
sg743
S'PARSEC'
p4036
sg752
F5e+40
sg760
F4.7e+40
sg768
S'BHMCatPP0015'
p4037
sg777
F0.01
sg785
S'BHMCatS0014P'
p4038
sg794
S'M4-V69h'
p4039
sg803
F7.0
sg811
S'M4-V69'
p4040
sg820
S"'recent venus'"
p4041
sg829
S"'runaway greenhouse'"
p4042
sg838
F11.3
sg846
F0.0
sg854
F10.9
sg862
F5.0
sg870
F0.002
sg878
F0.3
sssg886
F4.444
sg894
F-1.0
sg902
S'2013AJ....145...43K;'
p4043
sg911
F0.766
sg919
F0.866
sg927
F-1.0
sg935
F6084.0
sg943
F89.79
sg951
F-1.0
sg959
F0.384
sg967
F0.005
sg975
F30.0
sg983
S'BHMCatPP0015;'
p4044
sg992
F137.0
sg1000
F0.950391644908616
sg1008
g1009
sg1017
S'M4-V69 A'
p4045
sg1026
F16.39944722222222
sg1034
F-1.0
sg1042
F-1.0
sg1050
F1850.0
sg1058
F65.25
sg1066
F-1.0
sg1074
F0.296410819251337
sg1082
F-1.0
sg1090
F17.01
sg1098
g4011
sg1106
F-1.0
sg1114
F0.004
sg1122
F-1.0
sg1130
S'0014'
p4046
sg1139
F-1.0
sg1147
F10.57
sg1155
F48.1882687
sg1163
F-1.0
sg1171
F-1.0
sg1179
F-1.0
sg1187
F-1.0
sg1195
F121.0
ssS'PlanetFieldsPriority'
p4047
(dp4048
g179
I1
sg188
I4
sg196
I1
sg204
I1
sg213
I4
sg221
I100
sg230
I1
sg239
I1
sg247
I1
sg256
I1
sg264
I4
sg272
I2
sg281
I1
sg289
I2
sg297
I1
sg305
I4
sg313
I4
sg321
I100
sg329
I1
sg338
I100
sg347
I4
ssS'BHMCatS0002D'
p4049
(dp4050
g12
F-0.263
sg20
S'Kepler-34 B'
p4051
sg29
F0.148
sg37
F-1.0
sg45
I2
sg53
F5867.0
sg61
F-1.0
sg69
F-1.0
sg77
F0.003
sg85
F1.093
sg93
F2.9
sg101
F1.021
sg109
S'Kepler-34'
p4052
sg118
g3
(g121
S'\x949l\xffz\xc4\x81?'
p4053
tp4054
Rp4055
sg134
F44.64156111111111
sg142
g1287
sg151
F-1.0
sg159
F0.003
sg167
S'G0V'
p4056
sg169
(lp4057
(dp4058
g179
S'BHMCatPD0002'
p4059
sg188
F3.1797327617963234
sg196
F0.182
sg204
S'BHMCatS002D'
p4060
sg213
F0.018
sg221
g3864
sg230
S'2012Natur.481..475W;2012yCatp038048101W'
p4061
sg239
F8.573204834405901
sg247
S'0002'
p4062
sg256
F288.822
sg264
F0.0009
sg272
S'Kepler-34'
p4063
sg281
F69.95412075951911
sg289
F-1.0
sg297
F1.0896
sg305
F0.072
sg313
F0.0
sg321
F2.069
sg329
S'Kepler-34b'
p4064
sg338
g1297
sg347
F0.14587913985245643
sasg355
S'G0V'
p4065
sg363
S'KIC'
p4066
sg372
F-1.0
sg380
F-1.0
sg388
S'8572936'
p4067
sg390
(dp4068
S'BHMCatPD0002'
p4069
(dp4070
g401
F7.0
sg409
F0.0
sg417
F0.0
sg425
F0.0
sg433
F2.45
sg441
F-0.263
sg449
F11.3
sg457
S"'early mars'"
p4071
sg466
F4.5
sg474
F1.5
sg482
F8.5732048344059
sg490
F0.002
sg498
F1.0
sg506
F1.0
sg514
F-0.263
sg522
S'Chaboyer'
p4072
sg531
F2.0
sg539
F0.95
sg547
F0.275556
sg555
F0.95
sg563
F69.9541207595191
sg571
F5e+40
sg579
F4.7e+40
sg587
F1.5
sg595
F44.0
sg603
F0.0
sg611
F0.275556
sg619
F5.0
sg627
F1.0
sg635
S'Chaboyer'
p4073
sg644
F0.0
sg652
F0.8
sg660
S"'maximum greenhouse'"
p4074
sg669
F0.3
sg677
F1.0
sg685
S"'Saturn'"
p4075
sg694
F0.01
sg702
F10.0
sg710
F2.45
sg718
F2.0
sg726
F3.0
sg734
S'PARSEC'
p4076
sg743
S'PARSEC'
p4077
sg752
F5e+40
sg760
F4.7e+40
sg768
S'BHMCatPD0002'
p4078
sg777
F0.01
sg785
S'BHMCatS0002D'
p4079
sg794
S'Kepler-34b'
p4080
sg803
F7.0
sg811
S'Kepler-34'
p4081
sg820
S"'recent venus'"
p4082
sg829
S"'runaway greenhouse'"
p4083
sg838
F11.3
sg846
F0.0
sg854
F2.45
sg862
F5.0
sg870
F0.002
sg878
F0.3
sssg886
F4.442
sg894
g3
(g121
S'\x1e6\x10i\xba\xca0@'
p4084
tp4085
Rp4086
sg902
S'2012Natur.481..475W; 2012yCatp038048101W;'
p4087
sg911
F1.048
sg919
F1.162
sg927
F1.5
sg935
F5913.0
sg943
F89.8584
sg951
F-1.0
sg959
F0.5209
sg967
F0.003
sg975
F-1.0
sg983
S'BHMCatPD0002;'
p4088
sg992
F130.0
sg1000
F0.974236641221374
sg1008
g1009
sg1017
S'Kepler-34 A'
p4089
sg1026
F19.762388055555554
sg1034
F-1.0
sg1042
F16.5
sg1050
F-1.0
sg1058
F71.436
sg1066
F-1.0
sg1074
F0.2288
sg1082
F-1.0
sg1090
F14.875
sg1098
g4049
sg1106
F-1.0
sg1114
F0.002
sg1122
F0.5
sg1130
S'0002'
p4090
sg1139
F-0.263
sg1147
F2.0
sg1155
F27.796
sg1163
F3.5
sg1171
g3
(g121
S'\x949l\xffz\xc4\x81?'
p4091
tp4092
Rp4093
sg1179
g3
(g121
S'\x90\xab[\n\xd50\x03@'
p4094
tp4095
Rp4096
sg1187
g3
(g121
S'\xc4d2\x8d\x9a\xbf\x99@'
p4097
tp4098
Rp4099
sg1195
F130.0
ssS'BHMCatS1008V'
p4100
(dp4101
g12
F0.0
sg20
S'NICHE-008 B'
p4102
sg29
F-2.0
sg37
F-2.0
sg45
I1008
sg53
F-2.0
sg61
F-2.0
sg69
F-2.0
sg77
F0.0
sg85
F-2.0
sg93
F-2.0
sg101
F0.7
sg109
S'NICHE-008'
p4103
sg118
g3
(g121
S'0\xa8\x1bgj\x94\x8f?'
p4104
tp4105
Rp4106
sg134
F-2.0
sg142
g143
sg151
F-2.0
sg159
F0.0
sg167
g168
sg169
(lp4107
(dp4108
g179
S'BHMCatPV1008'
p4109
sg188
F0.0
sg196
F0.0
sg204
S'BHMCatS1008V'
p4110
sg213
F0.0
sg221
S'1008'
p4111
sg230
g231
sg239
F1.000001
sg247
S'1008'
p4112
sg256
F0.0
sg264
F0.0
sg272
S'NICHE-008'
p4113
sg281
F1.000001
sg289
F0.0
sg297
F1.0
sg305
F0.0
sg313
F0.0
sg321
F1.0
sg329
S'NICHE-008h'
p4114
sg338
g339
sg347
F0.0
sasg355
g168
sg363
S'NICHE'
p4115
sg372
F-2.0
sg380
F-2.0
sg388
g1668
sg390
(dp4116
S'BHMCatPV1008'
p4117
(dp4118
g401
F7.0
sg409
F0.0
sg417
F0.0
sg425
F0.0
sg433
F1.0
sg441
F0.0
sg449
F11.3
sg457
S"'early mars'"
p4119
sg466
F4.5
sg474
F1.5
sg482
F1.000001
sg490
F0.002
sg498
F1.0
sg506
F1.0
sg514
F0.0
sg522
S'Chaboyer'
p4120
sg531
F2.0
sg539
F0.95
sg547
F0.275556
sg555
F0.95
sg563
F1.000001
sg571
F5e+40
sg579
F4.7e+40
sg587
F1.5
sg595
F44.0
sg603
F0.0
sg611
F0.275556
sg619
F5.0
sg627
F1.0
sg635
S'Chaboyer'
p4121
sg644
F0.0
sg652
F0.3
sg660
S"'maximum greenhouse'"
p4122
sg669
F0.3
sg677
F1.0
sg685
S"'Earth'"
p4123
sg694
F0.01
sg702
F10.0
sg710
F1.0
sg718
F2.0
sg726
F3.0
sg734
S'PARSEC'
p4124
sg743
S'PARSEC'
p4125
sg752
F5e+40
sg760
F4.7e+40
sg768
S'BHMCatPV1008'
p4126
sg777
F0.01
sg785
S'BHMCatS1008V'
p4127
sg794
S'NICHE-008h'
p4128
sg803
F7.0
sg811
S'NICHE-008'
p4129
sg820
S"'recent venus'"
p4130
sg829
S"'runaway greenhouse'"
p4131
sg838
F11.3
sg846
F0.0
sg854
F1.0
sg862
F5.0
sg870
F0.002
sg878
F0.3
sssg886
F-2.0
sg894
F-1.0
sg902
S'2014arXiv1408.5163M;'
p4132
sg911
F0.85
sg919
F-2.0
sg927
F-2.0
sg935
F-2.0
sg943
F-2.0
sg951
F-2.0
sg959
F0.3
sg967
F0.0
sg975
F-1.0
sg983
S'BHMCatPV1008;'
p4133
sg992
F-2.0
sg1000
F0.823529411764706
sg1008
g1009
sg1017
S'NICHE-008 A'
p4134
sg1026
F-2.0
sg1034
F-1.0
sg1042
F-2.0
sg1050
F-1.0
sg1058
F-1.0
sg1066
F-1.0
sg1074
F0.166879790842003
sg1082
F-1.0
sg1090
F-2.0
sg1098
g4100
sg1106
F-2.0
sg1114
F0.0
sg1122
F-2.0
sg1130
S'1008'
p4135
sg1139
F-1.0
sg1147
F-2.0
sg1155
F20.0
sg1163
F-2.0
sg1171
F-1.0
sg1179
F-1.0
sg1187
F-1.0
sg1195
F-2.0
ssS'FieldsType'
p4136
(dp4137
g12
g3
(g4
(S'S5'
p4138
I0
I1
tp4139
Rp4140
(I3
S'|'
p4141
NNNI5
I1
I0
tp4142
bS'float'
p4143
tp4144
Rp4145
sg20
g3
(g4
(S'S3'
p4146
I0
I1
tp4147
Rp4148
(I3
S'|'
p4149
NNNI3
I1
I0
tp4150
bS'str'
p4151
tp4152
Rp4153
sg29
g3
(g4
(S'S5'
p4154
I0
I1
tp4155
Rp4156
(I3
S'|'
p4157
NNNI5
I1
I0
tp4158
bS'float'
p4159
tp4160
Rp4161
sg37
g3
(g4
(S'S5'
p4162
I0
I1
tp4163
Rp4164
(I3
S'|'
p4165
NNNI5
I1
I0
tp4166
bS'float'
p4167
tp4168
Rp4169
sg45
g3
(g4
(S'S3'
p4170
I0
I1
tp4171
Rp4172
(I3
S'|'
p4173
NNNI3
I1
I0
tp4174
bS'int'
p4175
tp4176
Rp4177
sg53
g3
(g4
(S'S5'
p4178
I0
I1
tp4179
Rp4180
(I3
S'|'
p4181
NNNI5
I1
I0
tp4182
bS'float'
p4183
tp4184
Rp4185
sg61
g3
(g4
(S'S5'
p4186
I0
I1
tp4187
Rp4188
(I3
S'|'
p4189
NNNI5
I1
I0
tp4190
bS'float'
p4191
tp4192
Rp4193
sg69
g3
(g4
(S'S5'
p4194
I0
I1
tp4195
Rp4196
(I3
S'|'
p4197
NNNI5
I1
I0
tp4198
bS'float'
p4199
tp4200
Rp4201
sg77
g3
(g4
(S'S5'
p4202
I0
I1
tp4203
Rp4204
(I3
S'|'
p4205
NNNI5
I1
I0
tp4206
bS'float'
p4207
tp4208
Rp4209
sg85
g3
(g4
(S'S5'
p4210
I0
I1
tp4211
Rp4212
(I3
S'|'
p4213
NNNI5
I1
I0
tp4214
bS'float'
p4215
tp4216
Rp4217
sg93
g3
(g4
(S'S5'
p4218
I0
I1
tp4219
Rp4220
(I3
S'|'
p4221
NNNI5
I1
I0
tp4222
bS'float'
p4223
tp4224
Rp4225
sg101
g3
(g4
(S'S5'
p4226
I0
I1
tp4227
Rp4228
(I3
S'|'
p4229
NNNI5
I1
I0
tp4230
bS'float'
p4231
tp4232
Rp4233
sg109
g3
(g4
(S'S3'
p4234
I0
I1
tp4235
Rp4236
(I3
S'|'
p4237
NNNI3
I1
I0
tp4238
bS'str'
p4239
tp4240
Rp4241
sg118
g3
(g4
(S'S5'
p4242
I0
I1
tp4243
Rp4244
(I3
S'|'
p4245
NNNI5
I1
I0
tp4246
bS'float'
p4247
tp4248
Rp4249
sg134
g3
(g4
(S'S3'
p4250
I0
I1
tp4251
Rp4252
(I3
S'|'
p4253
NNNI3
I1
I0
tp4254
bS'dms'
p4255
tp4256
Rp4257
sg142
g3
(g4
(S'S3'
p4258
I0
I1
tp4259
Rp4260
(I3
S'|'
p4261
NNNI3
I1
I0
tp4262
bS'str'
p4263
tp4264
Rp4265
sg151
g3
(g4
(S'S5'
p4266
I0
I1
tp4267
Rp4268
(I3
S'|'
p4269
NNNI5
I1
I0
tp4270
bS'float'
p4271
tp4272
Rp4273
sg159
g3
(g4
(S'S5'
p4274
I0
I1
tp4275
Rp4276
(I3
S'|'
p4277
NNNI5
I1
I0
tp4278
bS'float'
p4279
tp4280
Rp4281
sg167
g3
(g4
(S'S3'
p4282
I0
I1
tp4283
Rp4284
(I3
S'|'
p4285
NNNI3
I1
I0
tp4286
bS'str'
p4287
tp4288
Rp4289
sg355
g3
(g4
(S'S3'
p4290
I0
I1
tp4291
Rp4292
(I3
S'|'
p4293
NNNI3
I1
I0
tp4294
bS'str'
p4295
tp4296
Rp4297
sg363
g3
(g4
(S'S3'
p4298
I0
I1
tp4299
Rp4300
(I3
S'|'
p4301
NNNI3
I1
I0
tp4302
bS'str'
p4303
tp4304
Rp4305
sg372
g3
(g4
(S'S5'
p4306
I0
I1
tp4307
Rp4308
(I3
S'|'
p4309
NNNI5
I1
I0
tp4310
bS'float'
p4311
tp4312
Rp4313
sg380
g3
(g4
(S'S5'
p4314
I0
I1
tp4315
Rp4316
(I3
S'|'
p4317
NNNI5
I1
I0
tp4318
bS'float'
p4319
tp4320
Rp4321
sg388
g3
(g4
(S'S3'
p4322
I0
I1
tp4323
Rp4324
(I3
S'|'
p4325
NNNI3
I1
I0
tp4326
bS'str'
p4327
tp4328
Rp4329
sg886
g3
(g4
(S'S5'
p4330
I0
I1
tp4331
Rp4332
(I3
S'|'
p4333
NNNI5
I1
I0
tp4334
bS'float'
p4335
tp4336
Rp4337
sg894
g3
(g4
(S'S5'
p4338
I0
I1
tp4339
Rp4340
(I3
S'|'
p4341
NNNI5
I1
I0
tp4342
bS'float'
p4343
tp4344
Rp4345
sg902
g3
(g4
(S'S3'
p4346
I0
I1
tp4347
Rp4348
(I3
S'|'
p4349
NNNI3
I1
I0
tp4350
bS'str'
p4351
tp4352
Rp4353
sg911
g3
(g4
(S'S5'
p4354
I0
I1
tp4355
Rp4356
(I3
S'|'
p4357
NNNI5
I1
I0
tp4358
bS'float'
p4359
tp4360
Rp4361
sg919
g3
(g4
(S'S5'
p4362
I0
I1
tp4363
Rp4364
(I3
S'|'
p4365
NNNI5
I1
I0
tp4366
bS'float'
p4367
tp4368
Rp4369
sg927
g3
(g4
(S'S5'
p4370
I0
I1
tp4371
Rp4372
(I3
S'|'
p4373
NNNI5
I1
I0
tp4374
bS'float'
p4375
tp4376
Rp4377
sg935
g3
(g4
(S'S5'
p4378
I0
I1
tp4379
Rp4380
(I3
S'|'
p4381
NNNI5
I1
I0
tp4382
bS'float'
p4383
tp4384
Rp4385
sg943
g3
(g4
(S'S5'
p4386
I0
I1
tp4387
Rp4388
(I3
S'|'
p4389
NNNI5
I1
I0
tp4390
bS'float'
p4391
tp4392
Rp4393
sg951
g3
(g4
(S'S5'
p4394
I0
I1
tp4395
Rp4396
(I3
S'|'
p4397
NNNI5
I1
I0
tp4398
bS'float'
p4399
tp4400
Rp4401
sg959
g3
(g4
(S'S5'
p4402
I0
I1
tp4403
Rp4404
(I3
S'|'
p4405
NNNI5
I1
I0
tp4406
bS'float'
p4407
tp4408
Rp4409
sg967
g3
(g4
(S'S5'
p4410
I0
I1
tp4411
Rp4412
(I3
S'|'
p4413
NNNI5
I1
I0
tp4414
bS'float'
p4415
tp4416
Rp4417
sg975
g3
(g4
(S'S5'
p4418
I0
I1
tp4419
Rp4420
(I3
S'|'
p4421
NNNI5
I1
I0
tp4422
bS'float'
p4423
tp4424
Rp4425
sg983
g3
(g4
(S'S3'
p4426
I0
I1
tp4427
Rp4428
(I3
S'|'
p4429
NNNI3
I1
I0
tp4430
bS'str'
p4431
tp4432
Rp4433
sg992
g3
(g4
(S'S5'
p4434
I0
I1
tp4435
Rp4436
(I3
S'|'
p4437
NNNI5
I1
I0
tp4438
bS'float'
p4439
tp4440
Rp4441
sg1000
g3
(g4
(S'S5'
p4442
I0
I1
tp4443
Rp4444
(I3
S'|'
p4445
NNNI5
I1
I0
tp4446
bS'float'
p4447
tp4448
Rp4449
sg1008
g3
(g4
(S'S3'
p4450
I0
I1
tp4451
Rp4452
(I3
S'|'
p4453
NNNI3
I1
I0
tp4454
bS'str'
p4455
tp4456
Rp4457
sg1017
g3
(g4
(S'S3'
p4458
I0
I1
tp4459
Rp4460
(I3
S'|'
p4461
NNNI3
I1
I0
tp4462
bS'str'
p4463
tp4464
Rp4465
sg1026
g3
(g4
(S'S3'
p4466
I0
I1
tp4467
Rp4468
(I3
S'|'
p4469
NNNI3
I1
I0
tp4470
bS'dms'
p4471
tp4472
Rp4473
sg1034
g3
(g4
(S'S5'
p4474
I0
I1
tp4475
Rp4476
(I3
S'|'
p4477
NNNI5
I1
I0
tp4478
bS'float'
p4479
tp4480
Rp4481
sg1042
g3
(g4
(S'S5'
p4482
I0
I1
tp4483
Rp4484
(I3
S'|'
p4485
NNNI5
I1
I0
tp4486
bS'float'
p4487
tp4488
Rp4489
sg1050
g3
(g4
(S'S5'
p4490
I0
I1
tp4491
Rp4492
(I3
S'|'
p4493
NNNI5
I1
I0
tp4494
bS'float'
p4495
tp4496
Rp4497
sg1058
g3
(g4
(S'S5'
p4498
I0
I1
tp4499
Rp4500
(I3
S'|'
p4501
NNNI5
I1
I0
tp4502
bS'float'
p4503
tp4504
Rp4505
sg1066
g3
(g4
(S'S5'
p4506
I0
I1
tp4507
Rp4508
(I3
S'|'
p4509
NNNI5
I1
I0
tp4510
bS'float'
p4511
tp4512
Rp4513
sg1074
g3
(g4
(S'S5'
p4514
I0
I1
tp4515
Rp4516
(I3
S'|'
p4517
NNNI5
I1
I0
tp4518
bS'float'
p4519
tp4520
Rp4521
sg1082
g3
(g4
(S'S5'
p4522
I0
I1
tp4523
Rp4524
(I3
S'|'
p4525
NNNI5
I1
I0
tp4526
bS'float'
p4527
tp4528
Rp4529
sg1090
g3
(g4
(S'S5'
p4530
I0
I1
tp4531
Rp4532
(I3
S'|'
p4533
NNNI5
I1
I0
tp4534
bS'float'
p4535
tp4536
Rp4537
sg1098
g3
(g4
(S'S3'
p4538
I0
I1
tp4539
Rp4540
(I3
S'|'
p4541
NNNI3
I1
I0
tp4542
bS'str'
p4543
tp4544
Rp4545
sg1106
g3
(g4
(S'S5'
p4546
I0
I1
tp4547
Rp4548
(I3
S'|'
p4549
NNNI5
I1
I0
tp4550
bS'float'
p4551
tp4552
Rp4553
sg1114
g3
(g4
(S'S5'
p4554
I0
I1
tp4555
Rp4556
(I3
S'|'
p4557
NNNI5
I1
I0
tp4558
bS'float'
p4559
tp4560
Rp4561
sg1122
g3
(g4
(S'S5'
p4562
I0
I1
tp4563
Rp4564
(I3
S'|'
p4565
NNNI5
I1
I0
tp4566
bS'float'
p4567
tp4568
Rp4569
sg1130
g3
(g4
(S'S3'
p4570
I0
I1
tp4571
Rp4572
(I3
S'|'
p4573
NNNI3
I1
I0
tp4574
bS'str'
p4575
tp4576
Rp4577
sg1139
g3
(g4
(S'S5'
p4578
I0
I1
tp4579
Rp4580
(I3
S'|'
p4581
NNNI5
I1
I0
tp4582
bS'float'
p4583
tp4584
Rp4585
sg1147
g3
(g4
(S'S5'
p4586
I0
I1
tp4587
Rp4588
(I3
S'|'
p4589
NNNI5
I1
I0
tp4590
bS'float'
p4591
tp4592
Rp4593
sg1155
g3
(g4
(S'S5'
p4594
I0
I1
tp4595
Rp4596
(I3
S'|'
p4597
NNNI5
I1
I0
tp4598
bS'float'
p4599
tp4600
Rp4601
sg1163
g3
(g4
(S'S5'
p4602
I0
I1
tp4603
Rp4604
(I3
S'|'
p4605
NNNI5
I1
I0
tp4606
bS'float'
p4607
tp4608
Rp4609
sg1171
g3
(g4
(S'S5'
p4610
I0
I1
tp4611
Rp4612
(I3
S'|'
p4613
NNNI5
I1
I0
tp4614
bS'float'
p4615
tp4616
Rp4617
sg1179
g3
(g4
(S'S5'
p4618
I0
I1
tp4619
Rp4620
(I3
S'|'
p4621
NNNI5
I1
I0
tp4622
bS'float'
p4623
tp4624
Rp4625
sg1187
g3
(g4
(S'S5'
p4626
I0
I1
tp4627
Rp4628
(I3
S'|'
p4629
NNNI5
I1
I0
tp4630
bS'float'
p4631
tp4632
Rp4633
sg1195
g3
(g4
(S'S5'
p4634
I0
I1
tp4635
Rp4636
(I3
S'|'
p4637
NNNI5
I1
I0
tp4638
bS'float'
p4639
tp4640
Rp4641
ssS'BHMCatS0016P'
p4642
(dp4643
g12
F-1.0
sg20
S'V69-47 Tuc  B'
p4644
sg29
F-1.0
sg37
F-1.0
sg45
I16
sg53
F5959.0
sg61
F0.006
sg69
F-1.0
sg77
F0.005
sg85
F1.162
sg93
F-1.0
sg101
F0.859
sg109
S'V69-47 Tuc'
p4645
sg118
F-1.0
sg134
F-71.9387
sg142
g1200
sg151
F0.004
sg159
F0.006
sg167
S'G type'
p4646
sg169
(lp4647
(dp4648
g179
S'BHMCatPP0017'
p4649
sg188
F0.0
sg196
F0.0
sg204
S'BHMCatS0016P'
p4650
sg213
F0.0
sg221
S'17'
p4651
sg230
g231
sg239
F1.000001
sg247
S'0017'
p4652
sg256
F0.0
sg264
F0.0
sg272
S'V69-47 Tuc'
p4653
sg281
F1.000001
sg289
F0.0
sg297
F1.0
sg305
F0.0
sg313
F0.0
sg321
F1.0
sg329
S'V69-47 Tuc h'
p4654
sg338
g339
sg347
F0.0
sasg355
S'G type'
p4655
sg363
S'EkCat'
p4656
sg372
F4.1
sg380
F-1.0
sg388
g1421
sg390
(dp4657
S'BHMCatPP0017'
p4658
(dp4659
g401
F7.0
sg409
F0.0
sg417
F0.0
sg425
F0.0
sg433
F1.0
sg441
F0.0
sg449
F11.3
sg457
S"'early mars'"
p4660
sg466
F4.5
sg474
F1.5
sg482
F1.000001
sg490
F0.002
sg498
F1.0
sg506
F1.0
sg514
F0.0
sg522
S'Chaboyer'
p4661
sg531
F2.0
sg539
F0.95
sg547
F0.275556
sg555
F0.95
sg563
F1.000001
sg571
F5e+40
sg579
F4.7e+40
sg587
F1.5
sg595
F44.0
sg603
F0.0
sg611
F0.275556
sg619
F5.0
sg627
F1.0
sg635
S'Chaboyer'
p4662
sg644
F0.0
sg652
F0.3
sg660
S"'maximum greenhouse'"
p4663
sg669
F0.3
sg677
F1.0
sg685
S"'Saturn'"
p4664
sg694
F0.01
sg702
F10.0
sg710
F1.0
sg718
F2.0
sg726
F3.0
sg734
S'PARSEC'
p4665
sg743
S'PARSEC'
p4666
sg752
F5e+40
sg760
F4.7e+40
sg768
S'BHMCatPP0017'
p4667
sg777
F0.01
sg785
S'BHMCatS0016P'
p4668
sg794
S'V69-47 Tuc h'
p4669
sg803
F7.0
sg811
S'V69-47 Tuc'
p4670
sg820
S"'recent venus'"
p4671
sg829
S"'runaway greenhouse'"
p4672
sg838
F11.3
sg846
F0.0
sg854
F1.0
sg862
F5.0
sg870
F0.002
sg878
F0.3
sssg886
F4.1
sg894
F-1.0
sg902
S'2010AJ....139..329T ;'
p4673
sg911
F0.876
sg919
F1.315
sg927
F-1.0
sg935
F5945.0
sg943
F89.77
sg951
F-1.0
sg959
F0.056
sg967
F0.005
sg975
F166.0
sg983
S'BHMCatPP0017;'
p4674
sg992
F150.0
sg1000
F0.980593607305936
sg1008
S'DEBCat'
p4675
sg1017
S'V69-47 Tuc  A'
p4676
sg1026
F0.38137499999999996
sg1034
F-1.0
sg1042
F-1.0
sg1050
F4418.0
sg1058
F-1.0
sg1066
F-1.0
sg1074
F0.224821648395722
sg1082
F-1.0
sg1090
F16.85
sg1098
g4642
sg1106
F-1.0
sg1114
F0.006
sg1122
F-1.0
sg1130
S'0016'
p4677
sg1139
F-1.0
sg1147
F-1.0
sg1155
F29.53975
sg1163
F-1.0
sg1171
F-1.0
sg1179
F-1.0
sg1187
F-1.0
sg1195
F150.0
ss.