(dp0
S'BHMCatS1004V'
p1
(dp2
cnumpy.core.multiarray
scalar
p3
(cnumpy
dtype
p4
(S'S13'
p5
I0
I1
tp6
Rp7
(I3
S'|'
p8
NNNI13
I1
I0
tp9
bS'binary_FeHfit'
p10
tp11
Rp12
F0.0
sg3
(g4
(S'S16'
p13
I0
I1
tp14
Rp15
(I3
S'|'
p16
NNNI16
I1
I0
tp17
bS'star2_str_StarID'
p18
tp19
Rp20
S'NICHE-004 B'
p21
sg3
(g4
(S'S9'
p22
I0
I1
tp23
Rp24
(I3
S'|'
p25
NNNI9
I1
I0
tp26
bS'binary_BV'
p27
tp28
Rp29
F-2.0
sg3
(g4
(S'S14'
p30
I0
I1
tp31
Rp32
(I3
S'|'
p33
NNNI14
I1
I0
tp34
bS'star2_vsinierr'
p35
tp36
Rp37
F-2.0
sg3
(g4
(S'S2'
p38
I0
I1
tp39
Rp40
(I3
S'|'
p41
NNNI2
I1
I0
tp42
bS'No'
p43
tp44
Rp45
I1004
sg3
(g4
(S'S7'
p46
I0
I1
tp47
Rp48
(I3
S'|'
p49
NNNI7
I1
I0
tp50
bS'star2_T'
p51
tp52
Rp53
F-2.0
sg3
(g4
(S'S13'
p54
I0
I1
tp55
Rp56
(I3
S'|'
p57
NNNI13
I1
I0
tp58
bS'star2_loggerr'
p59
tp60
Rp61
F-2.0
sg3
(g4
(S'S13'
p62
I0
I1
tp63
Rp64
(I3
S'|'
p65
NNNI13
I1
I0
tp66
bS'star2_Proterr'
p67
tp68
Rp69
F-2.0
sg3
(g4
(S'S10'
p70
I0
I1
tp71
Rp72
(I3
S'|'
p73
NNNI10
I1
I0
tp74
bS'star1_Rerr'
p75
tp76
Rp77
F0.0
sg3
(g4
(S'S7'
p78
I0
I1
tp79
Rp80
(I3
S'|'
p81
NNNI7
I1
I0
tp82
bS'star2_R'
p83
tp84
Rp85
F-2.0
sg3
(g4
(S'S13'
p86
I0
I1
tp87
Rp88
(I3
S'|'
p89
NNNI13
I1
I0
tp90
bS'binary_taumax'
p91
tp92
Rp93
F-2.0
sg3
(g4
(S'S7'
p94
I0
I1
tp95
Rp96
(I3
S'|'
p97
NNNI7
I1
I0
tp98
bS'star2_M'
p99
tp100
Rp101
F0.7
sg3
(g4
(S'S16'
p102
I0
I1
tp103
Rp104
(I3
S'|'
p105
NNNI16
I1
I0
tp106
bS'binary_str_SysID'
p107
tp108
Rp109
S'NICHE-004'
p110
sg3
(g4
(S'S11'
p111
I0
I1
tp112
Rp113
(I3
S'|'
p114
NNNI11
I1
I0
tp115
bS'binary_Zfit'
p116
tp117
Rp118
g3
(g4
(S'f8'
p119
I0
I1
tp120
Rp121
(I3
S'<'
p122
NNNI-1
I-1
I0
tp123
bS'0\xa8\x1bgj\x94\x8f?'
p124
tp125
Rp126
sg3
(g4
(S'S3'
p127
I0
I1
tp128
Rp129
(I3
S'|'
p130
NNNI3
I1
I0
tp131
bS'DEC'
p132
tp133
Rp134
F-2.0
sg3
(g4
(S'S4'
p135
I0
I1
tp136
Rp137
(I3
S'|'
p138
NNNI4
I1
I0
tp139
bS'Type'
p140
tp141
Rp142
S'V'
p143
sg3
(g4
(S'S13'
p144
I0
I1
tp145
Rp146
(I3
S'|'
p147
NNNI13
I1
I0
tp148
bS'star1_loggerr'
p149
tp150
Rp151
F-2.0
sg3
(g4
(S'S10'
p152
I0
I1
tp153
Rp154
(I3
S'|'
p155
NNNI10
I1
I0
tp156
bS'star2_Rerr'
p157
tp158
Rp159
F0.0
sg3
(g4
(S'S15'
p160
I0
I1
tp161
Rp162
(I3
S'|'
p163
NNNI15
I1
I0
tp164
bS'star1_str_Stype'
p165
tp166
Rp167
S'-'
p168
sS'PlanetsData'
p169
(lp170
(dp171
g3
(g4
(S'S7'
p172
I0
I1
tp173
Rp174
(I3
S'|'
p175
NNNI7
I1
I0
tp176
bS'BHMCatP'
p177
tp178
Rp179
S'BHMCatPV1004'
p180
sg3
(g4
(S'S11'
p181
I0
I1
tp182
Rp183
(I3
S'|'
p184
NNNI11
I1
I0
tp185
bS'planet_Merr'
p186
tp187
Rp188
F0.0
sg3
(g4
(S'S11'
p189
I0
I1
tp190
Rp191
(I3
S'|'
p192
NNNI11
I1
I0
tp193
bS'planet_eorb'
p194
tp195
Rp196
F0.0
sg3
(g4
(S'S7'
p197
I0
I1
tp198
Rp199
(I3
S'|'
p200
NNNI7
I1
I0
tp201
bS'BHMCatS'
p202
tp203
Rp204
S'BHMCatS1004V'
p205
sg3
(g4
(S'S14'
p206
I0
I1
tp207
Rp208
(I3
S'|'
p209
NNNI14
I1
I0
tp210
bS'planet_eorberr'
p211
tp212
Rp213
F0.0
sg3
(g4
(S'S3'
p214
I0
I1
tp215
Rp216
(I3
S'|'
p217
NNNI3
I1
I0
tp218
bS'Nop'
p219
tp220
Rp221
S'1004'
p222
sg3
(g4
(S'S10'
p223
I0
I1
tp224
Rp225
(I3
S'|'
p226
NNNI10
I1
I0
tp227
bS'planet_ADS'
p228
tp229
Rp230
S';'
p231
sg3
(g4
(S'S8'
p232
I0
I1
tp233
Rp234
(I3
S'|'
p235
NNNI8
I1
I0
tp236
bS'planet_R'
p237
tp238
Rp239
F1.000001
sg3
(g4
(S'S6'
p240
I0
I1
tp241
Rp242
(I3
S'|'
p243
NNNI6
I1
I0
tp244
bS'Nopstr'
p245
tp246
Rp247
S'1004'
p248
sg3
(g4
(S'S11'
p249
I0
I1
tp250
Rp251
(I3
S'|'
p252
NNNI11
I1
I0
tp253
bS'planet_Porb'
p254
tp255
Rp256
F0.0
sg3
(g4
(S'S14'
p257
I0
I1
tp258
Rp259
(I3
S'|'
p260
NNNI14
I1
I0
tp261
bS'planet_aorberr'
p262
tp263
Rp264
F0.0
sg3
(g4
(S'S5'
p265
I0
I1
tp266
Rp267
(I3
S'|'
p268
NNNI5
I1
I0
tp269
bS'SysID'
p270
tp271
Rp272
S'NICHE-004'
p273
sg3
(g4
(S'S8'
p274
I0
I1
tp275
Rp276
(I3
S'|'
p277
NNNI8
I1
I0
tp278
bS'planet_M'
p279
tp280
Rp281
F1.000001
sg3
(g4
(S'S11'
p282
I0
I1
tp283
Rp284
(I3
S'|'
p285
NNNI11
I1
I0
tp286
bS'planet_worb'
p287
tp288
Rp289
F0.0
sg3
(g4
(S'S11'
p290
I0
I1
tp291
Rp292
(I3
S'|'
p293
NNNI11
I1
I0
tp294
bS'planet_aorb'
p295
tp296
Rp297
F1.0
sg3
(g4
(S'S14'
p298
I0
I1
tp299
Rp300
(I3
S'|'
p301
NNNI14
I1
I0
tp302
bS'planet_Porberr'
p303
tp304
Rp305
F0.0
sg3
(g4
(S'S14'
p306
I0
I1
tp307
Rp308
(I3
S'|'
p309
NNNI14
I1
I0
tp310
bS'planet_worberr'
p311
tp312
Rp313
F0.0
sg3
(g4
(S'S11'
p314
I0
I1
tp315
Rp316
(I3
S'|'
p317
NNNI11
I1
I0
tp318
bS'planet_Morb'
p319
tp320
Rp321
F1.0
sg3
(g4
(S'S19'
p322
I0
I1
tp323
Rp324
(I3
S'|'
p325
NNNI19
I1
I0
tp326
bS'planet_str_PlanetID'
p327
tp328
Rp329
S'NICHE-004h'
p330
sg3
(g4
(S'S4'
p331
I0
I1
tp332
Rp333
(I3
S'|'
p334
NNNI4
I1
I0
tp335
bS'Type'
p336
tp337
Rp338
S'h'
p339
sg3
(g4
(S'S11'
p340
I0
I1
tp341
Rp342
(I3
S'|'
p343
NNNI11
I1
I0
tp344
bS'planet_Rerr'
p345
tp346
Rp347
F0.0
sasg3
(g4
(S'S15'
p348
I0
I1
tp349
Rp350
(I3
S'|'
p351
NNNI15
I1
I0
tp352
bS'star2_str_Stype'
p353
tp354
Rp355
g168
sg3
(g4
(S'S9'
p356
I0
I1
tp357
Rp358
(I3
S'|'
p359
NNNI9
I1
I0
tp360
bS'SourceCat'
p361
tp362
Rp363
S'NICHE'
p364
sg3
(g4
(S'S10'
p365
I0
I1
tp366
Rp367
(I3
S'|'
p368
NNNI10
I1
I0
tp369
bS'star2_logg'
p370
tp371
Rp372
F-2.0
sg3
(g4
(S'S11'
p373
I0
I1
tp374
Rp375
(I3
S'|'
p376
NNNI11
I1
I0
tp377
bS'star2_vsini'
p378
tp379
Rp380
F-2.0
sg3
(g4
(S'S8'
p381
I0
I1
tp382
Rp383
(I3
S'|'
p384
NNNI8
I1
I0
tp385
bS'SourceID'
p386
tp387
Rp388
S'4'
p389
sS'PlanetsModel'
p390
(dp391
S'BHMCatPV1004'
p392
(dp393
g3
(g4
(S'S10'
p394
I0
I1
tp395
Rp396
(I3
S'|'
p397
NNNI10
I1
I0
tp398
bS'star2_Pini'
p399
tp400
Rp401
F7.0
sg3
(g4
(S'S11'
p402
I0
I1
tp403
Rp404
(I3
S'|'
p405
NNNI11
I1
I0
tp406
bS'star2_taums'
p407
tp408
Rp409
F0.0
sg3
(g4
(S'S11'
p410
I0
I1
tp411
Rp412
(I3
S'|'
p413
NNNI11
I1
I0
tp414
bS'star1_taums'
p415
tp416
Rp417
F0.0
sg3
(g4
(S'S7'
p418
I0
I1
tp419
Rp420
(I3
S'|'
p421
NNNI7
I1
I0
tp422
bS'star2_Z'
p423
tp424
Rp425
F0.0
sg3
(g4
(S'S10'
p426
I0
I1
tp427
Rp428
(I3
S'|'
p429
NNNI10
I1
I0
tp430
bS'planet_tau'
p431
tp432
Rp433
F1.0
sg3
(g4
(S'S9'
p434
I0
I1
tp435
Rp436
(I3
S'|'
p437
NNNI9
I1
I0
tp438
bS'star1_FeH'
p439
tp440
Rp441
F0.0
sg3
(g4
(S'S8'
p442
I0
I1
tp443
Rp444
(I3
S'|'
p445
NNNI8
I1
I0
tp446
bS'star2_K1'
p447
tp448
Rp449
F11.3
sg3
(g4
(S'S17'
p450
I0
I1
tp451
Rp452
(I3
S'|'
p453
NNNI17
I1
I0
tp454
bS'hz_str_outcrit_wd'
p455
tp456
Rp457
S"'early mars'"
p458
sg3
(g4
(S'S14'
p459
I0
I1
tp460
Rp461
(I3
S'|'
p462
NNNI14
I1
I0
tp463
bS'interaction_nP'
p464
tp465
Rp466
F4.5
sg3
(g4
(S'S7'
p467
I0
I1
tp468
Rp469
(I3
S'|'
p470
NNNI7
I1
I0
tp471
bS'star1_n'
p472
tp473
Rp474
F1.5
sg3
(g4
(S'S8'
p475
I0
I1
tp476
Rp477
(I3
S'|'
p478
NNNI8
I1
I0
tp479
bS'planet_R'
p480
tp481
Rp482
F1.000001
sg3
(g4
(S'S13'
p483
I0
I1
tp484
Rp485
(I3
S'|'
p486
NNNI13
I1
I0
tp487
bS'star1_taudisk'
p488
tp489
Rp490
F0.002
sg3
(g4
(S'S11'
p491
I0
I1
tp492
Rp493
(I3
S'|'
p494
NNNI11
I1
I0
tp495
bS'planet_Prot'
p496
tp497
Rp498
F1.0
sg3
(g4
(S'S14'
p499
I0
I1
tp500
Rp501
(I3
S'|'
p502
NNNI14
I1
I0
tp503
bS'rotation_fdiss'
p504
tp505
Rp506
F1.0
sg3
(g4
(S'S9'
p507
I0
I1
tp508
Rp509
(I3
S'|'
p510
NNNI9
I1
I0
tp511
bS'star2_FeH'
p512
tp513
Rp514
F0.0
sg3
(g4
(S'S18'
p515
I0
I1
tp516
Rp517
(I3
S'|'
p518
NNNI18
I1
I0
tp519
bS'star1_str_rotmodel'
p520
tp521
Rp522
S'Chaboyer'
p523
sg3
(g4
(S'S15'
p524
I0
I1
tp525
Rp526
(I3
S'|'
p527
NNNI15
I1
I0
tp528
bS'rotation_tauint'
p529
tp530
Rp531
F2.0
sg3
(g4
(S'S7'
p532
I0
I1
tp533
Rp534
(I3
S'|'
p535
NNNI7
I1
I0
tp536
bS'star2_A'
p537
tp538
Rp539
F0.95
sg3
(g4
(S'S7'
p540
I0
I1
tp541
Rp542
(I3
S'|'
p543
NNNI7
I1
I0
tp544
bS'star2_Y'
p545
tp546
Rp547
F0.275556
sg3
(g4
(S'S7'
p548
I0
I1
tp549
Rp550
(I3
S'|'
p551
NNNI7
I1
I0
tp552
bS'star1_A'
p553
tp554
Rp555
F0.95
sg3
(g4
(S'S8'
p556
I0
I1
tp557
Rp558
(I3
S'|'
p559
NNNI8
I1
I0
tp560
bS'planet_M'
p561
tp562
Rp563
F1.000001
sg3
(g4
(S'S8'
p564
I0
I1
tp565
Rp566
(I3
S'|'
p567
NNNI8
I1
I0
tp568
bS'star1_Kc'
p569
tp570
Rp571
F5e+40
sg3
(g4
(S'S8'
p572
I0
I1
tp573
Rp574
(I3
S'|'
p575
NNNI8
I1
I0
tp576
bS'star1_Kw'
p577
tp578
Rp579
F4.7e+40
sg3
(g4
(S'S7'
p580
I0
I1
tp581
Rp582
(I3
S'|'
p583
NNNI7
I1
I0
tp584
bS'star2_n'
p585
tp586
Rp587
F1.5
sg3
(g4
(S'S17'
p588
I0
I1
tp589
Rp590
(I3
S'|'
p591
NNNI17
I1
I0
tp592
bS'interaction_muatm'
p593
tp594
Rp595
F44.0
sg3
(g4
(S'S7'
p596
I0
I1
tp597
Rp598
(I3
S'|'
p599
NNNI7
I1
I0
tp600
bS'star1_Z'
p601
tp602
Rp603
F0.0
sg3
(g4
(S'S7'
p604
I0
I1
tp605
Rp606
(I3
S'|'
p607
NNNI7
I1
I0
tp608
bS'star1_Y'
p609
tp610
Rp611
F0.275556
sg3
(g4
(S'S10'
p612
I0
I1
tp613
Rp614
(I3
S'|'
p615
NNNI10
I1
I0
tp616
bS'star1_tauc'
p617
tp618
Rp619
F5.0
sg3
(g4
(S'S7'
p620
I0
I1
tp621
Rp622
(I3
S'|'
p623
NNNI7
I1
I0
tp624
bS'star2_a'
p625
tp626
Rp627
F1.0
sg3
(g4
(S'S18'
p628
I0
I1
tp629
Rp630
(I3
S'|'
p631
NNNI18
I1
I0
tp632
bS'star2_str_rotmodel'
p633
tp634
Rp635
S'Chaboyer'
p636
sg3
(g4
(S'S10'
p637
I0
I1
tp638
Rp639
(I3
S'|'
p640
NNNI10
I1
I0
tp641
bS'star1_wsat'
p642
tp643
Rp644
F0.0
sg3
(g4
(S'S11'
p645
I0
I1
tp646
Rp647
(I3
S'|'
p648
NNNI11
I1
I0
tp649
bS'planet_fHHe'
p650
tp651
Rp652
F0.3
sg3
(g4
(S'S17'
p653
I0
I1
tp654
Rp655
(I3
S'|'
p656
NNNI17
I1
I0
tp657
bS'hz_str_outcrit_nr'
p658
tp659
Rp660
S"'maximum greenhouse'"
p661
sg3
(g4
(S'S17'
p662
I0
I1
tp663
Rp664
(I3
S'|'
p665
NNNI17
I1
I0
tp666
bS'interaction_alpha'
p667
tp668
Rp669
F0.3
sg3
(g4
(S'S7'
p670
I0
I1
tp671
Rp672
(I3
S'|'
p673
NNNI7
I1
I0
tp674
bS'star1_a'
p675
tp676
Rp677
F1.0
sg3
(g4
(S'S22'
p678
I0
I1
tp679
Rp680
(I3
S'|'
p681
NNNI22
I1
I0
tp682
bS'interaction_str_refobj'
p683
tp684
Rp685
S"'Earth'"
p686
sg3
(g4
(S'S16'
p687
I0
I1
tp688
Rp689
(I3
S'|'
p690
NNNI16
I1
I0
tp691
bS'interaction_Mmin'
p692
tp693
Rp694
F0.01
sg3
(g4
(S'S16'
p695
I0
I1
tp696
Rp697
(I3
S'|'
p698
NNNI16
I1
I0
tp699
bS'interaction_Mmax'
p700
tp701
Rp702
F10.0
sg3
(g4
(S'S9'
p703
I0
I1
tp704
Rp705
(I3
S'|'
p706
NNNI9
I1
I0
tp707
bS'star1_tau'
p708
tp709
Rp710
F1.0
sg3
(g4
(S'S18'
p711
I0
I1
tp712
Rp713
(I3
S'|'
p714
NNNI18
I1
I0
tp715
bS'interaction_tauref'
p716
tp717
Rp718
F2.0
sg3
(g4
(S'S14'
p719
I0
I1
tp720
Rp721
(I3
S'|'
p722
NNNI14
I1
I0
tp723
bS'interaction_nM'
p724
tp725
Rp726
F3.0
sg3
(g4
(S'S15'
p727
I0
I1
tp728
Rp729
(I3
S'|'
p730
NNNI15
I1
I0
tp731
bS'star2_str_model'
p732
tp733
Rp734
S'PARSEC'
p735
sg3
(g4
(S'S15'
p736
I0
I1
tp737
Rp738
(I3
S'|'
p739
NNNI15
I1
I0
tp740
bS'star1_str_model'
p741
tp742
Rp743
S'PARSEC'
p744
sg3
(g4
(S'S8'
p745
I0
I1
tp746
Rp747
(I3
S'|'
p748
NNNI8
I1
I0
tp749
bS'star2_Kc'
p750
tp751
Rp752
F5e+40
sg3
(g4
(S'S8'
p753
I0
I1
tp754
Rp755
(I3
S'|'
p756
NNNI8
I1
I0
tp757
bS'star2_Kw'
p758
tp759
Rp760
F4.7e+40
sg3
(g4
(S'S7'
p761
I0
I1
tp762
Rp763
(I3
S'|'
p764
NNNI7
I1
I0
tp765
bS'BHMCatP'
p766
tp767
Rp768
S'BHMCatPV1004'
p769
sg3
(g4
(S'S18'
p770
I0
I1
tp771
Rp772
(I3
S'|'
p773
NNNI18
I1
I0
tp774
bS'interaction_tauini'
p775
tp776
Rp777
F0.01
sg3
(g4
(S'S7'
p778
I0
I1
tp779
Rp780
(I3
S'|'
p781
NNNI7
I1
I0
tp782
bS'BHMCatS'
p783
tp784
Rp785
S'BHMCatS1004V'
p786
sg3
(g4
(S'S8'
p787
I0
I1
tp788
Rp789
(I3
S'|'
p790
NNNI8
I1
I0
tp791
bS'PlanetID'
p792
tp793
Rp794
S'NICHE-004h'
p795
sg3
(g4
(S'S10'
p796
I0
I1
tp797
Rp798
(I3
S'|'
p799
NNNI10
I1
I0
tp800
bS'star1_Pini'
p801
tp802
Rp803
F7.0
sg3
(g4
(S'S5'
p804
I0
I1
tp805
Rp806
(I3
S'|'
p807
NNNI5
I1
I0
tp808
bS'SysID'
p809
tp810
Rp811
S'NICHE-004'
p812
sg3
(g4
(S'S16'
p813
I0
I1
tp814
Rp815
(I3
S'|'
p816
NNNI16
I1
I0
tp817
bS'hz_str_incrit_wd'
p818
tp819
Rp820
S"'recent venus'"
p821
sg3
(g4
(S'S16'
p822
I0
I1
tp823
Rp824
(I3
S'|'
p825
NNNI16
I1
I0
tp826
bS'hz_str_incrit_nr'
p827
tp828
Rp829
S"'runaway greenhouse'"
p830
sg3
(g4
(S'S8'
p831
I0
I1
tp832
Rp833
(I3
S'|'
p834
NNNI8
I1
I0
tp835
bS'star1_K1'
p836
tp837
Rp838
F11.3
sg3
(g4
(S'S10'
p839
I0
I1
tp840
Rp841
(I3
S'|'
p842
NNNI10
I1
I0
tp843
bS'star2_wsat'
p844
tp845
Rp846
F0.0
sg3
(g4
(S'S9'
p847
I0
I1
tp848
Rp849
(I3
S'|'
p850
NNNI9
I1
I0
tp851
bS'star2_tau'
p852
tp853
Rp854
F1.0
sg3
(g4
(S'S10'
p855
I0
I1
tp856
Rp857
(I3
S'|'
p858
NNNI10
I1
I0
tp859
bS'star2_tauc'
p860
tp861
Rp862
F5.0
sg3
(g4
(S'S13'
p863
I0
I1
tp864
Rp865
(I3
S'|'
p866
NNNI13
I1
I0
tp867
bS'star2_taudisk'
p868
tp869
Rp870
F0.002
sg3
(g4
(S'S10'
p871
I0
I1
tp872
Rp873
(I3
S'|'
p874
NNNI10
I1
I0
tp875
bS'planet_CMF'
p876
tp877
Rp878
F0.3
sssg3
(g4
(S'S10'
p879
I0
I1
tp880
Rp881
(I3
S'|'
p882
NNNI10
I1
I0
tp883
bS'star1_logg'
p884
tp885
Rp886
F-2.0
sg3
(g4
(S'S11'
p887
I0
I1
tp888
Rp889
(I3
S'|'
p890
NNNI11
I1
I0
tp891
bS'star1_Protv'
p892
tp893
Rp894
F-1.0
sg3
(g4
(S'S10'
p895
I0
I1
tp896
Rp897
(I3
S'|'
p898
NNNI10
I1
I0
tp899
bS'binary_ADS'
p900
tp901
Rp902
S'2014arXiv1408.5163M;'
p903
sg3
(g4
(S'S7'
p904
I0
I1
tp905
Rp906
(I3
S'|'
p907
NNNI7
I1
I0
tp908
bS'star1_M'
p909
tp910
Rp911
F1.0
sg3
(g4
(S'S7'
p912
I0
I1
tp913
Rp914
(I3
S'|'
p915
NNNI7
I1
I0
tp916
bS'star1_R'
p917
tp918
Rp919
F-2.0
sg3
(g4
(S'S13'
p920
I0
I1
tp921
Rp922
(I3
S'|'
p923
NNNI13
I1
I0
tp924
bS'star1_Proterr'
p925
tp926
Rp927
F-2.0
sg3
(g4
(S'S7'
p928
I0
I1
tp929
Rp930
(I3
S'|'
p931
NNNI7
I1
I0
tp932
bS'star1_T'
p933
tp934
Rp935
F-2.0
sg3
(g4
(S'S11'
p936
I0
I1
tp937
Rp938
(I3
S'|'
p939
NNNI11
I1
I0
tp940
bS'binary_ibin'
p941
tp942
Rp943
F-2.0
sg3
(g4
(S'S10'
p944
I0
I1
tp945
Rp946
(I3
S'|'
p947
NNNI10
I1
I0
tp948
bS'star2_Prot'
p949
tp950
Rp951
F-2.0
sg3
(g4
(S'S11'
p952
I0
I1
tp953
Rp954
(I3
S'|'
p955
NNNI11
I1
I0
tp956
bS'binary_ebin'
p957
tp958
Rp959
F0.4
sg3
(g4
(S'S10'
p960
I0
I1
tp961
Rp962
(I3
S'|'
p963
NNNI10
I1
I0
tp964
bS'star1_Merr'
p965
tp966
Rp967
F0.0
sg3
(g4
(S'S11'
p968
I0
I1
tp969
Rp970
(I3
S'|'
p971
NNNI11
I1
I0
tp972
bS'binary_derr'
p973
tp974
Rp975
F-1.0
sg3
(g4
(S'S7'
p976
I0
I1
tp977
Rp978
(I3
S'|'
p979
NNNI7
I1
I0
tp980
bS'Planets'
p981
tp982
Rp983
S'BHMCatPV1004;'
p984
sg3
(g4
(S'S10'
p985
I0
I1
tp986
Rp987
(I3
S'|'
p988
NNNI10
I1
I0
tp989
bS'star2_Terr'
p990
tp991
Rp992
F-2.0
sg3
(g4
(S'S8'
p993
I0
I1
tp994
Rp995
(I3
S'|'
p996
NNNI8
I1
I0
tp997
bS'binary_q'
p998
tp999
Rp1000
F0.7
sg3
(g4
(S'S5'
p1001
I0
I1
tp1002
Rp1003
(I3
S'|'
p1004
NNNI5
I1
I0
tp1005
bS'Notes'
p1006
tp1007
Rp1008
S''
p1009
sg3
(g4
(S'S16'
p1010
I0
I1
tp1011
Rp1012
(I3
S'|'
p1013
NNNI16
I1
I0
tp1014
bS'star1_str_StarID'
p1015
tp1016
Rp1017
S'NICHE-004 A'
p1018
sg3
(g4
(S'S2'
p1019
I0
I1
tp1020
Rp1021
(I3
S'|'
p1022
NNNI2
I1
I0
tp1023
bS'RA'
p1024
tp1025
Rp1026
F-2.0
sg3
(g4
(S'S16'
p1027
I0
I1
tp1028
Rp1029
(I3
S'|'
p1030
NNNI16
I1
I0
tp1031
bS'binary_FeHfiterr'
p1032
tp1033
Rp1034
F-1.0
sg3
(g4
(S'S10'
p1035
I0
I1
tp1036
Rp1037
(I3
S'|'
p1038
NNNI10
I1
I0
tp1039
bS'star1_Prot'
p1040
tp1041
Rp1042
F-2.0
sg3
(g4
(S'S8'
p1043
I0
I1
tp1044
Rp1045
(I3
S'|'
p1046
NNNI8
I1
I0
tp1047
bS'binary_d'
p1048
tp1049
Rp1050
F-1.0
sg3
(g4
(S'S11'
p1051
I0
I1
tp1052
Rp1053
(I3
S'|'
p1054
NNNI11
I1
I0
tp1055
bS'binary_wbin'
p1056
tp1057
Rp1058
F-1.0
sg3
(g4
(S'S14'
p1059
I0
I1
tp1060
Rp1061
(I3
S'|'
p1062
NNNI14
I1
I0
tp1063
bS'star2_Protverr'
p1064
tp1065
Rp1066
F-1.0
sg3
(g4
(S'S11'
p1067
I0
I1
tp1068
Rp1069
(I3
S'|'
p1070
NNNI11
I1
I0
tp1071
bS'binary_abin'
p1072
tp1073
Rp1074
F0.142063877260615
sg3
(g4
(S'S11'
p1075
I0
I1
tp1076
Rp1077
(I3
S'|'
p1078
NNNI11
I1
I0
tp1079
bS'star2_Protv'
p1080
tp1081
Rp1082
F-1.0
sg3
(g4
(S'S8'
p1083
I0
I1
tp1084
Rp1085
(I3
S'|'
p1086
NNNI8
I1
I0
tp1087
bS'binary_V'
p1088
tp1089
Rp1090
F-2.0
sg3
(g4
(S'S7'
p1091
I0
I1
tp1092
Rp1093
(I3
S'|'
p1094
NNNI7
I1
I0
tp1095
bS'BHMCatS'
p1096
tp1097
Rp1098
g1
sg3
(g4
(S'S9'
p1099
I0
I1
tp1100
Rp1101
(I3
S'|'
p1102
NNNI9
I1
I0
tp1103
bS'binary_Lx'
p1104
tp1105
Rp1106
F-2.0
sg3
(g4
(S'S10'
p1107
I0
I1
tp1108
Rp1109
(I3
S'|'
p1110
NNNI10
I1
I0
tp1111
bS'star2_Merr'
p1112
tp1113
Rp1114
F0.0
sg3
(g4
(S'S14'
p1115
I0
I1
tp1116
Rp1117
(I3
S'|'
p1118
NNNI14
I1
I0
tp1119
bS'star1_vsinierr'
p1120
tp1121
Rp1122
F-2.0
sg3
(g4
(S'S5'
p1123
I0
I1
tp1124
Rp1125
(I3
S'|'
p1126
NNNI5
I1
I0
tp1127
bS'Nostr'
p1128
tp1129
Rp1130
S'1004'
p1131
sg3
(g4
(S'S13'
p1132
I0
I1
tp1133
Rp1134
(I3
S'|'
p1135
NNNI13
I1
I0
tp1136
bS'binary_FeHobs'
p1137
tp1138
Rp1139
F-1.0
sg3
(g4
(S'S13'
p1140
I0
I1
tp1141
Rp1142
(I3
S'|'
p1143
NNNI13
I1
I0
tp1144
bS'binary_taumin'
p1145
tp1146
Rp1147
F-2.0
sg3
(g4
(S'S11'
p1148
I0
I1
tp1149
Rp1150
(I3
S'|'
p1151
NNNI11
I1
I0
tp1152
bS'binary_Pbin'
p1153
tp1154
Rp1155
F15.0
sg3
(g4
(S'S11'
p1156
I0
I1
tp1157
Rp1158
(I3
S'|'
p1159
NNNI11
I1
I0
tp1160
bS'star1_vsini'
p1161
tp1162
Rp1163
F-2.0
sg3
(g4
(S'S11'
p1164
I0
I1
tp1165
Rp1166
(I3
S'|'
p1167
NNNI11
I1
I0
tp1168
bS'binary_Zobs'
p1169
tp1170
Rp1171
F-1.0
sg3
(g4
(S'S14'
p1172
I0
I1
tp1173
Rp1174
(I3
S'|'
p1175
NNNI14
I1
I0
tp1176
bS'star1_Protverr'
p1177
tp1178
Rp1179
F-1.0
sg3
(g4
(S'S11'
p1180
I0
I1
tp1181
Rp1182
(I3
S'|'
p1183
NNNI11
I1
I0
tp1184
bS'binary_dmod'
p1185
tp1186
Rp1187
F-1.0
sg3
(g4
(S'S10'
p1188
I0
I1
tp1189
Rp1190
(I3
S'|'
p1191
NNNI10
I1
I0
tp1192
bS'star1_Terr'
p1193
tp1194
Rp1195
F-2.0
ssS'BHMCatS0033P'
p1196
(dp1197
g12
F-1.0
sg20
S'V1143 Cyg B'
p1198
sg29
F-1.0
sg37
F3.0
sg45
I33
sg53
F6400.0
sg61
F0.016
sg69
F-1.0
sg77
F0.023
sg85
F1.323
sg93
F-1.0
sg101
F1.347
sg109
S'V1143 Cyg'
p1199
sg118
F-1.0
sg134
F54.973794444444444
sg142
S'P'
p1200
sg151
F0.016
sg159
F0.023
sg167
S'F5V'
p1201
sg169
(lp1202
(dp1203
g179
S'BHMCatPP0034'
p1204
sg188
F0.0
sg196
F0.0
sg204
S'BHMCatS0033P'
p1205
sg213
F0.0
sg221
S'34'
p1206
sg230
g231
sg239
F1.000001
sg247
S'0034'
p1207
sg256
F0.0
sg264
F0.0
sg272
S'V1143 Cyg'
p1208
sg281
F1.000001
sg289
F0.0
sg297
F1.0
sg305
F0.0
sg313
F0.0
sg321
F1.0
sg329
S'V1143 Cygh'
p1209
sg338
g339
sg347
F0.0
sasg355
S'F5V'
p1210
sg363
S'EkCat'
p1211
sg372
F4.324
sg380
F28.0
sg388
S'199'
p1212
sg390
(dp1213
S'BHMCatPP0034'
p1214
(dp1215
g401
F7.0
sg409
F0.0
sg417
F0.0
sg425
F0.0
sg433
F1.0
sg441
F0.0
sg449
F11.3
sg457
S"'early mars'"
p1216
sg466
F4.5
sg474
F1.5
sg482
F1.000001
sg490
F0.002
sg498
F1.0
sg506
F1.0
sg514
F0.0
sg522
S'Chaboyer'
p1217
sg531
F2.0
sg539
F0.95
sg547
F0.275556
sg555
F0.95
sg563
F1.000001
sg571
F5e+40
sg579
F4.7e+40
sg587
F1.5
sg595
F44.0
sg603
F0.0
sg611
F0.275556
sg619
F5.0
sg627
F1.0
sg635
S'Chaboyer'
p1218
sg644
F0.0
sg652
F0.3
sg660
S"'maximum greenhouse'"
p1219
sg669
F0.3
sg677
F1.0
sg685
S"'Saturn'"
p1220
sg694
F0.01
sg702
F10.0
sg710
F1.0
sg718
F2.0
sg726
F3.0
sg734
S'PARSEC'
p1221
sg743
S'PARSEC'
p1222
sg752
F5e+40
sg760
F4.7e+40
sg768
S'BHMCatPP0034'
p1223
sg777
F0.01
sg785
S'BHMCatS0033P'
p1224
sg794
S'V1143 Cygh'
p1225
sg803
F7.0
sg811
S'V1143 Cyg'
p1226
sg820
S"'recent venus'"
p1227
sg829
S"'runaway greenhouse'"
p1228
sg838
F11.3
sg846
F0.0
sg854
F1.0
sg862
F5.0
sg870
F0.002
sg878
F0.3
sssg886
F4.323
sg894
g3
(g121
S'\x05~\xd0\xef,7\x0e@'
p1229
tp1230
Rp1231
sg902
S'1987A&A...174..107A;'
p1232
sg911
F1.391
sg919
F1.346
sg927
F-1.0
sg935
F6460.0
sg943
F87.0
sg951
F-1.0
sg959
F0.54
sg967
F0.016
sg975
F2.0
sg983
S'BHMCatPP0034;'
p1233
sg992
F100.0
sg1000
F0.968368080517613
sg1008
g1009
sg1017
S'V1143 Cyg A'
p1234
sg1026
F19.644772222222223
sg1034
F-1.0
sg1042
F-1.0
sg1050
F38.0
sg1058
F-1.0
sg1066
g3
(g121
S'Su\xc7hh]\xd0?'
p1235
tp1236
Rp1237
sg1074
F0.106173536229947
sg1082
g3
(g121
S'\xe1\x08>z\xa4\x17\x03@'
p1238
tp1239
Rp1240
sg1090
F5.887
sg1098
g1196
sg1106
F-1.0
sg1114
F0.013
sg1122
F2.0
sg1130
S'0033'
p1241
sg1139
F-1.0
sg1147
F-1.0
sg1155
F7.64075217
sg1163
F18.0
sg1171
F-1.0
sg1179
g3
(g121
S'\x04p\x80*\xb6\xdb\xda?'
p1242
tp1243
Rp1244
sg1187
F-1.0
sg1195
F100.0
ssS'BHMCatS0034P'
p1245
(dp1246
g12
F-1.0
sg20
S'ASAS J085524-4411.3  B'
p1247
sg29
F-1.0
sg37
F-1.0
sg45
I34
sg53
F-1.0
sg61
F0.009
sg69
F-1.0
sg77
F0.02
sg85
F1.634
sg93
F-1.0
sg101
F1.056
sg109
S'ASAS J085524-4411.3'
p1248
sg118
F-1.0
sg134
F-43.81263055555556
sg142
g1200
sg151
F0.009
sg159
F0.016
sg167
S'F7'
p1249
sg169
(lp1250
(dp1251
g179
S'BHMCatPP0035'
p1252
sg188
F0.0
sg196
F0.0
sg204
S'BHMCatS0034P'
p1253
sg213
F0.0
sg221
S'35'
p1254
sg230
g231
sg239
F1.000001
sg247
S'0035'
p1255
sg256
F0.0
sg264
F0.0
sg272
S'ASAS J085524-4411.3'
p1256
sg281
F1.000001
sg289
F0.0
sg297
F1.0
sg305
F0.0
sg313
F0.0
sg321
F1.0
sg329
S'ASAS J085524-4411.3 h'
p1257
sg338
g339
sg347
F0.0
sasg355
g168
sg363
S'EkCat'
p1258
sg372
F4.03509043777324
sg380
F-1.0
sg388
S'95'
p1259
sg390
(dp1260
S'BHMCatPP0035'
p1261
(dp1262
g401
F7.0
sg409
F0.0
sg417
F0.0
sg425
F0.0
sg433
F1.0
sg441
F0.0
sg449
F11.3
sg457
S"'early mars'"
p1263
sg466
F4.5
sg474
F1.5
sg482
F1.000001
sg490
F0.002
sg498
F1.0
sg506
F1.0
sg514
F0.0
sg522
S'Chaboyer'
p1264
sg531
F2.0
sg539
F0.95
sg547
F0.275556
sg555
F0.95
sg563
F1.000001
sg571
F5e+40
sg579
F4.7e+40
sg587
F1.5
sg595
F44.0
sg603
F0.0
sg611
F0.275556
sg619
F5.0
sg627
F1.0
sg635
S'Chaboyer'
p1265
sg644
F0.0
sg652
F0.3
sg660
S"'maximum greenhouse'"
p1266
sg669
F0.3
sg677
F1.0
sg685
S"'Saturn'"
p1267
sg694
F0.01
sg702
F10.0
sg710
F1.0
sg718
F2.0
sg726
F3.0
sg734
S'PARSEC'
p1268
sg743
S'PARSEC'
p1269
sg752
F5e+40
sg760
F4.7e+40
sg768
S'BHMCatPP0035'
p1270
sg777
F0.01
sg785
S'BHMCatS0034P'
p1271
sg794
S'ASAS J085524-4411.3 h'
p1272
sg803
F7.0
sg811
S'ASAS J085524-4411.3'
p1273
sg820
S"'recent venus'"
p1274
sg829
S"'runaway greenhouse'"
p1275
sg838
F11.3
sg846
F0.0
sg854
F1.0
sg862
F5.0
sg870
F0.002
sg878
F0.3
sssg886
F3.97479165286237
sg894
F-1.0
sg902
S'2008AN....329..835B;'
p1276
sg911
F1.204
sg919
F1.87
sg927
F-1.0
sg935
F-1.0
sg943
F86.4
sg951
F-1.0
sg959
F0.0
sg967
F0.003
sg975
F27.0
sg983
S'BHMCatPP0035;'
p1277
sg992
F-1.0
sg1000
F0.877076411960133
sg1008
g1009
sg1017
S'ASAS J085524-4411.3  A'
p1278
sg1026
F8.923344444444444
sg1034
F-1.0
sg1042
F-1.0
sg1050
F271.0
sg1058
F-1.0
sg1066
F-1.0
sg1074
F0.094397164171123
sg1082
F-1.0
sg1090
F9.984
sg1098
g1245
sg1106
F-1.0
sg1114
F0.003
sg1122
F-1.0
sg1130
S'0034'
p1279
sg1139
F-1.0
sg1147
F-1.0
sg1155
F7.040274
sg1163
F-1.0
sg1171
F-1.0
sg1179
F-1.0
sg1187
F-1.0
sg1195
F-1.0
ssS'BHMCatS0008D'
p1280
(dp1281
g12
F-0.34
sg20
S'KIC-9632895 B'
p1282
sg29
F0.055
sg37
F-1.0
sg45
I8
sg53
F3309.0
sg61
F0.005
sg69
F-1.0
sg77
F0.011
sg85
F0.2143
sg93
F2.5
sg101
F0.1938
sg109
S'KIC-9632895'
p1283
sg118
g3
(g121
S'\t\xde\r\x1a\x9e\x07~?'
p1284
tp1285
Rp1286
sg134
F46.37846944444445
sg142
S'D'
p1287
sg151
F0.015
sg159
F0.0014
sg167
g168
sg169
(lp1288
(dp1289
g179
S'BHMCatPD0009'
p1290
sg188
F-317.9732761796323
sg196
F0.0379
sg204
S'BHMCatS008D'
p1291
sg213
F0.0088
sg221
S'9'
p1292
sg230
S'2014arXiv1409.1605W'
p1293
sg239
F6.165
sg247
S'0009'
p1294
sg256
F240.503
sg264
F0.0028
sg272
S'KIC-9632895'
p1295
sg281
F26.07380864672985
sg289
F-178.59
sg297
F0.7877
sg305
F0.053
sg313
F0.0
sg321
F1.1278
sg329
S'KIC-9632895b'
p1296
sg338
S'b'
p1297
sg347
F0.035
sasg355
g168
sg363
S'KIC'
p1298
sg372
F5.063
sg380
F-1.0
sg388
S'9632895'
p1299
sg390
(dp1300
S'BHMCatPD0009'
p1301
(dp1302
g401
F7.0
sg409
F0.0
sg417
F10.1
sg425
F0.0
sg433
F2.0
sg441
F-0.34
sg449
F11.3
sg457
S"'early mars'"
p1303
sg466
F4.5
sg474
F1.5
sg482
F6.165
sg490
F0.002
sg498
F1.0
sg506
F1.0
sg514
F-0.34
sg522
S'Chaboyer'
p1304
sg531
F2.0
sg539
F0.95
sg547
F0.275556
sg555
F0.95
sg563
F26.0738086467299
sg571
F5e+40
sg579
F4.7e+40
sg587
F1.5
sg595
F44.0
sg603
F0.0
sg611
F0.275556
sg619
F5.0
sg627
F1.0
sg635
S'Chaboyer'
p1305
sg644
F0.0
sg652
F0.3
sg660
S"'maximum greenhouse'"
p1306
sg669
F0.3
sg677
F1.0
sg685
S"'Saturn'"
p1307
sg694
F0.01
sg702
F10.0
sg710
F2.0
sg718
F2.0
sg726
F3.0
sg734
S'PARSEC'
p1308
sg743
S'PARSEC'
p1309
sg752
F1e+40
sg760
F4.7e+40
sg768
S'BHMCatPD0009'
p1310
sg777
F0.01
sg785
S'BHMCatS0008D'
p1311
sg794
S'KIC-9632895b'
p1312
sg803
F7.0
sg811
S'KIC-9632895'
p1313
sg820
S"'recent venus'"
p1314
sg829
S"'runaway greenhouse'"
p1315
sg838
F11.3
sg846
F0.0
sg854
F2.0
sg862
F5.0
sg870
F0.002
sg878
F0.3
sssg886
F4.803
sg894
g3
(g121
S'0\xde\x85\r\x9e,6@'
p1316
tp1317
Rp1318
sg902
S'2014arXiv1409.1605W;'
p1319
sg911
F0.934
sg919
F0.833
sg927
F0.47
sg935
F5527.0
sg943
F90.275
sg951
F-1.0
sg959
F0.05099
sg967
F0.01
sg975
F-1.0
sg983
S'BHMCatPD0009;'
p1320
sg992
F100.0
sg1000
F0.207494646680942
sg1008
g1009
sg1017
S'KIC-9632895 A'
p1321
sg1026
F18.882753333333334
sg1034
F-1.0
sg1042
F20.31
sg1050
F-1.0
sg1058
F262.86
sg1066
F-1.0
sg1074
F0.18749
sg1082
F-1.0
sg1090
F13.552
sg1098
g1280
sg1106
F-1.0
sg1114
F0.002
sg1122
F1.0
sg1130
S'0008'
p1322
sg1139
F-0.343
sg1147
F1.5
sg1155
F27.322037
sg1163
F1.9
sg1171
g3
(g121
S'R\xb3\x00z^\xd5}?'
p1323
tp1324
Rp1325
sg1179
g3
(g121
S"\xef\xce\xc2\x00cW'@"
p1326
tp1327
Rp1328
sg1187
g3
(g121
S'\x07\x92[\rg\xf9x@'
p1329
tp1330
Rp1331
sg1195
F100.0
ssS'BHMCatS0028P'
p1332
(dp1333
g12
F-1.0
sg20
S'TV Cet B'
p1334
sg29
F-1.0
sg37
F-1.0
sg45
I28
sg53
F6575.0
sg61
F0.019
sg69
F-1.0
sg77
F0.02
sg85
F1.21
sg93
F-1.0
sg101
F1.23
sg109
S'TV Cet'
p1335
sg118
F-1.0
sg134
F2.7545555555555556
sg142
g1200
sg151
F0.02
sg159
F0.01
sg167
S'F2V'
p1336
sg169
(lp1337
(dp1338
g179
S'BHMCatPP0029'
p1339
sg188
F0.0
sg196
F0.0
sg204
S'BHMCatS0028P'
p1340
sg213
F0.0
sg221
S'29'
p1341
sg230
g231
sg239
F1.000001
sg247
S'0029'
p1342
sg256
F0.0
sg264
F0.0
sg272
S'TV Cet'
p1343
sg281
F1.000001
sg289
F0.0
sg297
F1.0
sg305
F0.0
sg313
F0.0
sg321
F1.0
sg329
S'TV Ceth'
p1344
sg338
g339
sg347
F0.0
sasg355
S'F5V'
p1345
sg363
S'EkCat'
p1346
sg372
F4.362
sg380
F-1.0
sg388
S'27'
p1347
sg390
(dp1348
S'BHMCatPP0029'
p1349
(dp1350
g401
F7.0
sg409
F0.0
sg417
F0.0
sg425
F0.0
sg433
F1.0
sg441
F0.0
sg449
F11.3
sg457
S"'early mars'"
p1351
sg466
F4.5
sg474
F1.5
sg482
F1.000001
sg490
F0.002
sg498
F1.0
sg506
F1.0
sg514
F0.0
sg522
S'Chaboyer'
p1352
sg531
F2.0
sg539
F0.95
sg547
F0.275556
sg555
F0.95
sg563
F1.000001
sg571
F5e+40
sg579
F4.7e+40
sg587
F1.5
sg595
F44.0
sg603
F0.0
sg611
F0.275556
sg619
F5.0
sg627
F1.0
sg635
S'Chaboyer'
p1353
sg644
F0.0
sg652
F0.3
sg660
S"'maximum greenhouse'"
p1354
sg669
F0.3
sg677
F1.0
sg685
S"'Saturn'"
p1355
sg694
F0.01
sg702
F10.0
sg710
F1.0
sg718
F2.0
sg726
F3.0
sg734
S'PARSEC'
p1356
sg743
S'PARSEC'
p1357
sg752
F5e+40
sg760
F4.7e+40
sg768
S'BHMCatPP0029'
p1358
sg777
F0.01
sg785
S'BHMCatS0028P'
p1359
sg794
S'TV Ceth'
p1360
sg803
F7.0
sg811
S'TV Cet'
p1361
sg820
S"'recent venus'"
p1362
sg829
S"'runaway greenhouse'"
p1363
sg838
F11.3
sg846
F0.0
sg854
F1.0
sg862
F5.0
sg870
F0.002
sg878
F0.3
sssg886
F4.231
sg894
F-1.0
sg902
S'2010NewA...15..356B;'
p1364
sg911
F1.34
sg919
F1.47
sg927
F-1.0
sg935
F6902.0
sg943
F90.38
sg951
F-1.0
sg959
F0.04
sg967
F0.05
sg975
F6.0
sg983
S'BHMCatPP0029;'
p1365
sg992
F150.0
sg1000
F0.917910447761194
sg1008
g1009
sg1017
S'TV Cet A'
p1366
sg1026
F3.243475
sg1034
F-1.0
sg1042
F-1.0
sg1050
F144.0
sg1058
F-1.0
sg1066
F-1.0
sg1074
F0.11706551671123
sg1082
F-1.0
sg1090
F8.6
sg1098
g1332
sg1106
F-1.0
sg1114
F0.05
sg1122
F-1.0
sg1130
S'0028'
p1367
sg1139
F-1.0
sg1147
F-1.0
sg1155
F9.103291
sg1163
F-1.0
sg1171
F-1.0
sg1179
F-1.0
sg1187
F-1.0
sg1195
F150.0
ssS'BHMCatS0018P'
p1368
(dp1369
g12
F-1.0
sg20
S'LL Aqr B'
p1370
sg29
F-1.0
sg37
F-1.0
sg45
I18
sg53
F6200.0
sg61
F0.01
sg69
F-1.0
sg77
F0.02
sg85
F1.005
sg93
F-1.0
sg101
F1.056
sg109
S'LL Aqr'
p1371
sg118
F-1.0
sg134
F-2.4005083333333332
sg142
g1200
sg151
F0.009
sg159
F0.016
sg167
S'F3V'
p1372
sg169
(lp1373
(dp1374
g179
S'BHMCatPP0019'
p1375
sg188
F0.0
sg196
F0.0
sg204
S'BHMCatS0018P'
p1376
sg213
F0.0
sg221
S'19'
p1377
sg230
g231
sg239
F1.000001
sg247
S'0019'
p1378
sg256
F0.0
sg264
F0.0
sg272
S'LL Aqr'
p1379
sg281
F1.000001
sg289
F0.0
sg297
F1.0
sg305
F0.0
sg313
F0.0
sg321
F1.0
sg329
S'LL Aqrh'
p1380
sg338
g339
sg347
F0.0
sasg355
S'F6V'
p1381
sg363
S'EkCat'
p1382
sg372
F4.457
sg380
F-1.0
sg388
S'238'
p1383
sg390
(dp1384
S'BHMCatPP0019'
p1385
(dp1386
g401
F7.0
sg409
F0.0
sg417
F0.0
sg425
F0.0
sg433
F1.0
sg441
F0.0
sg449
F11.3
sg457
S"'early mars'"
p1387
sg466
F4.5
sg474
F1.5
sg482
F1.000001
sg490
F0.002
sg498
F1.0
sg506
F1.0
sg514
F0.0
sg522
S'Chaboyer'
p1388
sg531
F2.0
sg539
F0.95
sg547
F0.275556
sg555
F0.95
sg563
F1.000001
sg571
F5e+40
sg579
F4.7e+40
sg587
F1.5
sg595
F44.0
sg603
F0.0
sg611
F0.275556
sg619
F5.0
sg627
F1.0
sg635
S'Chaboyer'
p1389
sg644
F0.0
sg652
F0.3
sg660
S"'maximum greenhouse'"
p1390
sg669
F0.3
sg677
F1.0
sg685
S"'Saturn'"
p1391
sg694
F0.01
sg702
F10.0
sg710
F1.0
sg718
F2.0
sg726
F3.0
sg734
S'PARSEC'
p1392
sg743
S'PARSEC'
p1393
sg752
F5e+40
sg760
F4.7e+40
sg768
S'BHMCatPP0019'
p1394
sg777
F0.01
sg785
S'BHMCatS0018P'
p1395
sg794
S'LL Aqrh'
p1396
sg803
F7.0
sg811
S'LL Aqr'
p1397
sg820
S"'recent venus'"
p1398
sg829
S"'runaway greenhouse'"
p1399
sg838
F11.3
sg846
F0.0
sg854
F1.0
sg862
F5.0
sg870
F0.002
sg878
F0.3
sssg886
F4.281
sg894
F-1.0
sg902
S'2008MNRAS.390..958I;'
p1400
sg911
F1.223
sg919
F1.325
sg927
F-1.0
sg935
F6680.0
sg943
F89.51
sg951
F-1.0
sg959
F0.31
sg967
F0.058
sg975
F9.0
sg983
S'BHMCatPP0019;'
p1401
sg992
F160.0
sg1000
F0.863450531479967
sg1008
S'DEBCat'
p1402
sg1017
S'LL Aqr A'
p1403
sg1026
F22.578375
sg1034
F-1.0
sg1042
F-1.0
sg1050
F123.0
sg1058
F-1.0
sg1066
F-1.0
sg1074
F0.190982033823529
sg1082
F-1.0
sg1090
F9.317
sg1098
g1368
sg1106
F-1.0
sg1114
F0.051
sg1122
F-1.0
sg1130
S'0018'
p1404
sg1139
F-1.0
sg1147
F-1.0
sg1155
F20.178241
sg1163
F-1.0
sg1171
F-1.0
sg1179
F-1.0
sg1187
F-1.0
sg1195
F160.0
ssS'BHMCatS1003V'
p1405
(dp1406
g12
F0.0
sg20
S'NICHE-003 B'
p1407
sg29
F-2.0
sg37
F-2.0
sg45
I1003
sg53
F-2.0
sg61
F-2.0
sg69
F-2.0
sg77
F0.0
sg85
F-2.0
sg93
F-2.0
sg101
F1.0
sg109
S'NICHE-003'
p1408
sg118
g3
(g121
S'0\xa8\x1bgj\x94\x8f?'
p1409
tp1410
Rp1411
sg134
F-2.0
sg142
g143
sg151
F-2.0
sg159
F0.0
sg167
g168
sg169
(lp1412
(dp1413
g179
S'BHMCatPV1003'
p1414
sg188
F0.0
sg196
F0.0
sg204
S'BHMCatS1003V'
p1415
sg213
F0.0
sg221
S'1003'
p1416
sg230
g231
sg239
F1.000001
sg247
S'1003'
p1417
sg256
F0.0
sg264
F0.0
sg272
S'NICHE-003'
p1418
sg281
F1.000001
sg289
F0.0
sg297
F1.0
sg305
F0.0
sg313
F0.0
sg321
F1.0
sg329
S'NICHE-003h'
p1419
sg338
g339
sg347
F0.0
sasg355
g168
sg363
S'NICHE'
p1420
sg372
F-2.0
sg380
F-2.0
sg388
S'3'
p1421
sg390
(dp1422
S'BHMCatPV1003'
p1423
(dp1424
g401
F7.0
sg409
F0.0
sg417
F0.0
sg425
F0.0
sg433
F1.0
sg441
F0.0
sg449
F11.3
sg457
S"'early mars'"
p1425
sg466
F4.5
sg474
F1.5
sg482
F1.000001
sg490
F0.002
sg498
F1.0
sg506
F1.0
sg514
F0.0
sg522
S'Chaboyer'
p1426
sg531
F2.0
sg539
F0.95
sg547
F0.275556
sg555
F0.95
sg563
F1.000001
sg571
F5e+40
sg579
F4.7e+40
sg587
F1.5
sg595
F44.0
sg603
F0.0
sg611
F0.275556
sg619
F5.0
sg627
F1.0
sg635
S'Chaboyer'
p1427
sg644
F0.0
sg652
F0.3
sg660
S"'maximum greenhouse'"
p1428
sg669
F0.3
sg677
F1.0
sg685
S"'Earth'"
p1429
sg694
F0.01
sg702
F10.0
sg710
F1.0
sg718
F2.0
sg726
F3.0
sg734
S'PARSEC'
p1430
sg743
S'PARSEC'
p1431
sg752
F5e+40
sg760
F4.7e+40
sg768
S'BHMCatPV1003'
p1432
sg777
F0.01
sg785
S'BHMCatS1003V'
p1433
sg794
S'NICHE-003h'
p1434
sg803
F7.0
sg811
S'NICHE-003'
p1435
sg820
S"'recent venus'"
p1436
sg829
S"'runaway greenhouse'"
p1437
sg838
F11.3
sg846
F0.0
sg854
F1.0
sg862
F5.0
sg870
F0.002
sg878
F0.3
sssg886
F-2.0
sg894
F-1.0
sg902
S'2014arXiv1408.5163M;'
p1438
sg911
F1.0
sg919
F-2.0
sg927
F-2.0
sg935
F-2.0
sg943
F-2.0
sg951
F-2.0
sg959
F0.3
sg967
F0.0
sg975
F-1.0
sg983
S'BHMCatPV1003;'
p1439
sg992
F-2.0
sg1000
F1.0
sg1008
g1009
sg1017
S'NICHE-003 A'
p1440
sg1026
F-2.0
sg1034
F-1.0
sg1042
F-2.0
sg1050
F-1.0
sg1058
F-1.0
sg1066
F-1.0
sg1074
F0.288396405427895
sg1082
F-1.0
sg1090
F-2.0
sg1098
g1405
sg1106
F-2.0
sg1114
F0.0
sg1122
F-2.0
sg1130
S'1003'
p1441
sg1139
F-1.0
sg1147
F-2.0
sg1155
F40.0
sg1163
F-2.0
sg1171
F-1.0
sg1179
F-1.0
sg1187
F-1.0
sg1195
F-2.0
ssS'BHMCatS0024P'
p1442
(dp1443
g12
F-1.0
sg20
S'BF Dra B'
p1444
sg29
F-1.0
sg37
F1.8
sg45
I24
sg53
F6400.0
sg61
F0.005
sg69
F-1.0
sg77
F0.012
sg85
F1.922
sg93
F-1.0
sg101
F1.375
sg109
S'BF Dra'
p1445
sg118
F-1.0
sg134
F69.88263333333333
sg142
g1200
sg151
F0.005
sg159
F0.012
sg167
S'F6V'
p1446
sg169
(lp1447
(dp1448
g179
S'BHMCatPP0025'
p1449
sg188
F0.0
sg196
F0.0
sg204
S'BHMCatS0024P'
p1450
sg213
F0.0
sg221
S'25'
p1451
sg230
g231
sg239
F1.000001
sg247
S'0025'
p1452
sg256
F0.0
sg264
F0.0
sg272
S'BF Dra'
p1453
sg281
F1.000001
sg289
F0.0
sg297
F1.0
sg305
F0.0
sg313
F0.0
sg321
F1.0
sg329
S'BF Drah'
p1454
sg338
g339
sg347
F0.0
sasg355
S'F6V'
p1455
sg363
S'EkCat'
p1456
sg372
F4.008
sg380
F9.0
sg388
S'173'
p1457
sg390
(dp1458
S'BHMCatPP0025'
p1459
(dp1460
g401
F7.0
sg409
F0.0
sg417
F0.0
sg425
F0.0
sg433
F1.0
sg441
F0.0
sg449
F11.3
sg457
S"'early mars'"
p1461
sg466
F4.5
sg474
F1.5
sg482
F1.000001
sg490
F0.002
sg498
F1.0
sg506
F1.0
sg514
F0.0
sg522
S'Chaboyer'
p1462
sg531
F2.0
sg539
F0.95
sg547
F0.275556
sg555
F0.95
sg563
F1.000001
sg571
F5e+40
sg579
F4.7e+40
sg587
F1.5
sg595
F44.0
sg603
F0.0
sg611
F0.275556
sg619
F5.0
sg627
F1.0
sg635
S'Chaboyer'
p1463
sg644
F0.0
sg652
F0.3
sg660
S"'maximum greenhouse'"
p1464
sg669
F0.3
sg677
F1.0
sg685
S"'Saturn'"
p1465
sg694
F0.01
sg702
F10.0
sg710
F1.0
sg718
F2.0
sg726
F3.0
sg734
S'PARSEC'
p1466
sg743
S'PARSEC'
p1467
sg752
F5e+40
sg760
F4.7e+40
sg768
S'BHMCatPP0025'
p1468
sg777
F0.01
sg785
S'BHMCatS0024P'
p1469
sg794
S'BF Drah'
p1470
sg803
F7.0
sg811
S'BF Dra'
p1471
sg820
S"'recent venus'"
p1472
sg829
S"'runaway greenhouse'"
p1473
sg838
F11.3
sg846
F0.0
sg854
F1.0
sg862
F5.0
sg870
F0.002
sg878
F0.3
sssg886
F3.95
sg894
g3
(g121
S'\x8f\x91\xba\xea\xb8\x16$@'
p1474
tp1475
Rp1476
sg902
S'2012AJ....143..129S;'
p1477
sg911
F1.414
sg919
F2.086
sg927
F-1.0
sg935
F6360.0
sg943
F88.42
sg951
F-1.0
sg959
F0.387
sg967
F0.003
sg975
F27.0
sg983
S'BHMCatPP0025;'
p1478
sg992
F150.0
sg1000
F0.972418670438472
sg1008
g1009
sg1017
S'BF Dra A'
p1479
sg1026
F18.849819444444442
sg1034
F-1.0
sg1042
F-1.0
sg1050
F354.0
sg1058
F-1.0
sg1066
g3
(g121
S'\x95\x8e\xd4\xd7\x82F\x01@'
p1480
tp1481
Rp1482
sg1074
F0.0960728534759358
sg1082
g3
(g121
S';\xb2\xc9\x8d#\x98%@'
p1483
tp1484
Rp1485
sg1090
F9.77
sg1098
g1442
sg1106
F-1.0
sg1114
F0.003
sg1122
F1.8
sg1130
S'0024'
p1486
sg1139
F-1.0
sg1147
F-1.0
sg1155
F11.2110047
sg1163
F10.5
sg1171
F-1.0
sg1179
g3
(g121
S'HK\xdbW\xe0\x8c\xfb?'
p1487
tp1488
Rp1489
sg1187
F-1.0
sg1195
F150.0
ssS'BHMCatS0026P'
p1490
(dp1491
g12
F-1.0
sg20
S'RW Lac B'
p1492
sg29
F-1.0
sg37
F-1.0
sg45
I26
sg53
F5560.0
sg61
F0.004
sg69
F-1.0
sg77
F0.004
sg85
F0.964
sg93
F-1.0
sg101
F0.87
sg109
S'RW Lac'
p1493
sg118
F-1.0
sg134
F49.65765833333333
sg142
g1200
sg151
F0.003
sg159
F0.004
sg167
S'G5V'
p1494
sg169
(lp1495
(dp1496
g179
S'BHMCatPP0027'
p1497
sg188
F0.0
sg196
F0.0
sg204
S'BHMCatS0026P'
p1498
sg213
F0.0
sg221
S'27'
p1499
sg230
g231
sg239
F1.000001
sg247
S'0027'
p1500
sg256
F0.0
sg264
F0.0
sg272
S'RW Lac'
p1501
sg281
F1.000001
sg289
F0.0
sg297
F1.0
sg305
F0.0
sg313
F0.0
sg321
F1.0
sg329
S'RW Lach'
p1502
sg338
g339
sg347
F0.0
sasg355
S'G7V'
p1503
sg363
S'EkCat'
p1504
sg372
F4.409
sg380
F-1.0
sg388
S'239'
p1505
sg390
(dp1506
S'BHMCatPP0027'
p1507
(dp1508
g401
F7.0
sg409
F0.0
sg417
F0.0
sg425
F0.0
sg433
F1.0
sg441
F0.0
sg449
F11.3
sg457
S"'early mars'"
p1509
sg466
F4.5
sg474
F1.5
sg482
F1.000001
sg490
F0.002
sg498
F1.0
sg506
F1.0
sg514
F0.0
sg522
S'Chaboyer'
p1510
sg531
F2.0
sg539
F0.95
sg547
F0.275556
sg555
F0.95
sg563
F1.000001
sg571
F5e+40
sg579
F4.7e+40
sg587
F1.5
sg595
F44.0
sg603
F0.0
sg611
F0.275556
sg619
F5.0
sg627
F1.0
sg635
S'Chaboyer'
p1511
sg644
F0.0
sg652
F0.3
sg660
S"'maximum greenhouse'"
p1512
sg669
F0.3
sg677
F1.0
sg685
S"'Saturn'"
p1513
sg694
F0.01
sg702
F10.0
sg710
F1.0
sg718
F2.0
sg726
F3.0
sg734
S'PARSEC'
p1514
sg743
S'PARSEC'
p1515
sg752
F5e+40
sg760
F4.7e+40
sg768
S'BHMCatPP0027'
p1516
sg777
F0.01
sg785
S'BHMCatS0026P'
p1517
sg794
S'RW Lach'
p1518
sg803
F7.0
sg811
S'RW Lac'
p1519
sg820
S"'recent venus'"
p1520
sg829
S"'runaway greenhouse'"
p1521
sg838
F11.3
sg846
F0.0
sg854
F1.0
sg862
F5.0
sg870
F0.002
sg878
F0.3
sssg886
F4.257
sg894
g3
(g121
S'x\xc1G\x89\xde\xfd=@'
p1522
tp1523
Rp1524
sg902
S'2005AJ....130.2838L;'
p1525
sg911
F0.928
sg919
F1.186
sg927
F-1.0
sg935
F5760.0
sg943
F89.49
sg951
F-1.0
sg959
F0.01
sg967
F0.006
sg975
F10.0
sg983
S'BHMCatPP0027;'
p1526
sg992
F150.0
sg1000
F0.9375
sg1008
S'DEBCat'
p1527
sg1017
S'RW Lac A'
p1528
sg1026
F22.749194444444445
sg1034
F-1.0
sg1042
F-1.0
sg1050
F190.0
sg1058
F-1.0
sg1066
F-1.0
sg1074
F0.112550464973262
sg1082
F-1.0
sg1090
F10.789
sg1098
g1490
sg1106
F-1.0
sg1114
F0.004
sg1122
F2.0
sg1130
S'0026'
p1529
sg1139
F-1.0
sg1147
F-1.0
sg1155
F10.3692046
sg1163
F2.0
sg1171
F-1.0
sg1179
g3
(g121
S'x\xc1G\x89\xde\xfd=@'
p1530
tp1531
Rp1532
sg1187
F-1.0
sg1195
F100.0
ssS'BHMCatS0030P'
p1533
(dp1534
g12
F-1.0
sg20
S'2MASS J19071662+4639532  B'
p1535
sg29
F-1.0
sg37
F2.3
sg45
I30
sg53
F3700.0
sg61
F0.086
sg69
F-1.0
sg77
F0.043
sg85
F0.525
sg93
F-1.0
sg101
F0.523
sg109
S'2MASS J19071662+4639532'
p1536
sg118
F-1.0
sg134
F46.66478055555555
sg142
g1200
sg151
F0.059
sg159
F0.052
sg167
S'K5V'
p1537
sg169
(lp1538
(dp1539
g179
S'BHMCatPP0031'
p1540
sg188
F0.0
sg196
F0.0
sg204
S'BHMCatS0030P'
p1541
sg213
F0.0
sg221
S'31'
p1542
sg230
g231
sg239
F1.000001
sg247
S'0031'
p1543
sg256
F0.0
sg264
F0.0
sg272
S'2MASS J19071662+4639532'
p1544
sg281
F1.000001
sg289
F0.0
sg297
F1.0
sg305
F0.0
sg313
F0.0
sg321
F1.0
sg329
S'2MASS J19071662+4639532 h'
p1545
sg338
g339
sg347
F0.0
sasg355
S'M0V'
p1546
sg363
S'EkCat'
p1547
sg372
F4.718
sg380
F5.1
sg388
S'181'
p1548
sg390
(dp1549
S'BHMCatPP0031'
p1550
(dp1551
g401
F7.0
sg409
F0.0
sg417
F0.0
sg425
F0.0
sg433
F1.0
sg441
F0.0
sg449
F11.3
sg457
S"'early mars'"
p1552
sg466
F4.5
sg474
F1.5
sg482
F1.000001
sg490
F0.002
sg498
F1.0
sg506
F1.0
sg514
F0.0
sg522
S'Chaboyer'
p1553
sg531
F2.0
sg539
F0.95
sg547
F0.275556
sg555
F0.95
sg563
F1.000001
sg571
F5e+40
sg579
F4.7e+40
sg587
F1.5
sg595
F44.0
sg603
F0.0
sg611
F0.275556
sg619
F5.0
sg627
F1.0
sg635
S'Chaboyer'
p1554
sg644
F0.0
sg652
F0.3
sg660
S"'maximum greenhouse'"
p1555
sg669
F0.3
sg677
F1.0
sg685
S"'Saturn'"
p1556
sg694
F0.01
sg702
F10.0
sg710
F1.0
sg718
F2.0
sg726
F3.0
sg734
S'PARSEC'
p1557
sg743
S'PARSEC'
p1558
sg752
F5e+40
sg760
F4.7e+40
sg768
S'BHMCatPP0031'
p1559
sg777
F0.01
sg785
S'BHMCatS0030P'
p1560
sg794
S'2MASS J19071662+4639532 h'
p1561
sg803
F7.0
sg811
S'2MASS J19071662+4639532'
p1562
sg820
S"'recent venus'"
p1563
sg829
S"'runaway greenhouse'"
p1564
sg838
F11.3
sg846
F0.0
sg854
F1.0
sg862
F5.0
sg870
F0.002
sg878
F0.3
sssg886
F4.666
sg894
g3
(g121
S'\x06o\xaej\xbe\xe6\x16@'
p1565
tp1566
Rp1567
sg902
S'2008ApJ...687.1253D;'
p1568
sg911
F0.68
sg919
F0.634
sg927
F-1.0
sg935
F4150.0
sg943
F89.02
sg951
F-1.0
sg959
F0.0
sg967
F0.01
sg975
F20.0
sg983
S'BHMCatPP0031;'
p1569
sg992
F-1.0
sg1000
F0.769117647058823
sg1008
g1009
sg1017
S'2MASS J19071662+4639532  A'
p1570
sg1026
F19.121283333333334
sg1034
F-1.0
sg1042
F-1.0
sg1050
F230.0
sg1058
F-1.0
sg1066
g3
(g121
S'\xfe\xfa\xfe\t"\xc8\x02@'
p1571
tp1572
Rp1573
sg1074
F0.0862514522727273
sg1082
g3
(g121
S'~\xd3\xa5\x90\xc1\xd2\x14@'
p1574
tp1575
Rp1576
sg1090
F14.37
sg1098
g1533
sg1106
F-1.0
sg1114
F0.006
sg1122
F2.0
sg1130
S'0030'
p1577
sg1139
F-1.0
sg1147
F-1.0
sg1155
F8.429441
sg1163
F5.6
sg1171
F-1.0
sg1179
g3
(g121
S')\x06X\x95\xac[\x00@'
p1578
tp1579
Rp1580
sg1187
F-1.0
sg1195
F-1.0
ssS'BHMCatS0036P'
p1581
(dp1582
g12
F-1.0
sg20
S'FM Leo B'
p1583
sg29
F-1.0
sg37
F-1.0
sg45
I36
sg53
F6190.0
sg61
F0.028
sg69
F-1.0
sg77
F0.043
sg85
F1.511
sg93
F-1.0
sg101
F1.287
sg109
S'FM Leo'
p1584
sg118
F-1.0
sg134
F0.3480111111111111
sg142
g1200
sg151
F0.023
sg159
F0.049
sg167
S'F9V'
p1585
sg169
(lp1586
(dp1587
g179
S'BHMCatPP0037'
p1588
sg188
F0.0
sg196
F0.0
sg204
S'BHMCatS0036P'
p1589
sg213
F0.0
sg221
S'37'
p1590
sg230
g231
sg239
F1.000001
sg247
S'0037'
p1591
sg256
F0.0
sg264
F0.0
sg272
S'FM Leo'
p1592
sg281
F1.000001
sg289
F0.0
sg297
F1.0
sg305
F0.0
sg313
F0.0
sg321
F1.0
sg329
S'FM Leoh'
p1593
sg338
g339
sg347
F0.0
sasg355
S'F9V'
p1594
sg363
S'EkCat'
p1595
sg372
F4.189
sg380
F-1.0
sg388
S'114'
p1596
sg390
(dp1597
S'BHMCatPP0037'
p1598
(dp1599
g401
F7.0
sg409
F0.0
sg417
F0.0
sg425
F0.0
sg433
F1.0
sg441
F0.0
sg449
F11.3
sg457
S"'early mars'"
p1600
sg466
F4.5
sg474
F1.5
sg482
F1.000001
sg490
F0.002
sg498
F1.0
sg506
F1.0
sg514
F0.0
sg522
S'Chaboyer'
p1601
sg531
F2.0
sg539
F0.95
sg547
F0.275556
sg555
F0.95
sg563
F1.000001
sg571
F5e+40
sg579
F4.7e+40
sg587
F1.5
sg595
F44.0
sg603
F0.0
sg611
F0.275556
sg619
F5.0
sg627
F1.0
sg635
S'Chaboyer'
p1602
sg644
F0.0
sg652
F0.3
sg660
S"'maximum greenhouse'"
p1603
sg669
F0.3
sg677
F1.0
sg685
S"'Saturn'"
p1604
sg694
F0.01
sg702
F10.0
sg710
F1.0
sg718
F2.0
sg726
F3.0
sg734
S'PARSEC'
p1605
sg743
S'PARSEC'
p1606
sg752
F5e+40
sg760
F4.7e+40
sg768
S'BHMCatPP0037'
p1607
sg777
F0.01
sg785
S'BHMCatS0036P'
p1608
sg794
S'FM Leoh'
p1609
sg803
F7.0
sg811
S'FM Leo'
p1610
sg820
S"'recent venus'"
p1611
sg829
S"'runaway greenhouse'"
p1612
sg838
F11.3
sg846
F0.0
sg854
F1.0
sg862
F5.0
sg870
F0.002
sg878
F0.3
sssg886
F4.124
sg894
F-1.0
sg902
S'2010MNRAS.402.2424R;'
p1613
sg911
F1.318
sg919
F1.648
sg927
F-1.0
sg935
F6316.0
sg943
F87.98
sg951
F-1.0
sg959
F0.0
sg967
F0.007
sg975
F25.5
sg983
S'BHMCatPP0037;'
p1614
sg992
F211.0
sg1000
F0.976479514415781
sg1008
g1009
sg1017
S'FM Leo A'
p1615
sg1026
F11.212525
sg1034
F-1.0
sg1042
F-1.0
sg1050
F130.4
sg1058
F-1.0
sg1066
F-1.0
sg1074
F0.0960263065508021
sg1082
F-1.0
sg1090
F8.453
sg1098
g1581
sg1106
F-1.0
sg1114
F0.007
sg1122
F-1.0
sg1130
S'0036'
p1616
sg1139
F-1.0
sg1147
F-1.0
sg1155
F6.728606
sg1163
F-1.0
sg1171
F-1.0
sg1179
F-1.0
sg1187
F-1.0
sg1195
F240.0
ssS'FieldsPriority'
p1617
(dp1618
g12
I2
sg20
I1
sg29
I2
sg37
I4
sg45
I100
sg53
I3
sg61
I4
sg69
I4
sg77
I4
sg85
I3
sg93
I3
sg101
I1
sg109
I1
sg118
I2
sg134
I3
sg142
I100
sg151
I4
sg159
I4
sg167
I2
sg355
I2
sg363
I3
sg372
I3
sg380
I3
sg388
I3
sg886
I3
sg894
I3
sg902
I1
sg911
I1
sg919
I3
sg927
I4
sg935
I3
sg943
I2
sg951
I2
sg959
I1
sg967
I4
sg975
I4
sg983
I1
sg992
I4
sg1000
I100
sg1008
I100
sg1017
I1
sg1026
I3
sg1034
I4
sg1042
I2
sg1050
I2
sg1058
I4
sg1066
I4
sg1074
I1
sg1082
I3
sg1090
I2
sg1098
I1
sg1106
I3
sg1114
I4
sg1122
I4
sg1130
I1
sg1139
I2
sg1147
I3
sg1155
I1
sg1163
I3
sg1171
I2
sg1179
I4
sg1187
I2
sg1195
I4
ssS'BHMCatS1001V'
p1619
(dp1620
g12
F0.0
sg20
S'NICHE-001 B'
p1621
sg29
F-2.0
sg37
F-2.0
sg45
I1001
sg53
F-2.0
sg61
F-2.0
sg69
F-2.0
sg77
F0.0
sg85
F-2.0
sg93
F-2.0
sg101
F1.0
sg109
S'NICHE-001'
p1622
sg118
g3
(g121
S'0\xa8\x1bgj\x94\x8f?'
p1623
tp1624
Rp1625
sg134
F-2.0
sg142
g143
sg151
F-2.0
sg159
F0.0
sg167
g168
sg169
(lp1626
(dp1627
g179
S'BHMCatPV1001'
p1628
sg188
F0.0
sg196
F0.0
sg204
S'BHMCatS1001V'
p1629
sg213
F0.0
sg221
S'1001'
p1630
sg230
g231
sg239
F1.000001
sg247
S'1001'
p1631
sg256
F0.0
sg264
F0.0
sg272
S'NICHE-001'
p1632
sg281
F1.000001
sg289
F0.0
sg297
F1.0
sg305
F0.0
sg313
F0.0
sg321
F1.0
sg329
S'NICHE-001h'
p1633
sg338
g339
sg347
F0.0
sasg355
g168
sg363
S'NICHE'
p1634
sg372
F-2.0
sg380
F-2.0
sg388
S'1'
p1635
sg390
(dp1636
S'BHMCatPV1001'
p1637
(dp1638
g401
F7.0
sg409
F0.0
sg417
F0.0
sg425
F0.0
sg433
F1.0
sg441
F0.0
sg449
F11.3
sg457
S"'early mars'"
p1639
sg466
F4.5
sg474
F1.5
sg482
F1.000001
sg490
F0.002
sg498
F1.0
sg506
F1.0
sg514
F0.0
sg522
S'Chaboyer'
p1640
sg531
F2.0
sg539
F0.95
sg547
F0.275556
sg555
F0.95
sg563
F1.000001
sg571
F5e+40
sg579
F4.7e+40
sg587
F1.5
sg595
F44.0
sg603
F0.0
sg611
F0.275556
sg619
F5.0
sg627
F1.0
sg635
S'Chaboyer'
p1641
sg644
F0.0
sg652
F0.3
sg660
S"'maximum greenhouse'"
p1642
sg669
F0.3
sg677
F1.0
sg685
S"'Earth'"
p1643
sg694
F0.01
sg702
F10.0
sg710
F1.0
sg718
F2.0
sg726
F3.0
sg734
S'PARSEC'
p1644
sg743
S'PARSEC'
p1645
sg752
F5e+40
sg760
F4.7e+40
sg768
S'BHMCatPV1001'
p1646
sg777
F0.01
sg785
S'BHMCatS1001V'
p1647
sg794
S'NICHE-001h'
p1648
sg803
F7.0
sg811
S'NICHE-001'
p1649
sg820
S"'recent venus'"
p1650
sg829
S"'runaway greenhouse'"
p1651
sg838
F11.3
sg846
F0.0
sg854
F1.0
sg862
F5.0
sg870
F0.002
sg878
F0.3
sssg886
F-2.0
sg894
F-1.0
sg902
S'2014arXiv1408.5163M;'
p1652
sg911
F1.0
sg919
F-2.0
sg927
F-2.0
sg935
F-2.0
sg943
F-2.0
sg951
F-2.0
sg959
F0.1
sg967
F0.0
sg975
F-1.0
sg983
S'BHMCatPV1001;'
p1653
sg992
F-2.0
sg1000
F1.0
sg1008
g1009
sg1017
S'NICHE-001 A'
p1654
sg1026
F-2.0
sg1034
F-1.0
sg1042
F-2.0
sg1050
F-1.0
sg1058
F-1.0
sg1066
F-1.0
sg1074
F0.149972174389221
sg1082
F-1.0
sg1090
F-2.0
sg1098
g1619
sg1106
F-2.0
sg1114
F0.0
sg1122
F-2.0
sg1130
S'1001'
p1655
sg1139
F-1.0
sg1147
F-2.0
sg1155
F15.0
sg1163
F-2.0
sg1171
F-1.0
sg1179
F-1.0
sg1187
F-1.0
sg1195
F-2.0
ssS'BHMCatS0007D'
p1656
(dp1657
g12
F-0.2
sg20
S'Kepler-413 B'
p1658
sg29
F0.073
sg37
F-1.0
sg45
I7
sg53
F3460.0
sg61
F-1.0
sg69
F-1.0
sg77
F0.008
sg85
F0.484
sg93
F-1.0
sg101
F0.542
sg109
S'Kepler-413'
p1659
sg118
g3
(g121
S'\xff\x07\xf4,5d\x84?'
p1660
tp1661
Rp1662
sg134
F51.16246944444444
sg142
g1287
sg151
F-1.0
sg159
F0.02
sg167
S'K type'
p1663
sg169
(lp1664
(dp1665
g179
S'BHMCatPD0008'
p1666
sg188
F20.986236227855734
sg196
F0.1181
sg204
S'BHMCatS007D'
p1667
sg213
F0.002
sg221
S'8'
p1668
sg230
S'2014ApJ...784...14K'
p1669
sg239
F4.351686956521739
sg247
S'0008'
p1670
sg256
F66.262
sg264
F-1.0
sg272
S'Kepler-413'
p1671
sg281
F67.02876661866648
sg289
F-1.0
sg297
F0.3553
sg305
F-1.0
sg313
F0.0
sg321
F1.362
sg329
S'Kepler-413b'
p1672
sg338
g1297
sg347
F0.09874895620781668
sasg355
S'M type'
p1673
sg363
S'KIC'
p1674
sg372
F-1.0
sg380
F-1.0
sg388
S'12351927'
p1675
sg390
(dp1676
S'BHMCatPD0008'
p1677
(dp1678
g401
F7.0
sg409
F0.0
sg417
F0.0
sg425
F0.0
sg433
F1.0
sg441
F-0.2
sg449
F11.3
sg457
S"'early mars'"
p1679
sg466
F4.5
sg474
F1.5
sg482
F4.35168695652174
sg490
F0.002
sg498
F1.0
sg506
F1.0
sg514
F-0.2
sg522
S'Chaboyer'
p1680
sg531
F2.0
sg539
F0.95
sg547
F0.275556
sg555
F0.95
sg563
F67.0287666186665
sg571
F5e+40
sg579
F4.7e+40
sg587
F1.5
sg595
F44.0
sg603
F0.0
sg611
F0.275556
sg619
F5.0
sg627
F1.0
sg635
S'Chaboyer'
p1681
sg644
F0.0
sg652
F0.8
sg660
S"'maximum greenhouse'"
p1682
sg669
F0.3
sg677
F1.0
sg685
S"'Saturn'"
p1683
sg694
F0.01
sg702
F10.0
sg710
F1.0
sg718
F2.0
sg726
F3.0
sg734
S'PARSEC'
p1684
sg743
S'PARSEC'
p1685
sg752
F5e+40
sg760
F4.7e+40
sg768
S'BHMCatPD0008'
p1686
sg777
F0.01
sg785
S'BHMCatS0007D'
p1687
sg794
S'Kepler-413b'
p1688
sg803
F7.0
sg811
S'Kepler-413'
p1689
sg820
S"'recent venus'"
p1690
sg829
S"'runaway greenhouse'"
p1691
sg838
F11.3
sg846
F0.0
sg854
F1.0
sg862
F5.0
sg870
F0.002
sg878
F0.3
sssg886
F4.727
sg894
g3
(g121
S'j\xeb\xf4\xf1f]\x1f@'
p1692
tp1693
Rp1694
sg902
S'2014ApJ...784...14K;'
p1695
sg911
F0.82
sg919
F0.776
sg927
F0.15
sg935
F4700.0
sg943
F87.33
sg951
F-1.0
sg959
F0.0372
sg967
F0.015
sg975
F-1.0
sg983
S'BHMCatPD0008;'
p1696
sg992
F-1.0
sg1000
F0.660975609756098
sg1008
g1009
sg1017
S'Kepler-413 A'
p1697
sg1026
F19.234041666666666
sg1034
F-1.0
sg1042
F13.15
sg1050
F-1.0
sg1058
F279.54
sg1066
F-1.0
sg1074
F0.1015
sg1082
F-1.0
sg1090
F15.52
sg1098
g1656
sg1106
F-1.0
sg1114
F0.008
sg1122
F2.0
sg1130
S'0007'
p1698
sg1139
F-1.431
sg1147
F-1.0
sg1155
F10.116
sg1163
F5.0
sg1171
g3
(g121
S'\xa5"\xf8\xd1\xa4/F?'
p1699
tp1700
Rp1701
sg1179
g3
(g121
S'"\x89]\x8e\x85\x17\t@'
p1702
tp1703
Rp1704
sg1187
g3
(g121
S'R\xcf\x91\x8fZ\xc0\x82@'
p1705
tp1706
Rp1707
sg1195
F-1.0
ssS'BHMCatS0037P'
p1708
(dp1709
g12
F-1.0
sg20
S'BW Aqr B'
p1710
sg29
F-1.0
sg37
F0.8
sg45
I37
sg53
F6450.0
sg61
F0.022
sg69
F-1.0
sg77
F0.04
sg85
F1.79
sg93
F-1.0
sg101
F1.39
sg109
S'BW Aqr'
p1711
sg118
F-1.0
sg134
F-14.667716666666667
sg142
g1200
sg151
F0.019
sg159
F0.04
sg167
S'F7IV'
p1712
sg169
(lp1713
(dp1714
g179
S'BHMCatPP0038'
p1715
sg188
F0.0
sg196
F0.0
sg204
S'BHMCatS0037P'
p1716
sg213
F0.0
sg221
S'38'
p1717
sg230
g231
sg239
F1.000001
sg247
S'0038'
p1718
sg256
F0.0
sg264
F0.0
sg272
S'BW Aqr'
p1719
sg281
F1.000001
sg289
F0.0
sg297
F1.0
sg305
F0.0
sg313
F0.0
sg321
F1.0
sg329
S'BW Aqrh'
p1720
sg338
g339
sg347
F0.0
sasg355
S'F8IV'
p1721
sg363
S'EkCat'
p1722
sg372
F4.075
sg380
F13.5
sg388
S'236'
p1723
sg390
(dp1724
S'BHMCatPP0038'
p1725
(dp1726
g401
F7.0
sg409
F0.0
sg417
F0.0
sg425
F0.0
sg433
F1.0
sg441
F0.0
sg449
F11.3
sg457
S"'early mars'"
p1727
sg466
F4.5
sg474
F1.5
sg482
F1.000001
sg490
F0.002
sg498
F1.0
sg506
F1.0
sg514
F0.0
sg522
S'Chaboyer'
p1728
sg531
F2.0
sg539
F0.95
sg547
F0.275556
sg555
F0.95
sg563
F1.000001
sg571
F5e+40
sg579
F4.7e+40
sg587
F1.5
sg595
F44.0
sg603
F0.0
sg611
F0.275556
sg619
F5.0
sg627
F1.0
sg635
S'Chaboyer'
p1729
sg644
F0.0
sg652
F0.3
sg660
S"'maximum greenhouse'"
p1730
sg669
F0.3
sg677
F1.0
sg685
S"'Saturn'"
p1731
sg694
F0.01
sg702
F10.0
sg710
F1.0
sg718
F2.0
sg726
F3.0
sg734
S'PARSEC'
p1732
sg743
S'PARSEC'
p1733
sg752
F5e+40
sg760
F4.7e+40
sg768
S'BHMCatPP0038'
p1734
sg777
F0.01
sg785
S'BHMCatS0037P'
p1735
sg794
S'BW Aqrh'
p1736
sg803
F7.0
sg811
S'BW Aqr'
p1737
sg820
S"'recent venus'"
p1738
sg829
S"'runaway greenhouse'"
p1739
sg838
F11.3
sg846
F0.0
sg854
F1.0
sg862
F5.0
sg870
F0.002
sg878
F0.3
sssg886
F3.981
sg894
g3
(g121
S'\xae\xc6\x02\xb8\xb0\xb2%@'
p1740
tp1741
Rp1742
sg902
S'1991A&A...246..397C;'
p1743
sg911
F1.49
sg919
F2.06
sg927
F-1.0
sg935
F6350.0
sg943
F88.4
sg951
F-1.0
sg959
F0.178
sg967
F0.02
sg975
F15.0
sg983
S'BHMCatPP0038;'
p1744
sg992
F100.0
sg1000
F0.932885906040268
sg1008
g1009
sg1017
S'BW Aqr A'
p1745
sg1026
F22.387758333333334
sg1034
F-1.0
sg1042
F-1.0
sg1050
F420.0
sg1058
F-1.0
sg1066
g3
(g121
S'\xd5\xc4EG\xa0l\xd9?'
p1746
tp1747
Rp1748
sg1074
F0.0990984036096257
sg1082
g3
(g121
S'\x98\x95+\x0b\x91\xd0\x1a@'
p1749
tp1750
Rp1751
sg1090
F10.401
sg1098
g1708
sg1106
F-1.0
sg1114
F0.02
sg1122
F1.3
sg1130
S'0037'
p1752
sg1139
F-1.0
sg1147
F-1.0
sg1155
F6.719712
sg1163
F9.6
sg1171
F-1.0
sg1179
g3
(g121
S'=WX\xc7\x94\x81\xf7?'
p1753
tp1754
Rp1755
sg1187
F-1.0
sg1195
F100.0
ssS'BHMCatS0027P'
p1756
(dp1757
g12
F-1.0
sg20
S'HS Aur B'
p1758
sg29
F-1.0
sg37
F-1.0
sg45
I27
sg53
F5200.0
sg61
F0.03
sg69
F-1.0
sg77
F0.023
sg85
F0.874
sg93
F-1.0
sg101
F0.877
sg109
S'HS Aur'
p1759
sg118
F-1.0
sg134
F47.67337777777777
sg142
g1200
sg151
F0.02
sg159
F0.03
sg167
S'G8V'
p1760
sg169
(lp1761
(dp1762
g179
S'BHMCatPP0028'
p1763
sg188
F0.0
sg196
F0.0
sg204
S'BHMCatS0027P'
p1764
sg213
F0.0
sg221
S'28'
p1765
sg230
g231
sg239
F1.000001
sg247
S'0028'
p1766
sg256
F0.0
sg264
F0.0
sg272
S'HS Aur'
p1767
sg281
F1.000001
sg289
F0.0
sg297
F1.0
sg305
F0.0
sg313
F0.0
sg321
F1.0
sg329
S'HS Aurh'
p1768
sg338
g339
sg347
F0.0
sasg355
S'K0V'
p1769
sg363
S'EkCat'
p1770
sg372
F4.5
sg380
F-1.0
sg388
S'68'
p1771
sg390
(dp1772
S'BHMCatPP0028'
p1773
(dp1774
g401
F7.0
sg409
F0.0
sg417
F0.0
sg425
F0.0
sg433
F1.0
sg441
F0.0
sg449
F11.3
sg457
S"'early mars'"
p1775
sg466
F4.5
sg474
F1.5
sg482
F1.000001
sg490
F0.002
sg498
F1.0
sg506
F1.0
sg514
F0.0
sg522
S'Chaboyer'
p1776
sg531
F2.0
sg539
F0.95
sg547
F0.275556
sg555
F0.95
sg563
F1.000001
sg571
F5e+40
sg579
F4.7e+40
sg587
F1.5
sg595
F44.0
sg603
F0.0
sg611
F0.275556
sg619
F5.0
sg627
F1.0
sg635
S'Chaboyer'
p1777
sg644
F0.0
sg652
F0.3
sg660
S"'maximum greenhouse'"
p1778
sg669
F0.3
sg677
F1.0
sg685
S"'Saturn'"
p1779
sg694
F0.01
sg702
F10.0
sg710
F1.0
sg718
F2.0
sg726
F3.0
sg734
S'PARSEC'
p1780
sg743
S'PARSEC'
p1781
sg752
F5e+40
sg760
F4.7e+40
sg768
S'BHMCatPP0028'
p1782
sg777
F0.01
sg785
S'BHMCatS0027P'
p1783
sg794
S'HS Aurh'
p1784
sg803
F7.0
sg811
S'HS Aur'
p1785
sg820
S"'recent venus'"
p1786
sg829
S"'runaway greenhouse'"
p1787
sg838
F11.3
sg846
F0.0
sg854
F1.0
sg862
F5.0
sg870
F0.002
sg878
F0.3
sssg886
F4.39
sg894
F-1.0
sg902
S'1986AJ.....91..383P;'
p1788
sg911
F0.898
sg919
F1.005
sg927
F-1.0
sg935
F5350.0
sg943
F90.0
sg951
F-1.0
sg959
F0.0
sg967
F0.019
sg975
F5.0
sg983
S'BHMCatPP0028;'
p1789
sg992
F72.0
sg1000
F0.976614699331848
sg1008
S'DEBCat'
p1790
sg1017
S'HS Aur A'
p1791
sg1026
F6.855130555555555
sg1034
F-1.0
sg1042
F-1.0
sg1050
F130.0
sg1058
F-1.0
sg1066
F-1.0
sg1074
F0.108780164037433
sg1082
F-1.0
sg1090
F10.036
sg1098
g1756
sg1106
F-1.0
sg1114
F0.017
sg1122
F-1.0
sg1130
S'0027'
p1792
sg1139
F-1.0
sg1147
F-1.0
sg1155
F9.815377
sg1163
F-1.0
sg1171
F-1.0
sg1179
F-1.0
sg1187
F-1.0
sg1195
F70.0
ssS'BHMCatS0035P'
p1793
(dp1794
g12
F-1.0
sg20
S'EW Ori B'
p1795
sg29
F-1.0
sg37
F0.6
sg45
I35
sg53
F5900.0
sg61
F0.005
sg69
F-1.0
sg77
F0.005
sg85
F1.097
sg93
F-1.0
sg101
F1.123
sg109
S'EW Ori'
p1796
sg118
F-1.0
sg134
F2.044436111111111
sg142
g1200
sg151
F0.005
sg159
F0.005
sg167
S'G0V'
p1797
sg169
(lp1798
(dp1799
g179
S'BHMCatPP0036'
p1800
sg188
F0.0
sg196
F0.0
sg204
S'BHMCatS0035P'
p1801
sg213
F0.0
sg221
S'36'
p1802
sg230
g231
sg239
F1.000001
sg247
S'0036'
p1803
sg256
F0.0
sg264
F0.0
sg272
S'EW Ori'
p1804
sg281
F1.000001
sg289
F0.0
sg297
F1.0
sg305
F0.0
sg313
F0.0
sg321
F1.0
sg329
S'EW Orih'
p1805
sg338
g339
sg347
F0.0
sasg355
S'G5V'
p1806
sg363
S'EkCat'
p1807
sg372
F4.408
sg380
F8.8
sg388
S'49'
p1808
sg390
(dp1809
S'BHMCatPP0036'
p1810
(dp1811
g401
F7.0
sg409
F0.0
sg417
F0.0
sg425
F0.0
sg433
F1.0
sg441
F0.0
sg449
F11.3
sg457
S"'early mars'"
p1812
sg466
F4.5
sg474
F1.5
sg482
F1.000001
sg490
F0.002
sg498
F1.0
sg506
F1.0
sg514
F0.0
sg522
S'Chaboyer'
p1813
sg531
F2.0
sg539
F0.95
sg547
F0.275556
sg555
F0.95
sg563
F1.000001
sg571
F5e+40
sg579
F4.7e+40
sg587
F1.5
sg595
F44.0
sg603
F0.0
sg611
F0.275556
sg619
F5.0
sg627
F1.0
sg635
S'Chaboyer'
p1814
sg644
F0.0
sg652
F0.3
sg660
S"'maximum greenhouse'"
p1815
sg669
F0.3
sg677
F1.0
sg685
S"'Saturn'"
p1816
sg694
F0.01
sg702
F10.0
sg710
F1.0
sg718
F2.0
sg726
F3.0
sg734
S'PARSEC'
p1817
sg743
S'PARSEC'
p1818
sg752
F5e+40
sg760
F4.7e+40
sg768
S'BHMCatPP0036'
p1819
sg777
F0.01
sg785
S'BHMCatS0035P'
p1820
sg794
S'EW Orih'
p1821
sg803
F7.0
sg811
S'EW Ori'
p1822
sg820
S"'recent venus'"
p1823
sg829
S"'runaway greenhouse'"
p1824
sg838
F11.3
sg846
F0.0
sg854
F1.0
sg862
F5.0
sg870
F0.002
sg878
F0.3
sssg886
F4.372
sg894
g3
(g121
S'\x8b\x8aRZpA\x1a@'
p1825
tp1826
Rp1827
sg902
S'2010A&A...511A..22C;'
p1828
sg911
F1.173
sg919
F1.168
sg927
F-1.0
sg935
F6070.0
sg943
F89.86
sg951
F-1.0
sg959
F0.076
sg967
F0.011
sg975
F7.0
sg983
S'BHMCatPP0036;'
p1829
sg992
F95.0
sg1000
F0.957374254049446
sg1008
g1009
sg1017
S'EW Ori A'
p1830
sg1026
F5.335875
sg1034
F-1.0
sg1042
F-1.0
sg1050
F175.0
sg1058
F-1.0
sg1066
g3
(g121
S'\x83^\x7f\x88E\x83\xdb?'
p1831
tp1832
Rp1833
sg1074
F0.0939316949197861
sg1082
g3
(g121
S'N\xc1t\x12U8\x19@'
p1834
tp1835
Rp1836
sg1090
F9.795
sg1098
g1793
sg1106
F-1.0
sg1114
F0.009
sg1122
F0.7
sg1130
S'0035'
p1837
sg1139
F-1.0
sg1147
F-1.0
sg1155
F6.93684324
sg1163
F9.0
sg1171
F-1.0
sg1179
g3
(g121
S'4V\xd8\x87:V\xe0?'
p1838
tp1839
Rp1840
sg1187
F-1.0
sg1195
F95.0
ssS'BHMCatS0001D'
p1841
(dp1842
g12
F-0.3
sg20
S'Kepler-16 B'
p1843
sg29
F0.012
sg37
F-1.0
sg45
I1
sg53
F-1.0
sg61
F0.0016
sg69
F-1.0
sg77
F0.001
sg85
F0.226
sg93
F4.0
sg101
F0.203
sg109
S'Kepler-16'
p1844
sg118
g3
(g121
S'\xe7C\xb1\xc2\x0bc\x80?'
p1845
tp1846
Rp1847
sg134
F51.75743888888889
sg142
g1287
sg151
F0.0017
sg159
F0.001
sg167
S'K type'
p1848
sg169
(lp1849
(dp1850
g179
S'BHMCatPD0001'
p1851
sg188
F5.087572418874117
sg196
F0.0069
sg204
S'BHMCatS001D'
p1852
sg213
F0.001
sg221
g1635
sg230
S'2012Natur.481..475W;2012yCatp038048101W'
p1853
sg239
F8.458745816983205
sg247
S'0001'
p1854
sg256
F228.776
sg264
F0.0011
sg272
S'Kepler-16'
p1855
sg281
F105.88510096781756
sg289
F-1.0
sg297
F0.7048
sg305
F0.028
sg313
F0.0
sg321
F0.893
sg329
S'Kepler-16b'
p1856
sg338
g1297
sg347
F0.02749260712603987
sasg355
S'M type'
p1857
sg363
S'KIC'
p1858
sg372
F5.0358
sg380
F-1.0
sg388
S'12644769'
p1859
sg390
(dp1860
S'BHMCatPD0001'
p1861
(dp1862
g401
F7.0
sg409
F0.0
sg417
F0.0
sg425
F0.0
sg433
F3.0
sg441
F-0.3
sg449
F11.3
sg457
S"'early mars'"
p1863
sg466
F4.5
sg474
F1.5
sg482
F8.45874581698321
sg490
F0.002
sg498
F1.0
sg506
F1.0
sg514
F-0.3
sg522
S'Chaboyer'
p1864
sg531
F2.0
sg539
F0.95
sg547
F0.275556
sg555
F0.95
sg563
F105.885100967818
sg571
F5e+40
sg579
F4.7e+40
sg587
F1.5
sg595
F44.0
sg603
F0.0
sg611
F0.275556
sg619
F5.0
sg627
F1.0
sg635
S'Chaboyer'
p1865
sg644
F0.0
sg652
F0.52
sg660
S"'maximum greenhouse'"
p1866
sg669
F0.3
sg677
F1.0
sg685
S"'Saturn'"
p1867
sg694
F0.01
sg702
F10.0
sg710
F3.0
sg718
F2.0
sg726
F3.0
sg734
S'PARSEC'
p1868
sg743
S'PARSEC'
p1869
sg752
F1e+40
sg760
F4.7e+40
sg768
S'BHMCatPD0001'
p1870
sg777
F0.01
sg785
S'BHMCatS0001D'
p1871
sg794
S'Kepler-16b'
p1872
sg803
F7.0
sg811
S'Kepler-16'
p1873
sg820
S"'recent venus'"
p1874
sg829
S"'runaway greenhouse'"
p1875
sg838
F11.3
sg846
F0.0
sg854
F3.0
sg862
F5.0
sg870
F0.002
sg878
F0.3
sssg886
F4.479
sg894
g3
(g121
S'\xa1\xffg\xf2\xe8\xd6A@'
p1876
tp1877
Rp1878
sg902
S'2011Sci...333.1602D; 2011ApJ...741L...1W;'
p1879
sg911
F0.69
sg919
F0.649
sg927
F1.0
sg935
F4337.0
sg943
F90.3401
sg951
F-1.0
sg959
F0.1594
sg967
F0.004
sg975
F-1.0
sg983
S'BHMCatPD0001;'
p1880
sg992
F-1.0
sg1000
F0.294202898550725
sg1008
g1009
sg1017
S'Kepler-16 A'
p1881
sg1026
F19.27171388888889
sg1034
F0.2
sg1042
F35.1
sg1050
F-1.0
sg1058
F263.464
sg1066
F-1.0
sg1074
F0.2243
sg1082
F-1.0
sg1090
F11.762
sg1098
g1841
sg1106
F-1.0
sg1114
F0.001
sg1122
F0.025
sg1130
S'0001'
p1882
sg1139
F-0.2
sg1147
F2.0
sg1155
F41.079
sg1163
F0.92
sg1171
g3
(g121
S'\xff\x07\xf4,5d\x84?'
p1883
tp1884
Rp1885
sg1179
g3
(g121
S'#B\xd6\xbbs\x06\xef?'
p1886
tp1887
Rp1888
sg1187
F-1.0
sg1195
F80.0
ssS'PlanetFields'
p1889
(lp1890
g221
ag247
ag338
ag179
ag204
ag272
ag329
ag281
ag188
ag239
ag347
ag321
ag297
ag264
ag256
ag305
ag196
ag213
ag289
ag313
ag230
asS'BHMCatS0005D'
p1891
(dp1892
g12
F-0.25
sg20
S'Kepler-47 B'
p1893
sg29
F0.126
sg37
F-1.0
sg45
I5
sg53
F3357.0
sg61
F-1.0
sg69
F-1.0
sg77
F0.017
sg85
F0.35
sg93
F5.0
sg101
F0.362
sg109
S'Kepler-47'
p1894
sg118
g3
(g121
S'\x17\xc4\xeb\x8f\x9cG\x82?'
p1895
tp1896
Rp1897
sg134
F46.92046666666666
sg142
g1287
sg151
F0.05
sg159
F0.006
sg167
g168
sg169
(lp1898
(dp1899
g179
S'BHMCatPD0005'
p1900
sg188
F0.0
sg196
F0.035
sg204
S'BHMCatS005D'
p1901
sg213
F-1.0
sg221
S'5'
p1902
sg230
S'2013ApJ...768..127S;2013ApJ...770...52K'
p1903
sg239
F3.029797520012557
sg247
S'0005'
p1904
sg256
F49.514
sg264
F0.0047
sg272
S'Kepler-47'
p1905
sg281
F7.631358628311175
sg289
F-1.0
sg297
F0.2956
sg305
F0.04
sg313
F0.0
sg321
F1.405
sg329
S'Kepler-47b'
p1906
sg338
g1297
sg347
F0.12343619525977083
sa(dp1907
g179
S'BHMCatPD0006'
p1908
sg188
F0.0
sg196
F0.09
sg204
S'BHMCatS005D'
p1909
sg213
F-1.0
sg221
S'6'
p1910
sg230
S'2014ApJ...784...14K'
p1911
sg239
F4.600803641500549
sg247
S'0006'
p1912
sg256
F303.158
sg264
F0.016
sg272
S'Kepler-47'
p1913
sg281
F28.617594856166907
sg289
F-1.0
sg297
F0.989
sg305
F0.072
sg313
F0.0
sg321
F1.405
sg329
S'Kepler-47c'
p1914
sg338
S'c'
p1915
sg347
F0.20198650133417043
sasg355
g168
sg363
S'KIC'
p1916
sg372
F-1.0
sg380
F-1.0
sg388
S'10020423'
p1917
sg390
(dp1918
S'BHMCatPD0005'
p1919
(dp1920
g401
F7.0
sg409
F0.0
sg417
F5.53
sg425
F0.0
sg433
F3.0
sg441
F-0.25
sg449
F11.3
sg457
S"'early mars'"
p1921
sg466
F4.5
sg474
F1.5
sg482
F3.02979752001256
sg490
F0.002
sg498
F1.0
sg506
F1.0
sg514
F-0.25
sg522
S'Chaboyer'
p1922
sg531
F2.0
sg539
F0.95
sg547
F0.275556
sg555
F0.95
sg563
F7.63135862831118
sg571
F5e+40
sg579
F4.7e+40
sg587
F1.5
sg595
F44.0
sg603
F0.0
sg611
F0.275556
sg619
F5.0
sg627
F1.0
sg635
S'Chaboyer'
p1923
sg644
F0.0
sg652
F0.8
sg660
S"'maximum greenhouse'"
p1924
sg669
F0.3
sg677
F1.0
sg685
S"'Saturn'"
p1925
sg694
F0.01
sg702
F10.0
sg710
F3.0
sg718
F2.0
sg726
F3.0
sg734
S'PARSEC'
p1926
sg743
S'PARSEC'
p1927
sg752
F1e+40
sg760
F4.7e+40
sg768
S'BHMCatPD0005'
p1928
sg777
F0.01
sg785
S'BHMCatS0005D'
p1929
sg794
S'Kepler-47b'
p1930
sg803
F7.0
sg811
S'Kepler-47'
p1931
sg820
S"'recent venus'"
p1932
sg829
S"'runaway greenhouse'"
p1933
sg838
F11.3
sg846
F0.0
sg854
F3.0
sg862
F5.0
sg870
F0.002
sg878
F0.3
ssS'BHMCatPD0006'
p1934
(dp1935
g401
F7.0
sg409
F0.0
sg417
F5.53
sg425
F0.0
sg433
F3.0
sg441
F-0.25
sg449
F11.3
sg457
g1921
sg466
F4.5
sg474
F1.5
sg482
F4.60080364150055
sg490
F0.002
sg498
F1.0
sg506
F1.0
sg514
F-0.25
sg522
g1922
sg531
F2.0
sg539
F0.95
sg547
F0.275556
sg555
F0.95
sg563
F28.6175948561669
sg571
F5e+40
sg579
F4.7e+40
sg587
F1.5
sg595
F44.0
sg603
F0.0
sg611
F0.275556
sg619
F5.0
sg627
F1.0
sg635
g1923
sg644
F0.0
sg652
F0.12
sg660
g1924
sg669
F0.3
sg677
F1.0
sg685
S"'Saturn'"
p1936
sg694
F0.01
sg702
F10.0
sg710
F3.0
sg718
F2.0
sg726
F3.0
sg734
g1926
sg743
g1927
sg752
F1e+40
sg760
F4.7e+40
sg768
S'BHMCatPD0006'
p1937
sg777
F0.01
sg785
g1929
sg794
S'Kepler-47c'
p1938
sg803
F7.0
sg811
g1931
sg820
g1932
sg829
g1933
sg838
F11.3
sg846
F0.0
sg854
F3.0
sg862
F5.0
sg870
F0.002
sg878
F0.3
sssg886
F4.588
sg894
g3
(g121
S"\xca<\xdd\xec\xa2\xc8'@"
p1939
tp1940
Rp1941
sg902
S'2012Sci...337.1511O;'
p1942
sg911
F1.043
sg919
F0.964
sg927
F0.022
sg935
F5636.0
sg943
F89.69
sg951
F-1.0
sg959
F0.0234
sg967
F0.055
sg975
F-1.0
sg983
S'BHMCatPD0005;BHMCatPD0006;'
p1943
sg992
F100.0
sg1000
F0.347075743048897
sg1008
g1009
sg1017
S'Kepler-47 A'
p1944
sg1026
F19.686527777777776
sg1034
F-1.0
sg1042
F7.775
sg1050
F-1.0
sg1058
F212.3
sg1066
F-1.0
sg1074
F0.0836
sg1082
F-1.0
sg1090
F15.178
sg1098
g1891
sg1106
F-1.0
sg1114
F0.013
sg1122
F0.5
sg1130
S'0005'
p1945
sg1139
F-0.252
sg1147
F1.0
sg1155
F7.448
sg1163
F4.1
sg1171
g3
(g121
S'\xf5aR\xa613\x82?'
p1946
tp1947
Rp1948
sg1179
g3
(g121
S'\x87Z\xcb\x12"4\xf7?'
p1949
tp1950
Rp1951
sg1187
g3
(g121
S'\xb6Y6\x15\x84!\x90@'
p1952
tp1953
Rp1954
sg1195
F100.0
ssS'BHMCatS1011V'
p1955
(dp1956
g12
F0.0
sg20
S'NICHE-011 B'
p1957
sg29
F-2.0
sg37
F-2.0
sg45
I1011
sg53
F-2.0
sg61
F-2.0
sg69
F-2.0
sg77
F0.0
sg85
F-2.0
sg93
F-2.0
sg101
F0.55
sg109
S'NICHE-011'
p1958
sg118
g3
(g121
S'0\xa8\x1bgj\x94\x8f?'
p1959
tp1960
Rp1961
sg134
F-2.0
sg142
g143
sg151
F-2.0
sg159
F0.0
sg167
g168
sg169
(lp1962
(dp1963
g179
S'BHMCatPV1011'
p1964
sg188
F0.0
sg196
F0.0
sg204
S'BHMCatS1011V'
p1965
sg213
F0.0
sg221
S'1011'
p1966
sg230
g231
sg239
F1.000001
sg247
S'1011'
p1967
sg256
F0.0
sg264
F0.0
sg272
S'NICHE-011'
p1968
sg281
F1.000001
sg289
F0.0
sg297
F1.0
sg305
F0.0
sg313
F0.0
sg321
F1.0
sg329
S'NICHE-011h'
p1969
sg338
g339
sg347
F0.0
sasg355
g168
sg363
S'NICHE'
p1970
sg372
F-2.0
sg380
F-2.0
sg388
S'11'
p1971
sg390
(dp1972
S'BHMCatPV1011'
p1973
(dp1974
g401
F7.0
sg409
F0.0
sg417
F0.0
sg425
F0.0
sg433
F1.0
sg441
F0.0
sg449
F11.3
sg457
S"'early mars'"
p1975
sg466
F4.5
sg474
F1.5
sg482
F1.000001
sg490
F0.002
sg498
F1.0
sg506
F1.0
sg514
F0.0
sg522
S'Chaboyer'
p1976
sg531
F2.0
sg539
F0.95
sg547
F0.275556
sg555
F0.95
sg563
F1.000001
sg571
F5e+40
sg579
F4.7e+40
sg587
F1.5
sg595
F44.0
sg603
F0.0
sg611
F0.275556
sg619
F5.0
sg627
F1.0
sg635
S'Chaboyer'
p1977
sg644
F0.0
sg652
F0.3
sg660
S"'maximum greenhouse'"
p1978
sg669
F0.3
sg677
F1.0
sg685
S"'Earth'"
p1979
sg694
F0.01
sg702
F10.0
sg710
F1.0
sg718
F2.0
sg726
F3.0
sg734
S'PARSEC'
p1980
sg743
S'PARSEC'
p1981
sg752
F5e+40
sg760
F4.7e+40
sg768
S'BHMCatPV1011'
p1982
sg777
F0.01
sg785
S'BHMCatS1011V'
p1983
sg794
S'NICHE-011h'
p1984
sg803
F7.0
sg811
S'NICHE-011'
p1985
sg820
S"'recent venus'"
p1986
sg829
S"'runaway greenhouse'"
p1987
sg838
F11.3
sg846
F0.0
sg854
F1.0
sg862
F5.0
sg870
F0.002
sg878
F0.3
sssg886
F-2.0
sg894
F-1.0
sg902
S'2014arXiv1408.5163M;'
p1988
sg911
F0.7
sg919
F-2.0
sg927
F-2.0
sg935
F-2.0
sg943
F-2.0
sg951
F-2.0
sg959
F0.4
sg967
F0.0
sg975
F-1.0
sg983
S'BHMCatPV1011;'
p1989
sg992
F-2.0
sg1000
F0.785714285714286
sg1008
g1009
sg1017
S'NICHE-011 A'
p1990
sg1026
F-2.0
sg1034
F-1.0
sg1042
F-2.0
sg1050
F-1.0
sg1058
F-1.0
sg1066
F-1.0
sg1074
F0.203543556080572
sg1082
F-1.0
sg1090
F-2.0
sg1098
g1955
sg1106
F-2.0
sg1114
F0.0
sg1122
F-2.0
sg1130
S'1011'
p1991
sg1139
F-1.0
sg1147
F-2.0
sg1155
F30.0
sg1163
F-2.0
sg1171
F-1.0
sg1179
F-1.0
sg1187
F-1.0
sg1195
F-2.0
ssS'BHMCatS0011P'
p1992
(dp1993
g12
F-1.0
sg20
S'V66 M4 B'
p1994
sg29
F0.88
sg37
F-1.0
sg45
I11
sg53
F5943.0
sg61
F-1.0
sg69
F-1.0
sg77
F0.005
sg85
F0.83
sg93
F-1.0
sg101
F0.744
sg109
S'V66 M4'
p1995
sg118
F-1.0
sg134
F-25.471861111111114
sg142
g1200
sg151
F-1.0
sg159
F0.005
sg167
S'G type'
p1996
sg169
(lp1997
(dp1998
g179
S'BHMCatPP0012'
p1999
sg188
F0.0
sg196
F0.0
sg204
S'BHMCatS0011P'
p2000
sg213
F0.0
sg221
S'12'
p2001
sg230
g231
sg239
F1.000001
sg247
S'0012'
p2002
sg256
F0.0
sg264
F0.0
sg272
S'V66 M4'
p2003
sg281
F1.000001
sg289
F0.0
sg297
F1.0
sg305
F0.0
sg313
F0.0
sg321
F1.0
sg329
S'V66 M4h'
p2004
sg338
g339
sg347
F0.0
sasg355
S'G type'
p2005
sg363
S'DEBCat'
p2006
sg372
F-1.0
sg380
F-1.0
sg388
S'28'
p2007
sg390
(dp2008
S'BHMCatPP0012'
p2009
(dp2010
g401
F7.0
sg409
F0.0
sg417
F0.0
sg425
F0.0
sg433
F1.0
sg441
F0.0
sg449
F11.3
sg457
S"'early mars'"
p2011
sg466
F4.5
sg474
F1.5
sg482
F1.000001
sg490
F0.002
sg498
F1.0
sg506
F1.0
sg514
F0.0
sg522
S'Chaboyer'
p2012
sg531
F2.0
sg539
F0.95
sg547
F0.275556
sg555
F0.95
sg563
F1.000001
sg571
F5e+40
sg579
F4.7e+40
sg587
F1.5
sg595
F44.0
sg603
F0.0
sg611
F0.275556
sg619
F5.0
sg627
F1.0
sg635
S'Chaboyer'
p2013
sg644
F0.0
sg652
F0.3
sg660
S"'maximum greenhouse'"
p2014
sg669
F0.3
sg677
F1.0
sg685
S"'Saturn'"
p2015
sg694
F0.01
sg702
F10.0
sg710
F1.0
sg718
F2.0
sg726
F3.0
sg734
S'PARSEC'
p2016
sg743
S'PARSEC'
p2017
sg752
F5e+40
sg760
F4.7e+40
sg768
S'BHMCatPP0012'
p2018
sg777
F0.01
sg785
S'BHMCatS0011P'
p2019
sg794
S'V66 M4h'
p2020
sg803
F7.0
sg811
S'V66 M4'
p2021
sg820
S"'recent venus'"
p2022
sg829
S"'runaway greenhouse'"
p2023
sg838
F11.3
sg846
F0.0
sg854
F1.0
sg862
F5.0
sg870
F0.002
sg878
F0.3
sssg886
F-1.0
sg894
F-1.0
sg902
S'2013AJ....145...43K;'
p2024
sg911
F0.784
sg919
F0.935
sg927
F-1.0
sg935
F6165.0
sg943
F-1.0
sg951
F-1.0
sg959
F0.0
sg967
F0.005
sg975
F-1.0
sg983
S'BHMCatPP0012;'
p2025
sg992
F-1.0
sg1000
F0.948979591836735
sg1008
g1009
sg1017
S'V66 M4 A'
p2026
sg1026
F16.392286111111112
sg1034
F-1.0
sg1042
F-1.0
sg1050
F-1.0
sg1058
F-1.0
sg1066
F-1.0
sg1074
F0.091
sg1082
F-1.0
sg1090
F16.84
sg1098
g1992
sg1106
F-1.0
sg1114
F0.004
sg1122
F-1.0
sg1130
S'0011'
p2027
sg1139
F-1.0
sg1147
F-1.0
sg1155
F8.111
sg1163
F-1.0
sg1171
F-1.0
sg1179
F-1.0
sg1187
g3
(g121
S'\xae\x1a\xc5y#\xe2\xaa@'
p2028
tp2029
Rp2030
sg1195
F-1.0
ssS'BHMCatS0013P'
p2031
(dp2032
g12
F-1.0
sg20
S'V785 Cep B'
p2033
sg29
F0.6
sg37
F-1.0
sg45
I13
sg53
F5874.0
sg61
F-1.0
sg69
F-1.0
sg77
F0.019
sg85
F1.373
sg93
F-1.0
sg101
F1.081
sg109
S'V785 Cep'
p2034
sg118
F-1.0
sg134
F85.17629166666667
sg142
g1200
sg151
F-1.0
sg159
F0.019
sg167
S'G type'
p2035
sg169
(lp2036
(dp2037
g179
S'BHMCatPP0014'
p2038
sg188
F0.0
sg196
F0.0
sg204
S'BHMCatS0013P'
p2039
sg213
F0.0
sg221
S'14'
p2040
sg230
g231
sg239
F1.000001
sg247
S'0014'
p2041
sg256
F0.0
sg264
F0.0
sg272
S'V785 Cep'
p2042
sg281
F1.000001
sg289
F0.0
sg297
F1.0
sg305
F0.0
sg313
F0.0
sg321
F1.0
sg329
S'V785 Ceph'
p2043
sg338
g339
sg347
F0.0
sasg355
S'G type'
p2044
sg363
S'DEBCat'
p2045
sg372
F-1.0
sg380
F-1.0
sg388
S'26'
p2046
sg390
(dp2047
S'BHMCatPP0014'
p2048
(dp2049
g401
F7.0
sg409
F0.0
sg417
F0.0
sg425
F0.0
sg433
F1.0
sg441
F0.0
sg449
F11.3
sg457
S"'early mars'"
p2050
sg466
F4.5
sg474
F1.5
sg482
F1.000001
sg490
F0.002
sg498
F1.0
sg506
F1.0
sg514
F0.0
sg522
S'Chaboyer'
p2051
sg531
F2.0
sg539
F0.95
sg547
F0.275556
sg555
F0.95
sg563
F1.000001
sg571
F5e+40
sg579
F4.7e+40
sg587
F1.5
sg595
F44.0
sg603
F0.0
sg611
F0.275556
sg619
F5.0
sg627
F1.0
sg635
S'Chaboyer'
p2052
sg644
F0.0
sg652
F0.3
sg660
S"'maximum greenhouse'"
p2053
sg669
F0.3
sg677
F1.0
sg685
S"'Saturn'"
p2054
sg694
F0.01
sg702
F10.0
sg710
F1.0
sg718
F2.0
sg726
F3.0
sg734
S'PARSEC'
p2055
sg743
S'PARSEC'
p2056
sg752
F5e+40
sg760
F4.7e+40
sg768
S'BHMCatPP0014'
p2057
sg777
F0.01
sg785
S'BHMCatS0013P'
p2058
sg794
S'V785 Ceph'
p2059
sg803
F7.0
sg811
S'V785 Cep'
p2060
sg820
S"'recent venus'"
p2061
sg829
S"'runaway greenhouse'"
p2062
sg838
F11.3
sg846
F0.0
sg854
F1.0
sg862
F5.0
sg870
F0.002
sg878
F0.3
sssg886
F-1.0
sg894
F-1.0
sg902
S'2014AJ....147...42Z; 2012MNRAS.425.3104F;'
p2063
sg911
F1.103
sg919
F1.424
sg927
F-1.0
sg935
F5902.0
sg943
F-1.0
sg951
F-1.0
sg959
F0.0
sg967
F0.007
sg975
F-1.0
sg983
S'BHMCatPP0014;'
p2064
sg992
F-1.0
sg1000
F0.980054397098821
sg1008
g1009
sg1017
S'V785 Cep A'
p2065
sg1026
F0.8770944444444445
sg1034
F-1.0
sg1042
F-1.0
sg1050
F-1.0
sg1058
F-1.0
sg1066
F-1.0
sg1074
F0.0885
sg1082
F-1.0
sg1090
F14.74
sg1098
g2031
sg1106
F-1.0
sg1114
F0.007
sg1122
F-1.0
sg1130
S'0013'
p2066
sg1139
F-1.0
sg1147
F-1.0
sg1155
F6.504
sg1163
F-1.0
sg1171
F-1.0
sg1179
F-1.0
sg1187
g3
(g121
S'\x03%\xcc\x91\x0b\xf3\x9d@'
p2067
tp2068
Rp2069
sg1195
F-1.0
ssS'BHMCatS1007V'
p2070
(dp2071
g12
F0.0
sg20
S'NICHE-007 B'
p2072
sg29
F-2.0
sg37
F-2.0
sg45
I1007
sg53
F-2.0
sg61
F-2.0
sg69
F-2.0
sg77
F0.0
sg85
F-2.0
sg93
F-2.0
sg101
F0.85
sg109
S'NICHE-007'
p2073
sg118
g3
(g121
S'0\xa8\x1bgj\x94\x8f?'
p2074
tp2075
Rp2076
sg134
F-2.0
sg142
g143
sg151
F-2.0
sg159
F0.0
sg167
g168
sg169
(lp2077
(dp2078
g179
S'BHMCatPV1007'
p2079
sg188
F0.0
sg196
F0.0
sg204
S'BHMCatS1007V'
p2080
sg213
F0.0
sg221
S'1007'
p2081
sg230
g231
sg239
F1.000001
sg247
S'1007'
p2082
sg256
F0.0
sg264
F0.0
sg272
S'NICHE-007'
p2083
sg281
F1.000001
sg289
F0.0
sg297
F1.0
sg305
F0.0
sg313
F0.0
sg321
F1.0
sg329
S'NICHE-007h'
p2084
sg338
g339
sg347
F0.0
sasg355
g168
sg363
S'NICHE'
p2085
sg372
F-2.0
sg380
F-2.0
sg388
S'7'
p2086
sg390
(dp2087
S'BHMCatPV1007'
p2088
(dp2089
g401
F7.0
sg409
F0.0
sg417
F0.0
sg425
F0.0
sg433
F1.0
sg441
F0.0
sg449
F11.3
sg457
S"'early mars'"
p2090
sg466
F4.5
sg474
F1.5
sg482
F1.000001
sg490
F0.002
sg498
F1.0
sg506
F1.0
sg514
F0.0
sg522
S'Chaboyer'
p2091
sg531
F2.0
sg539
F0.95
sg547
F0.275556
sg555
F0.95
sg563
F1.000001
sg571
F5e+40
sg579
F4.7e+40
sg587
F1.5
sg595
F44.0
sg603
F0.0
sg611
F0.275556
sg619
F5.0
sg627
F1.0
sg635
S'Chaboyer'
p2092
sg644
F0.0
sg652
F0.3
sg660
S"'maximum greenhouse'"
p2093
sg669
F0.3
sg677
F1.0
sg685
S"'Earth'"
p2094
sg694
F0.01
sg702
F10.0
sg710
F1.0
sg718
F2.0
sg726
F3.0
sg734
S'PARSEC'
p2095
sg743
S'PARSEC'
p2096
sg752
F5e+40
sg760
F4.7e+40
sg768
S'BHMCatPV1007'
p2097
sg777
F0.01
sg785
S'BHMCatS1007V'
p2098
sg794
S'NICHE-007h'
p2099
sg803
F7.0
sg811
S'NICHE-007'
p2100
sg820
S"'recent venus'"
p2101
sg829
S"'runaway greenhouse'"
p2102
sg838
F11.3
sg846
F0.0
sg854
F1.0
sg862
F5.0
sg870
F0.002
sg878
F0.3
sssg886
F-2.0
sg894
F-1.0
sg902
S'2014arXiv1408.5163M;'
p2103
sg911
F0.85
sg919
F-2.0
sg927
F-2.0
sg935
F-2.0
sg943
F-2.0
sg951
F-2.0
sg959
F0.2
sg967
F0.0
sg975
F-1.0
sg983
S'BHMCatPV1007;'
p2104
sg992
F-2.0
sg1000
F1.0
sg1008
g1009
sg1017
S'NICHE-007 A'
p2105
sg1026
F-2.0
sg1034
F-1.0
sg1042
F-2.0
sg1050
F-1.0
sg1058
F-1.0
sg1066
F-1.0
sg1074
F0.12242693814828
sg1082
F-1.0
sg1090
F-2.0
sg1098
g2070
sg1106
F-2.0
sg1114
F0.0
sg1122
F-2.0
sg1130
S'1007'
p2106
sg1139
F-1.0
sg1147
F-2.0
sg1155
F12.0
sg1163
F-2.0
sg1171
F-1.0
sg1179
F-1.0
sg1187
F-1.0
sg1195
F-2.0
ssS'BHMCatS0038P'
p2107
(dp2108
g12
F-1.0
sg20
S'NGC188 KR V12 B'
p2109
sg29
F-1.0
sg37
F-1.0
sg45
I38
sg53
F5875.0
sg61
F0.013
sg69
F-1.0
sg77
F0.019
sg85
F1.373
sg93
F-1.0
sg101
F1.081
sg109
S'NGC188 KR V12'
p2110
sg118
F-1.0
sg134
F85.17629166666667
sg142
g1200
sg151
F0.012
sg159
F0.019
sg167
S'G type'
p2111
sg169
(lp2112
(dp2113
g179
S'BHMCatPP0039'
p2114
sg188
F0.0
sg196
F0.0
sg204
S'BHMCatS0038P'
p2115
sg213
F0.0
sg221
S'39'
p2116
sg230
g231
sg239
F1.000001
sg247
S'0039'
p2117
sg256
F0.0
sg264
F0.0
sg272
S'NGC188 KR V12'
p2118
sg281
F1.000001
sg289
F0.0
sg297
F1.0
sg305
F0.0
sg313
F0.0
sg321
F1.0
sg329
S'NGC188 KR V12h'
p2119
sg338
g339
sg347
F0.0
sasg355
S'G type'
p2120
sg363
S'EkCat'
p2121
sg372
F4.196
sg380
F17.0
sg388
g1902
sg390
(dp2122
S'BHMCatPP0039'
p2123
(dp2124
g401
F7.0
sg409
F0.0
sg417
F0.0
sg425
F0.0
sg433
F1.0
sg441
F0.0
sg449
F11.3
sg457
S"'early mars'"
p2125
sg466
F4.5
sg474
F1.5
sg482
F1.000001
sg490
F0.002
sg498
F1.0
sg506
F1.0
sg514
F0.0
sg522
S'Chaboyer'
p2126
sg531
F2.0
sg539
F0.95
sg547
F0.275556
sg555
F0.95
sg563
F1.000001
sg571
F5e+40
sg579
F4.7e+40
sg587
F1.5
sg595
F44.0
sg603
F0.0
sg611
F0.275556
sg619
F5.0
sg627
F1.0
sg635
S'Chaboyer'
p2127
sg644
F0.0
sg652
F0.3
sg660
S"'maximum greenhouse'"
p2128
sg669
F0.3
sg677
F1.0
sg685
S"'Saturn'"
p2129
sg694
F0.01
sg702
F10.0
sg710
F1.0
sg718
F2.0
sg726
F3.0
sg734
S'PARSEC'
p2130
sg743
S'PARSEC'
p2131
sg752
F5e+40
sg760
F4.7e+40
sg768
S'BHMCatPP0039'
p2132
sg777
F0.01
sg785
S'BHMCatS0038P'
p2133
sg794
S'NGC188 KR V12h'
p2134
sg803
F7.0
sg811
S'NGC188 KR V12'
p2135
sg820
S"'recent venus'"
p2136
sg829
S"'runaway greenhouse'"
p2137
sg838
F11.3
sg846
F0.0
sg854
F1.0
sg862
F5.0
sg870
F0.002
sg878
F0.3
sssg886
F4.174
sg894
g3
(g121
S"\xa9\x8d'\xff]3\x13@"
p2138
tp2139
Rp2140
sg902
S'2009AJ....137.5086M;'
p2141
sg911
F1.103
sg919
F1.424
sg927
F-1.0
sg935
F5900.0
sg943
F88.62
sg951
F-1.0
sg959
F0.0
sg967
F0.007
sg975
F75.0
sg983
S'BHMCatPP0039;'
p2142
sg992
F100.0
sg1000
F0.980054397098821
sg1008
g1009
sg1017
S'NGC188 KR V12 A'
p2143
sg1026
F0.8770944444444445
sg1034
F-1.0
sg1042
F-1.0
sg1050
F1770.0
sg1058
F-1.0
sg1066
F-1.0
sg1074
F0.0884857046791444
sg1082
g3
(g121
S'\xaf\xfaO\xef\xc1U\x10@'
p2144
tp2145
Rp2146
sg1090
F14.64
sg1098
g2107
sg1106
F-1.0
sg1114
F0.007
sg1122
F-1.0
sg1130
S'0038'
p2147
sg1139
F-1.0
sg1147
F-1.0
sg1155
F6.5042969
sg1163
F15.0
sg1171
F-1.0
sg1179
F-1.0
sg1187
F-1.0
sg1195
F100.0
ssS'BHMCatS1005V'
p2148
(dp2149
g12
F0.0
sg20
S'NICHE-005 B'
p2150
sg29
F-2.0
sg37
F-2.0
sg45
I1005
sg53
F-2.0
sg61
F-2.0
sg69
F-2.0
sg77
F0.0
sg85
F-2.0
sg93
F-2.0
sg101
F1.0
sg109
S'NICHE-005'
p2151
sg118
g3
(g121
S'0\xa8\x1bgj\x94\x8f?'
p2152
tp2153
Rp2154
sg134
F-2.0
sg142
g143
sg151
F-2.0
sg159
F0.0
sg167
g168
sg169
(lp2155
(dp2156
g179
S'BHMCatPV1005'
p2157
sg188
F0.0
sg196
F0.0
sg204
S'BHMCatS1005V'
p2158
sg213
F0.0
sg221
S'1005'
p2159
sg230
g231
sg239
F1.000001
sg247
S'1005'
p2160
sg256
F0.0
sg264
F0.0
sg272
S'NICHE-005'
p2161
sg281
F1.000001
sg289
F0.0
sg297
F1.0
sg305
F0.0
sg313
F0.0
sg321
F1.0
sg329
S'NICHE-005h'
p2162
sg338
g339
sg347
F0.0
sasg355
g168
sg363
S'NICHE'
p2163
sg372
F-2.0
sg380
F-2.0
sg388
g1902
sg390
(dp2164
S'BHMCatPV1005'
p2165
(dp2166
g401
F7.0
sg409
F0.0
sg417
F0.0
sg425
F0.0
sg433
F1.0
sg441
F0.0
sg449
F11.3
sg457
S"'early mars'"
p2167
sg466
F4.5
sg474
F1.5
sg482
F1.000001
sg490
F0.002
sg498
F1.0
sg506
F1.0
sg514
F0.0
sg522
S'Chaboyer'
p2168
sg531
F2.0
sg539
F0.95
sg547
F0.275556
sg555
F0.95
sg563
F1.000001
sg571
F5e+40
sg579
F4.7e+40
sg587
F1.5
sg595
F44.0
sg603
F0.0
sg611
F0.275556
sg619
F5.0
sg627
F1.0
sg635
S'Chaboyer'
p2169
sg644
F0.0
sg652
F0.3
sg660
S"'maximum greenhouse'"
p2170
sg669
F0.3
sg677
F1.0
sg685
S"'Earth'"
p2171
sg694
F0.01
sg702
F10.0
sg710
F1.0
sg718
F2.0
sg726
F3.0
sg734
S'PARSEC'
p2172
sg743
S'PARSEC'
p2173
sg752
F5e+40
sg760
F4.7e+40
sg768
S'BHMCatPV1005'
p2174
sg777
F0.01
sg785
S'BHMCatS1005V'
p2175
sg794
S'NICHE-005h'
p2176
sg803
F7.0
sg811
S'NICHE-005'
p2177
sg820
S"'recent venus'"
p2178
sg829
S"'runaway greenhouse'"
p2179
sg838
F11.3
sg846
F0.0
sg854
F1.0
sg862
F5.0
sg870
F0.002
sg878
F0.3
sssg886
F-2.0
sg894
F-1.0
sg902
S'2014arXiv1408.5163M;'
p2180
sg911
F1.0
sg919
F-2.0
sg927
F-2.0
sg935
F-2.0
sg943
F-2.0
sg951
F-2.0
sg959
F0.5
sg967
F0.0
sg975
F-1.0
sg983
S'BHMCatPV1005;'
p2181
sg992
F-2.0
sg1000
F1.0
sg1008
g1009
sg1017
S'NICHE-005 A'
p2182
sg1026
F-2.0
sg1034
F-1.0
sg1042
F-2.0
sg1050
F-1.0
sg1058
F-1.0
sg1066
F-1.0
sg1074
F0.377906198822968
sg1082
F-1.0
sg1090
F-2.0
sg1098
g2148
sg1106
F-2.0
sg1114
F0.0
sg1122
F-2.0
sg1130
S'1005'
p2183
sg1139
F-1.0
sg1147
F-2.0
sg1155
F60.0
sg1163
F-2.0
sg1171
F-1.0
sg1179
F-1.0
sg1187
F-1.0
sg1195
F-2.0
ssS'BHMCatS0029P'
p2184
(dp2185
g12
F-1.0
sg20
S'ASAS J162637-5042.8  B'
p2186
sg29
F-1.0
sg37
F-1.0
sg45
I29
sg53
F-1.0
sg61
F0.151
sg69
F-1.0
sg77
F0.33
sg85
F2.25
sg93
F-1.0
sg101
F1.246
sg109
S'ASAS J162637-5042.8'
p2187
sg118
F-1.0
sg134
F-49.2863
sg142
g1200
sg151
F0.13
sg159
F0.33
sg167
S'G1'
p2188
sg169
(lp2189
(dp2190
g179
S'BHMCatPP0030'
p2191
sg188
F0.0
sg196
F0.0
sg204
S'BHMCatS0029P'
p2192
sg213
F0.0
sg221
S'30'
p2193
sg230
g231
sg239
F1.000001
sg247
S'0030'
p2194
sg256
F0.0
sg264
F0.0
sg272
S'ASAS J162637-5042.8'
p2195
sg281
F1.000001
sg289
F0.0
sg297
F1.0
sg305
F0.0
sg313
F0.0
sg321
F1.0
sg329
S'ASAS J162637-5042.8 h'
p2196
sg338
g339
sg347
F0.0
sasg355
g168
sg363
S'EkCat'
p2197
sg372
F3.82900138511398
sg380
F-1.0
sg388
S'143'
p2198
sg390
(dp2199
S'BHMCatPP0030'
p2200
(dp2201
g401
F7.0
sg409
F0.0
sg417
F0.0
sg425
F0.0
sg433
F1.0
sg441
F0.0
sg449
F11.3
sg457
S"'early mars'"
p2202
sg466
F4.5
sg474
F1.5
sg482
F1.000001
sg490
F0.002
sg498
F1.0
sg506
F1.0
sg514
F0.0
sg522
S'Chaboyer'
p2203
sg531
F2.0
sg539
F0.95
sg547
F0.275556
sg555
F0.95
sg563
F1.000001
sg571
F5e+40
sg579
F4.7e+40
sg587
F1.5
sg595
F44.0
sg603
F0.0
sg611
F0.275556
sg619
F5.0
sg627
F1.0
sg635
S'Chaboyer'
p2204
sg644
F0.0
sg652
F0.3
sg660
S"'maximum greenhouse'"
p2205
sg669
F0.3
sg677
F1.0
sg685
S"'Saturn'"
p2206
sg694
F0.01
sg702
F10.0
sg710
F1.0
sg718
F2.0
sg726
F3.0
sg734
S'PARSEC'
p2207
sg743
S'PARSEC'
p2208
sg752
F5e+40
sg760
F4.7e+40
sg768
S'BHMCatPP0030'
p2209
sg777
F0.01
sg785
S'BHMCatS0029P'
p2210
sg794
S'ASAS J162637-5042.8 h'
p2211
sg803
F7.0
sg811
S'ASAS J162637-5042.8'
p2212
sg820
S"'recent venus'"
p2213
sg829
S"'runaway greenhouse'"
p2214
sg838
F11.3
sg846
F0.0
sg854
F1.0
sg862
F5.0
sg870
F0.002
sg878
F0.3
sssg886
F3.7917898139359
sg894
F-1.0
sg902
S'2008AN....329..835B;'
p2215
sg911
F1.469
sg919
F2.55
sg927
F-1.0
sg935
F-1.0
sg943
F85.6
sg951
F-1.0
sg959
F0.019
sg967
F0.008
sg975
F19.0
sg983
S'BHMCatPP0030;'
p2216
sg992
F-1.0
sg1000
F0.848196051735875
sg1008
g1009
sg1017
S'ASAS J162637-5042.8  A'
p2217
sg1026
F16.443722222222224
sg1034
F-1.0
sg1042
F-1.0
sg1050
F200.0
sg1058
F-1.0
sg1066
F-1.0
sg1074
F0.117112063636364
sg1082
F-1.0
sg1090
F9.868
sg1098
g2184
sg1106
F-1.0
sg1114
F0.007
sg1122
F-1.0
sg1130
S'0029'
p2218
sg1139
F-1.0
sg1147
F-1.0
sg1155
F8.87621
sg1163
F-1.0
sg1171
F-1.0
sg1179
F-1.0
sg1187
F-1.0
sg1195
F-1.0
ssS'BHMCatS0039P'
p2219
(dp2220
g12
F-1.0
sg20
S'BD-02 873 B'
p2221
sg29
F-1.0
sg37
F-1.0
sg45
I39
sg53
F-1.0
sg61
F0.196
sg69
F-1.0
sg77
F0.29
sg85
F1.43
sg93
F-1.0
sg101
F1.179
sg109
S'BD-02 873'
p2222
sg118
F-1.0
sg134
F-0.26017500000000005
sg142
g1200
sg151
F0.197
sg159
F0.26
sg167
S'G3.5'
p2223
sg169
(lp2224
(dp2225
g179
S'BHMCatPP0040'
p2226
sg188
F0.0
sg196
F0.0
sg204
S'BHMCatS0039P'
p2227
sg213
F0.0
sg221
S'40'
p2228
sg230
g231
sg239
F1.000001
sg247
S'0040'
p2229
sg256
F0.0
sg264
F0.0
sg272
S'BD-02 873'
p2230
sg281
F1.000001
sg289
F0.0
sg297
F1.0
sg305
F0.0
sg313
F0.0
sg321
F1.0
sg329
S'BD-02 873h'
p2231
sg338
g339
sg347
F0.0
sasg355
g168
sg363
S'EkCat'
p2232
sg372
F4.19869010917852
sg380
F-1.0
sg388
S'40'
p2233
sg390
(dp2234
S'BHMCatPP0040'
p2235
(dp2236
g401
F7.0
sg409
F0.0
sg417
F0.0
sg425
F0.0
sg433
F1.0
sg441
F0.0
sg449
F11.3
sg457
S"'early mars'"
p2237
sg466
F4.5
sg474
F1.5
sg482
F1.000001
sg490
F0.002
sg498
F1.0
sg506
F1.0
sg514
F0.0
sg522
S'Chaboyer'
p2238
sg531
F2.0
sg539
F0.95
sg547
F0.275556
sg555
F0.95
sg563
F1.000001
sg571
F5e+40
sg579
F4.7e+40
sg587
F1.5
sg595
F44.0
sg603
F0.0
sg611
F0.275556
sg619
F5.0
sg627
F1.0
sg635
S'Chaboyer'
p2239
sg644
F0.0
sg652
F0.3
sg660
S"'maximum greenhouse'"
p2240
sg669
F0.3
sg677
F1.0
sg685
S"'Saturn'"
p2241
sg694
F0.01
sg702
F10.0
sg710
F1.0
sg718
F2.0
sg726
F3.0
sg734
S'PARSEC'
p2242
sg743
S'PARSEC'
p2243
sg752
F5e+40
sg760
F4.7e+40
sg768
S'BHMCatPP0040'
p2244
sg777
F0.01
sg785
S'BHMCatS0039P'
p2245
sg794
S'BD-02 873h'
p2246
sg803
F7.0
sg811
S'BD-02 873'
p2247
sg820
S"'recent venus'"
p2248
sg829
S"'runaway greenhouse'"
p2249
sg838
F11.3
sg846
F0.0
sg854
F1.0
sg862
F5.0
sg870
F0.002
sg878
F0.3
sssg886
F4.14665265525305
sg894
F-1.0
sg902
S'2007A&A...474..653V;'
p2250
sg911
F1.293
sg919
F1.59
sg927
F-1.0
sg935
F-1.0
sg943
F88.5
sg951
F-1.0
sg959
F0.132
sg967
F0.009
sg975
F17.0
sg983
S'BHMCatPP0040;'
p2251
sg992
F-1.0
sg1000
F0.911832946635731
sg1008
g1009
sg1017
S'BD-02 873 A'
p2252
sg1026
F4.344713888888888
sg1034
F-1.0
sg1042
F-1.0
sg1050
F129.0
sg1058
F-1.0
sg1066
F-1.0
sg1074
F0.0919767240641711
sg1082
F-1.0
sg1090
F8.621
sg1098
g2219
sg1106
F-1.0
sg1114
F0.009
sg1122
F-1.0
sg1130
S'0039'
p2253
sg1139
F-1.0
sg1147
F-1.0
sg1155
F6.47649
sg1163
F-1.0
sg1171
F-1.0
sg1179
F-1.0
sg1187
F-1.0
sg1195
F-1.0
ssS'BHMCatS1009V'
p2254
(dp2255
g12
F0.0
sg20
S'NICHE-009 B'
p2256
sg29
F-2.0
sg37
F-2.0
sg45
I1009
sg53
F-2.0
sg61
F-2.0
sg69
F-2.0
sg77
F0.0
sg85
F-2.0
sg93
F-2.0
sg101
F0.55
sg109
S'NICHE-009'
p2257
sg118
g3
(g121
S'0\xa8\x1bgj\x94\x8f?'
p2258
tp2259
Rp2260
sg134
F-2.0
sg142
g143
sg151
F-2.0
sg159
F0.0
sg167
g168
sg169
(lp2261
(dp2262
g179
S'BHMCatPV1009'
p2263
sg188
F0.0
sg196
F0.0
sg204
S'BHMCatS1009V'
p2264
sg213
F0.0
sg221
S'1009'
p2265
sg230
g231
sg239
F1.000001
sg247
S'1009'
p2266
sg256
F0.0
sg264
F0.0
sg272
S'NICHE-009'
p2267
sg281
F1.000001
sg289
F0.0
sg297
F1.0
sg305
F0.0
sg313
F0.0
sg321
F1.0
sg329
S'NICHE-009h'
p2268
sg338
g339
sg347
F0.0
sasg355
g168
sg363
S'NICHE'
p2269
sg372
F-2.0
sg380
F-2.0
sg388
g1292
sg390
(dp2270
S'BHMCatPV1009'
p2271
(dp2272
g401
F7.0
sg409
F0.0
sg417
F0.0
sg425
F0.0
sg433
F1.0
sg441
F0.0
sg449
F11.3
sg457
S"'early mars'"
p2273
sg466
F4.5
sg474
F1.5
sg482
F1.000001
sg490
F0.002
sg498
F1.0
sg506
F1.0
sg514
F0.0
sg522
S'Chaboyer'
p2274
sg531
F2.0
sg539
F0.95
sg547
F0.275556
sg555
F0.95
sg563
F1.000001
sg571
F5e+40
sg579
F4.7e+40
sg587
F1.5
sg595
F44.0
sg603
F0.0
sg611
F0.275556
sg619
F5.0
sg627
F1.0
sg635
S'Chaboyer'
p2275
sg644
F0.0
sg652
F0.3
sg660
S"'maximum greenhouse'"
p2276
sg669
F0.3
sg677
F1.0
sg685
S"'Earth'"
p2277
sg694
F0.01
sg702
F10.0
sg710
F1.0
sg718
F2.0
sg726
F3.0
sg734
S'PARSEC'
p2278
sg743
S'PARSEC'
p2279
sg752
F5e+40
sg760
F4.7e+40
sg768
S'BHMCatPV1009'
p2280
sg777
F0.01
sg785
S'BHMCatS1009V'
p2281
sg794
S'NICHE-009h'
p2282
sg803
F7.0
sg811
S'NICHE-009'
p2283
sg820
S"'recent venus'"
p2284
sg829
S"'runaway greenhouse'"
p2285
sg838
F11.3
sg846
F0.0
sg854
F1.0
sg862
F5.0
sg870
F0.002
sg878
F0.3
sssg886
F-2.0
sg894
F-1.0
sg902
S'2014arXiv1408.5163M;'
p2286
sg911
F0.85
sg919
F-2.0
sg927
F-2.0
sg935
F-2.0
sg943
F-2.0
sg951
F-2.0
sg959
F0.3
sg967
F0.0
sg975
F-1.0
sg983
S'BHMCatPV1009;'
p2287
sg992
F-2.0
sg1000
F0.647058823529412
sg1008
g1009
sg1017
S'NICHE-009 A'
p2288
sg1026
F-2.0
sg1034
F-1.0
sg1042
F-2.0
sg1050
F-1.0
sg1058
F-1.0
sg1066
F-1.0
sg1074
F0.133160893790228
sg1082
F-1.0
sg1090
F-2.0
sg1098
g2254
sg1106
F-2.0
sg1114
F0.0
sg1122
F-2.0
sg1130
S'1009'
p2289
sg1139
F-1.0
sg1147
F-2.0
sg1155
F15.0
sg1163
F-2.0
sg1171
F-1.0
sg1179
F-1.0
sg1187
F-1.0
sg1195
F-2.0
ssS'BHMCatS0015P'
p2290
(dp2291
g12
F-1.0
sg20
S'LSPM J1112+7626 B'
p2292
sg29
F-1.0
sg37
F-1.0
sg45
I15
sg53
F2952.0
sg61
F0.014
sg69
F-1.0
sg77
F0.005
sg85
F0.3
sg93
F-1.0
sg101
F0.275
sg109
S'LSPM J1112+7626'
p2293
sg118
F-1.0
sg134
F76.449
sg142
g1200
sg151
F0.012
sg159
F0.005
sg167
S'M4V'
p2294
sg169
(lp2295
(dp2296
g179
S'BHMCatPP0016'
p2297
sg188
F0.0
sg196
F0.0
sg204
S'BHMCatS0015P'
p2298
sg213
F0.0
sg221
S'16'
p2299
sg230
g231
sg239
F1.000001
sg247
S'0016'
p2300
sg256
F0.0
sg264
F0.0
sg272
S'LSPM J1112+7626'
p2301
sg281
F1.000001
sg289
F0.0
sg297
F1.0
sg305
F0.0
sg313
F0.0
sg321
F1.0
sg329
S'LSPM J1112+7626h'
p2302
sg338
g339
sg347
F0.0
sasg355
S'M type'
p2303
sg363
S'EkCat'
p2304
sg372
F4.929
sg380
F-1.0
sg388
S'113'
p2305
sg390
(dp2306
S'BHMCatPP0016'
p2307
(dp2308
g401
F7.0
sg409
F0.0
sg417
F0.0
sg425
F0.0
sg433
F1.0
sg441
F0.0
sg449
F11.3
sg457
S"'early mars'"
p2309
sg466
F4.5
sg474
F1.5
sg482
F1.000001
sg490
F0.002
sg498
F1.0
sg506
F1.0
sg514
F0.0
sg522
S'Chaboyer'
p2310
sg531
F2.0
sg539
F0.95
sg547
F0.275556
sg555
F0.95
sg563
F1.000001
sg571
F5e+40
sg579
F4.7e+40
sg587
F1.5
sg595
F44.0
sg603
F0.0
sg611
F0.275556
sg619
F5.0
sg627
F1.0
sg635
S'Chaboyer'
p2311
sg644
F0.0
sg652
F0.3
sg660
S"'maximum greenhouse'"
p2312
sg669
F0.3
sg677
F1.0
sg685
S"'Saturn'"
p2313
sg694
F0.01
sg702
F10.0
sg710
F1.0
sg718
F2.0
sg726
F3.0
sg734
S'PARSEC'
p2314
sg743
S'PARSEC'
p2315
sg752
F5e+40
sg760
F4.7e+40
sg768
S'BHMCatPP0016'
p2316
sg777
F0.01
sg785
S'BHMCatS0015P'
p2317
sg794
S'LSPM J1112+7626h'
p2318
sg803
F7.0
sg811
S'LSPM J1112+7626'
p2319
sg820
S"'recent venus'"
p2320
sg829
S"'runaway greenhouse'"
p2321
sg838
F11.3
sg846
F0.0
sg854
F1.0
sg862
F5.0
sg870
F0.002
sg878
F0.3
sssg886
F4.861
sg894
F-1.0
sg902
S'2011ApJ...742..123I;'
p2322
sg911
F0.395
sg919
F0.381
sg927
F-1.0
sg935
F3061.0
sg943
F89.71
sg951
F-1.0
sg959
F0.239
sg967
F0.002
sg975
F5.0
sg983
S'BHMCatPP0016;'
p2323
sg992
F163.0
sg1000
F0.69620253164557
sg1008
S'DEBCat'
p2324
sg1017
S'LSPM J1112+7626 A'
p2325
sg1026
F11.211755555555555
sg1034
F-1.0
sg1042
F-1.0
sg1050
F48.1
sg1058
F-1.0
sg1066
F-1.0
sg1074
F0.203875532085561
sg1082
F-1.0
sg1090
F12.015
sg1098
g2290
sg1106
F-1.0
sg1114
F0.001
sg1122
F-1.0
sg1130
S'0015'
p2326
sg1139
F-1.0
sg1147
F-1.0
sg1155
F41.032336
sg1163
F-1.0
sg1171
F-1.0
sg1179
F-1.0
sg1187
F-1.0
sg1195
F162.0
ssS'BHMCatS0017P'
p2327
(dp2328
g12
F-1.0
sg20
S'AI Phe B'
p2329
sg29
F-1.0
sg37
F1.0
sg45
I17
sg53
F5010.0
sg61
F0.012
sg69
F-1.0
sg77
F0.048
sg85
F1.816
sg93
F-1.0
sg101
F1.195
sg109
S'AI Phe'
p2330
sg118
F-1.0
sg134
F-45.73441944444444
sg142
g1200
sg151
F0.014
sg159
F0.024
sg167
S'F7V'
p2331
sg169
(lp2332
(dp2333
g179
S'BHMCatPP0018'
p2334
sg188
F0.0
sg196
F0.0
sg204
S'BHMCatS0017P'
p2335
sg213
F0.0
sg221
S'18'
p2336
sg230
g231
sg239
F1.000001
sg247
S'0018'
p2337
sg256
F0.0
sg264
F0.0
sg272
S'AI Phe'
p2338
sg281
F1.000001
sg289
F0.0
sg297
F1.0
sg305
F0.0
sg313
F0.0
sg321
F1.0
sg329
S'AI Pheh'
p2339
sg338
g339
sg347
F0.0
sasg355
S'K0IV'
p2340
sg363
S'EkCat'
p2341
sg372
F3.997
sg380
F4.0
sg388
g1292
sg390
(dp2342
S'BHMCatPP0018'
p2343
(dp2344
g401
F7.0
sg409
F0.0
sg417
F0.0
sg425
F0.0
sg433
F1.0
sg441
F0.0
sg449
F11.3
sg457
S"'early mars'"
p2345
sg466
F4.5
sg474
F1.5
sg482
F1.000001
sg490
F0.002
sg498
F1.0
sg506
F1.0
sg514
F0.0
sg522
S'Chaboyer'
p2346
sg531
F2.0
sg539
F0.95
sg547
F0.275556
sg555
F0.95
sg563
F1.000001
sg571
F5e+40
sg579
F4.7e+40
sg587
F1.5
sg595
F44.0
sg603
F0.0
sg611
F0.275556
sg619
F5.0
sg627
F1.0
sg635
S'Chaboyer'
p2347
sg644
F0.0
sg652
F0.3
sg660
S"'maximum greenhouse'"
p2348
sg669
F0.3
sg677
F1.0
sg685
S"'Saturn'"
p2349
sg694
F0.01
sg702
F10.0
sg710
F1.0
sg718
F2.0
sg726
F3.0
sg734
S'PARSEC'
p2350
sg743
S'PARSEC'
p2351
sg752
F5e+40
sg760
F4.7e+40
sg768
S'BHMCatPP0018'
p2352
sg777
F0.01
sg785
S'BHMCatS0017P'
p2353
sg794
S'AI Pheh'
p2354
sg803
F7.0
sg811
S'AI Phe'
p2355
sg820
S"'recent venus'"
p2356
sg829
S"'runaway greenhouse'"
p2357
sg838
F11.3
sg846
F0.0
sg854
F1.0
sg862
F5.0
sg870
F0.002
sg878
F0.3
sssg886
F3.596
sg894
g3
(g121
S'\x8e\xb6x\\\xa2\xb08@'
p2358
tp2359
Rp2360
sg902
S'1988A&A...196..128A;'
p2361
sg911
F1.236
sg919
F2.93
sg927
F-1.0
sg935
F6310.0
sg943
F88.45
sg951
F-1.0
sg959
F0.186
sg967
F0.005
sg975
F6.0
sg983
S'BHMCatPP0018;'
p2362
sg992
F120.0
sg1000
F0.966828478964401
sg1008
g1009
sg1017
S'AI Phe A'
p2363
sg1026
F1.1594972222222222
sg1034
F-1.0
sg1042
F-1.0
sg1050
F162.0
sg1058
F-1.0
sg1066
g3
(g121
S'\x9c\xae\xf4\x92?\xf4\x16@'
p2364
tp2365
Rp2366
sg1074
F0.222494302139037
sg1082
g3
(g121
S'\x9c\xae\xf4\x92?\xf46@'
p2367
tp2368
Rp2369
sg1090
F8.607
sg1098
g2327
sg1106
F-1.0
sg1114
F0.004
sg1122
F1.0
sg1130
S'0017'
p2370
sg1139
F-1.0
sg1147
F-1.0
sg1155
F24.592325
sg1163
F6.0
sg1171
F-1.0
sg1179
g3
(g121
S'_$\xfb\x92\xc1u\x10@'
p2371
tp2372
Rp2373
sg1187
F-1.0
sg1195
F150.0
ssS'BHMCatS0003D'
p2374
(dp2375
g12
F-0.603
sg20
S'Kepler-35 B'
p2376
sg29
F0.123
sg37
F-1.0
sg45
I3
sg53
F5202.0
sg61
F-1.0
sg69
F-1.0
sg77
F0.002
sg85
F0.786
sg93
F12.0
sg101
F0.809
sg109
S'Kepler-35'
p2377
sg118
g3
(g121
S'0ts\xcf\xf9\xe6p?'
p2378
tp2379
Rp2380
sg134
F46.68976111111111
sg142
g1287
sg151
F-1.0
sg159
F0.002
sg167
S'G type'
p2381
sg169
(lp2382
(dp2383
g179
S'BHMCatPD0003'
p2384
sg188
F6.359465523592647
sg196
F0.042
sg204
S'BHMCatS003D'
p2385
sg213
F0.005
sg221
g1421
sg230
S'2012ApJ...758...87O'
p2386
sg239
F8.16923183173756
sg247
S'0003'
p2387
sg256
F131.458
sg264
F0.00102
sg272
S'Kepler-35'
p2388
sg281
F40.3826060748133
sg289
F-1.0
sg297
F0.60347
sg305
F0.085
sg313
F0.0
sg321
F1.697
sg329
S'Kepler-35b'
p2389
sg338
g1297
sg347
F0.15710061214879925
sasg355
S'G type'
p2390
sg363
S'KIC'
p2391
sg372
F-1.0
sg380
F-1.0
sg388
S'9837578'
p2392
sg390
(dp2393
S'BHMCatPD0003'
p2394
(dp2395
g401
F7.0
sg409
F0.0
sg417
F0.0
sg425
F0.0
sg433
F10.0
sg441
F-0.603
sg449
F11.3
sg457
S"'early mars'"
p2396
sg466
F4.5
sg474
F1.5
sg482
F8.16923183173756
sg490
F0.002
sg498
F1.0
sg506
F1.0
sg514
F-0.603
sg522
S'Chaboyer'
p2397
sg531
F2.0
sg539
F0.95
sg547
F0.275556
sg555
F0.95
sg563
F40.3826060748133
sg571
F5e+40
sg579
F4.7e+40
sg587
F1.5
sg595
F44.0
sg603
F0.0
sg611
F0.275556
sg619
F5.0
sg627
F1.0
sg635
S'Chaboyer'
p2398
sg644
F0.0
sg652
F0.8
sg660
S"'maximum greenhouse'"
p2399
sg669
F0.3
sg677
F1.0
sg685
S"'Saturn'"
p2400
sg694
F0.01
sg702
F10.0
sg710
F10.0
sg718
F2.0
sg726
F3.0
sg734
S'PARSEC'
p2401
sg743
S'PARSEC'
p2402
sg752
F5e+40
sg760
F4.7e+40
sg768
S'BHMCatPD0003'
p2403
sg777
F0.01
sg785
S'BHMCatS0003D'
p2404
sg794
S'Kepler-35b'
p2405
sg803
F7.0
sg811
S'Kepler-35'
p2406
sg820
S"'recent venus'"
p2407
sg829
S"'runaway greenhouse'"
p2408
sg838
F11.3
sg846
F0.0
sg854
F10.0
sg862
F5.0
sg870
F0.002
sg878
F0.3
sssg886
F4.756
sg894
F-1.0
sg902
S'2012Natur.481..475W; 2012yCatp038048101W;'
p2409
sg911
F0.888
sg919
F1.028
sg927
F0.1
sg935
F5606.0
sg943
F90.4238
sg951
F-1.0
sg959
F0.1421
sg967
F0.005
sg975
F-1.0
sg983
S'BHMCatPD0003;'
p2410
sg992
F100.0
sg1000
F0.911036036036036
sg1008
g1009
sg1017
S'Kepler-35 A'
p2411
sg1026
F19.633131944444443
sg1034
F-1.0
sg1042
F20.8
sg1050
F-1.0
sg1058
F86.276
sg1066
F-1.0
sg1074
F0.1762
sg1082
F-1.0
sg1090
F15.726
sg1098
g2374
sg1106
F-1.0
sg1114
F0.004
sg1122
F-1.0
sg1130
S'0003'
p2412
sg1139
F-0.603
sg1147
F8.0
sg1155
F20.734
sg1163
F-1.0
sg1171
g3
(g121
S'0ts\xcf\xf9\xe6p?'
p2413
tp2414
Rp2415
sg1179
F-1.0
sg1187
g3
(g121
S'\x9d{Ss\x17\xef\x99@'
p2416
tp2417
Rp2418
sg1195
F150.0
ssS'BHMCatS1010V'
p2419
(dp2420
g12
F0.0
sg20
S'NICHE-010 B'
p2421
sg29
F-2.0
sg37
F-2.0
sg45
I1010
sg53
F-2.0
sg61
F-2.0
sg69
F-2.0
sg77
F0.0
sg85
F-2.0
sg93
F-2.0
sg101
F0.7
sg109
S'NICHE-010'
p2422
sg118
g3
(g121
S'0\xa8\x1bgj\x94\x8f?'
p2423
tp2424
Rp2425
sg134
F-2.0
sg142
g143
sg151
F-2.0
sg159
F0.0
sg167
g168
sg169
(lp2426
(dp2427
g179
S'BHMCatPV1010'
p2428
sg188
F0.0
sg196
F0.0
sg204
S'BHMCatS1010V'
p2429
sg213
F0.0
sg221
S'1010'
p2430
sg230
g231
sg239
F1.000001
sg247
S'1010'
p2431
sg256
F0.0
sg264
F0.0
sg272
S'NICHE-010'
p2432
sg281
F1.000001
sg289
F0.0
sg297
F1.0
sg305
F0.0
sg313
F0.0
sg321
F1.0
sg329
S'NICHE-010h'
p2433
sg338
g339
sg347
F0.0
sasg355
g168
sg363
S'NICHE'
p2434
sg372
F-2.0
sg380
F-2.0
sg388
S'10'
p2435
sg390
(dp2436
S'BHMCatPV1010'
p2437
(dp2438
g401
F7.0
sg409
F0.0
sg417
F0.0
sg425
F0.0
sg433
F1.0
sg441
F0.0
sg449
F11.3
sg457
S"'early mars'"
p2439
sg466
F4.5
sg474
F1.5
sg482
F1.000001
sg490
F0.002
sg498
F1.0
sg506
F1.0
sg514
F0.0
sg522
S'Chaboyer'
p2440
sg531
F2.0
sg539
F0.95
sg547
F0.275556
sg555
F0.95
sg563
F1.000001
sg571
F5e+40
sg579
F4.7e+40
sg587
F1.5
sg595
F44.0
sg603
F0.0
sg611
F0.275556
sg619
F5.0
sg627
F1.0
sg635
S'Chaboyer'
p2441
sg644
F0.0
sg652
F0.3
sg660
S"'maximum greenhouse'"
p2442
sg669
F0.3
sg677
F1.0
sg685
S"'Earth'"
p2443
sg694
F0.01
sg702
F10.0
sg710
F1.0
sg718
F2.0
sg726
F3.0
sg734
S'PARSEC'
p2444
sg743
S'PARSEC'
p2445
sg752
F5e+40
sg760
F4.7e+40
sg768
S'BHMCatPV1010'
p2446
sg777
F0.01
sg785
S'BHMCatS1010V'
p2447
sg794
S'NICHE-010h'
p2448
sg803
F7.0
sg811
S'NICHE-010'
p2449
sg820
S"'recent venus'"
p2450
sg829
S"'runaway greenhouse'"
p2451
sg838
F11.3
sg846
F0.0
sg854
F1.0
sg862
F5.0
sg870
F0.002
sg878
F0.3
sssg886
F-2.0
sg894
F-1.0
sg902
S'2014arXiv1408.5163M;'
p2452
sg911
F0.7
sg919
F-2.0
sg927
F-2.0
sg935
F-2.0
sg943
F-2.0
sg951
F-2.0
sg959
F0.4
sg967
F0.0
sg975
F-1.0
sg983
S'BHMCatPV1010;'
p2453
sg992
F-2.0
sg1000
F1.0
sg1008
g1009
sg1017
S'NICHE-010 A'
p2454
sg1026
F-2.0
sg1034
F-1.0
sg1042
F-2.0
sg1050
F-1.0
sg1058
F-1.0
sg1066
F-1.0
sg1074
F0.150371038433526
sg1082
F-1.0
sg1090
F-2.0
sg1098
g2419
sg1106
F-2.0
sg1114
F0.0
sg1122
F-2.0
sg1130
S'1010'
p2455
sg1139
F-1.0
sg1147
F-2.0
sg1155
F18.0
sg1163
F-2.0
sg1171
F-1.0
sg1179
F-1.0
sg1187
F-1.0
sg1195
F-2.0
ssS'FieldsText'
p2456
(dp2457
g12
g3
(g4
(S'S10'
p2458
I0
I1
tp2459
Rp2460
(I3
S'|'
p2461
NNNI10
I1
I0
tp2462
bS'[Fe/H]_fit'
p2463
tp2464
Rp2465
sg20
g3
(g4
(S'S10'
p2466
I0
I1
tp2467
Rp2468
(I3
S'|'
p2469
NNNI10
I1
I0
tp2470
bS'Star 2 Id.'
p2471
tp2472
Rp2473
sg29
g3
(g4
(S'S3'
p2474
I0
I1
tp2475
Rp2476
(I3
S'|'
p2477
NNNI3
I1
I0
tp2478
bS'B-V'
p2479
tp2480
Rp2481
sg37
g3
(g4
(S'S15'
p2482
I0
I1
tp2483
Rp2484
(I3
S'|'
p2485
NNNI15
I1
I0
tp2486
bS'v_2 sin i_2,err'
p2487
tp2488
Rp2489
sg45
g3
(g4
(S'S3'
p2490
I0
I1
tp2491
Rp2492
(I3
S'|'
p2493
NNNI3
I1
I0
tp2494
bS'No.'
p2495
tp2496
Rp2497
sg53
g3
(g4
(S'S3'
p2498
I0
I1
tp2499
Rp2500
(I3
S'|'
p2501
NNNI3
I1
I0
tp2502
bS'T_2'
p2503
tp2504
Rp2505
sg61
g3
(g4
(S'S11'
p2506
I0
I1
tp2507
Rp2508
(I3
S'|'
p2509
NNNI11
I1
I0
tp2510
bS'log g_2,err'
p2511
tp2512
Rp2513
sg69
g3
(g4
(S'S11'
p2514
I0
I1
tp2515
Rp2516
(I3
S'|'
p2517
NNNI11
I1
I0
tp2518
bS'P_rot,2,err'
p2519
tp2520
Rp2521
sg77
g3
(g4
(S'S7'
p2522
I0
I1
tp2523
Rp2524
(I3
S'|'
p2525
NNNI7
I1
I0
tp2526
bS'R_1,err'
p2527
tp2528
Rp2529
sg85
g3
(g4
(S'S3'
p2530
I0
I1
tp2531
Rp2532
(I3
S'|'
p2533
NNNI3
I1
I0
tp2534
bS'R_2'
p2535
tp2536
Rp2537
sg93
g3
(g4
(S'S8'
p2538
I0
I1
tp2539
Rp2540
(I3
S'|'
p2541
NNNI8
I1
I0
tp2542
bS'\\tau_max'
p2543
tp2544
Rp2545
sg101
g3
(g4
(S'S3'
p2546
I0
I1
tp2547
Rp2548
(I3
S'|'
p2549
NNNI3
I1
I0
tp2550
bS'M_2'
p2551
tp2552
Rp2553
sg109
g3
(g4
(S'S10'
p2554
I0
I1
tp2555
Rp2556
(I3
S'|'
p2557
NNNI10
I1
I0
tp2558
bS'System Id.'
p2559
tp2560
Rp2561
sg118
g3
(g4
(S'S5'
p2562
I0
I1
tp2563
Rp2564
(I3
S'|'
p2565
NNNI5
I1
I0
tp2566
bS'Z_fit'
p2567
tp2568
Rp2569
sg134
g3
(g4
(S'S3'
p2570
I0
I1
tp2571
Rp2572
(I3
S'|'
p2573
NNNI3
I1
I0
tp2574
bS'DEC'
p2575
tp2576
Rp2577
sg142
g3
(g4
(S'S4'
p2578
I0
I1
tp2579
Rp2580
(I3
S'|'
p2581
NNNI4
I1
I0
tp2582
bS'Type'
p2583
tp2584
Rp2585
sg151
g3
(g4
(S'S11'
p2586
I0
I1
tp2587
Rp2588
(I3
S'|'
p2589
NNNI11
I1
I0
tp2590
bS'log g_2,err'
p2591
tp2592
Rp2593
sg159
g3
(g4
(S'S7'
p2594
I0
I1
tp2595
Rp2596
(I3
S'|'
p2597
NNNI7
I1
I0
tp2598
bS'R_2,err'
p2599
tp2600
Rp2601
sg167
g3
(g4
(S'S10'
p2602
I0
I1
tp2603
Rp2604
(I3
S'|'
p2605
NNNI10
I1
I0
tp2606
bS'Sp. Type 1'
p2607
tp2608
Rp2609
sg355
g3
(g4
(S'S10'
p2610
I0
I1
tp2611
Rp2612
(I3
S'|'
p2613
NNNI10
I1
I0
tp2614
bS'Sp. Type 2'
p2615
tp2616
Rp2617
sg363
g3
(g4
(S'S11'
p2618
I0
I1
tp2619
Rp2620
(I3
S'|'
p2621
NNNI11
I1
I0
tp2622
bS'Source Cat.'
p2623
tp2624
Rp2625
sg372
g3
(g4
(S'S8'
p2626
I0
I1
tp2627
Rp2628
(I3
S'|'
p2629
NNNI8
I1
I0
tp2630
bS'log g_2 '
p2631
tp2632
Rp2633
sg380
g3
(g4
(S'S11'
p2634
I0
I1
tp2635
Rp2636
(I3
S'|'
p2637
NNNI11
I1
I0
tp2638
bS'v_2 sin i_2'
p2639
tp2640
Rp2641
sg388
g3
(g4
(S'S10'
p2642
I0
I1
tp2643
Rp2644
(I3
S'|'
p2645
NNNI10
I1
I0
tp2646
bS'Source Id.'
p2647
tp2648
Rp2649
sg886
g3
(g4
(S'S7'
p2650
I0
I1
tp2651
Rp2652
(I3
S'|'
p2653
NNNI7
I1
I0
tp2654
bS'log g_1'
p2655
tp2656
Rp2657
sg894
g3
(g4
(S'S9'
p2658
I0
I1
tp2659
Rp2660
(I3
S'|'
p2661
NNNI9
I1
I0
tp2662
bS'P_rot,v,1'
p2663
tp2664
Rp2665
sg902
g3
(g4
(S'S8'
p2666
I0
I1
tp2667
Rp2668
(I3
S'|'
p2669
NNNI8
I1
I0
tp2670
bS'ADS Link'
p2671
tp2672
Rp2673
sg911
g3
(g4
(S'S3'
p2674
I0
I1
tp2675
Rp2676
(I3
S'|'
p2677
NNNI3
I1
I0
tp2678
bS'M_1'
p2679
tp2680
Rp2681
sg919
g3
(g4
(S'S3'
p2682
I0
I1
tp2683
Rp2684
(I3
S'|'
p2685
NNNI3
I1
I0
tp2686
bS'R_1'
p2687
tp2688
Rp2689
sg927
g3
(g4
(S'S11'
p2690
I0
I1
tp2691
Rp2692
(I3
S'|'
p2693
NNNI11
I1
I0
tp2694
bS'P_rot,1,err'
p2695
tp2696
Rp2697
sg935
g3
(g4
(S'S3'
p2698
I0
I1
tp2699
Rp2700
(I3
S'|'
p2701
NNNI3
I1
I0
tp2702
bS'T_1'
p2703
tp2704
Rp2705
sg943
g3
(g4
(S'S5'
p2706
I0
I1
tp2707
Rp2708
(I3
S'|'
p2709
NNNI5
I1
I0
tp2710
bS'i_bin'
p2711
tp2712
Rp2713
sg951
g3
(g4
(S'S7'
p2714
I0
I1
tp2715
Rp2716
(I3
S'|'
p2717
NNNI7
I1
I0
tp2718
bS'P_rot,2'
p2719
tp2720
Rp2721
sg959
g3
(g4
(S'S5'
p2722
I0
I1
tp2723
Rp2724
(I3
S'|'
p2725
NNNI5
I1
I0
tp2726
bS'e_bin'
p2727
tp2728
Rp2729
sg967
g3
(g4
(S'S7'
p2730
I0
I1
tp2731
Rp2732
(I3
S'|'
p2733
NNNI7
I1
I0
tp2734
bS'M_1,err'
p2735
tp2736
Rp2737
sg975
g3
(g4
(S'S5'
p2738
I0
I1
tp2739
Rp2740
(I3
S'|'
p2741
NNNI5
I1
I0
tp2742
bS'd,err'
p2743
tp2744
Rp2745
sg983
g3
(g4
(S'S7'
p2746
I0
I1
tp2747
Rp2748
(I3
S'|'
p2749
NNNI7
I1
I0
tp2750
bS'Planets'
p2751
tp2752
Rp2753
sg992
g3
(g4
(S'S7'
p2754
I0
I1
tp2755
Rp2756
(I3
S'|'
p2757
NNNI7
I1
I0
tp2758
bS'T_2,err'
p2759
tp2760
Rp2761
sg1000
g3
(g4
(S'S1'
p2762
I0
I1
tp2763
Rp2764
(I3
S'|'
p2765
NNNI1
I1
I0
tp2766
bS'q'
p2767
tp2768
Rp2769
sg1008
g3
(g4
(S'S5'
p2770
I0
I1
tp2771
Rp2772
(I3
S'|'
p2773
NNNI5
I1
I0
tp2774
bS'Notes'
p2775
tp2776
Rp2777
sg1017
g3
(g4
(S'S10'
p2778
I0
I1
tp2779
Rp2780
(I3
S'|'
p2781
NNNI10
I1
I0
tp2782
bS'Star 1 Id.'
p2783
tp2784
Rp2785
sg1026
g3
(g4
(S'S2'
p2786
I0
I1
tp2787
Rp2788
(I3
S'|'
p2789
NNNI2
I1
I0
tp2790
bS'RA'
p2791
tp2792
Rp2793
sg1034
g3
(g4
(S'S14'
p2794
I0
I1
tp2795
Rp2796
(I3
S'|'
p2797
NNNI14
I1
I0
tp2798
bS'[Fe/H]_fit,err'
p2799
tp2800
Rp2801
sg1042
g3
(g4
(S'S7'
p2802
I0
I1
tp2803
Rp2804
(I3
S'|'
p2805
NNNI7
I1
I0
tp2806
bS'P_rot,1'
p2807
tp2808
Rp2809
sg1050
g3
(g4
(S'S1'
p2810
I0
I1
tp2811
Rp2812
(I3
S'|'
p2813
NNNI1
I1
I0
tp2814
bS'd'
p2815
tp2816
Rp2817
sg1058
g3
(g4
(S'S10'
p2818
I0
I1
tp2819
Rp2820
(I3
S'|'
p2821
NNNI10
I1
I0
tp2822
bS'\\omega_bin'
p2823
tp2824
Rp2825
sg1066
g3
(g4
(S'S13'
p2826
I0
I1
tp2827
Rp2828
(I3
S'|'
p2829
NNNI13
I1
I0
tp2830
bS'P_rot,v,2,err'
p2831
tp2832
Rp2833
sg1074
g3
(g4
(S'S5'
p2834
I0
I1
tp2835
Rp2836
(I3
S'|'
p2837
NNNI5
I1
I0
tp2838
bS'a_bin'
p2839
tp2840
Rp2841
sg1082
g3
(g4
(S'S9'
p2842
I0
I1
tp2843
Rp2844
(I3
S'|'
p2845
NNNI9
I1
I0
tp2846
bS'P_rot,v,2'
p2847
tp2848
Rp2849
sg1090
g3
(g4
(S'S1'
p2850
I0
I1
tp2851
Rp2852
(I3
S'|'
p2853
NNNI1
I1
I0
tp2854
bg143
tp2855
Rp2856
sg1098
g3
(g4
(S'S7'
p2857
I0
I1
tp2858
Rp2859
(I3
S'|'
p2860
NNNI7
I1
I0
tp2861
bS'Cat.Id.'
p2862
tp2863
Rp2864
sg1106
g3
(g4
(S'S3'
p2865
I0
I1
tp2866
Rp2867
(I3
S'|'
p2868
NNNI3
I1
I0
tp2869
bS'L_x'
p2870
tp2871
Rp2872
sg1114
g3
(g4
(S'S7'
p2873
I0
I1
tp2874
Rp2875
(I3
S'|'
p2876
NNNI7
I1
I0
tp2877
bS'M_2,err'
p2878
tp2879
Rp2880
sg1122
g3
(g4
(S'S15'
p2881
I0
I1
tp2882
Rp2883
(I3
S'|'
p2884
NNNI15
I1
I0
tp2885
bS'v_1 sin i_1,err'
p2886
tp2887
Rp2888
sg1130
g3
(g4
(S'S3'
p2889
I0
I1
tp2890
Rp2891
(I3
S'|'
p2892
NNNI3
I1
I0
tp2893
bS'No.'
p2894
tp2895
Rp2896
sg1139
g3
(g4
(S'S10'
p2897
I0
I1
tp2898
Rp2899
(I3
S'|'
p2900
NNNI10
I1
I0
tp2901
bS'[Fe/H]_obs'
p2902
tp2903
Rp2904
sg1147
g3
(g4
(S'S8'
p2905
I0
I1
tp2906
Rp2907
(I3
S'|'
p2908
NNNI8
I1
I0
tp2909
bS'\\tau_min'
p2910
tp2911
Rp2912
sg1155
g3
(g4
(S'S5'
p2913
I0
I1
tp2914
Rp2915
(I3
S'|'
p2916
NNNI5
I1
I0
tp2917
bS'P_bin'
p2918
tp2919
Rp2920
sg1163
g3
(g4
(S'S11'
p2921
I0
I1
tp2922
Rp2923
(I3
S'|'
p2924
NNNI11
I1
I0
tp2925
bS'v_1 sin i,1'
p2926
tp2927
Rp2928
sg1171
g3
(g4
(S'S5'
p2929
I0
I1
tp2930
Rp2931
(I3
S'|'
p2932
NNNI5
I1
I0
tp2933
bS'Z_obs'
p2934
tp2935
Rp2936
sg1179
g3
(g4
(S'S13'
p2937
I0
I1
tp2938
Rp2939
(I3
S'|'
p2940
NNNI13
I1
I0
tp2941
bS'P_rot,v,1,err'
p2942
tp2943
Rp2944
sg1187
g3
(g4
(S'S5'
p2945
I0
I1
tp2946
Rp2947
(I3
S'|'
p2948
NNNI5
I1
I0
tp2949
bS'd_mod'
p2950
tp2951
Rp2952
sg1195
g3
(g4
(S'S7'
p2953
I0
I1
tp2954
Rp2955
(I3
S'|'
p2956
NNNI7
I1
I0
tp2957
bS'T_1,err'
p2958
tp2959
Rp2960
ssS'Fields'
p2961
(lp2962
g45
ag1130
ag142
ag1098
ag363
ag388
ag109
ag1017
ag911
ag967
ag919
ag77
ag935
ag1195
ag886
ag151
ag1163
ag1122
ag894
ag1179
ag1042
ag927
ag167
ag20
ag101
ag1114
ag85
ag159
ag53
ag992
ag372
ag61
ag380
ag37
ag1082
ag1066
ag951
ag69
ag355
ag1000
ag1155
ag1074
ag959
ag1058
ag118
ag12
ag1034
ag1171
ag1139
ag943
ag1147
ag93
ag1090
ag29
ag1050
ag975
ag1187
ag1106
ag1026
ag134
ag983
ag1008
ag902
asS'PlanetFieldsType'
p2963
(dp2964
g179
g3
(g4
(S'S3'
p2965
I0
I1
tp2966
Rp2967
(I3
S'|'
p2968
NNNI3
I1
I0
tp2969
bS'str'
p2970
tp2971
Rp2972
sg188
g3
(g4
(S'S5'
p2973
I0
I1
tp2974
Rp2975
(I3
S'|'
p2976
NNNI5
I1
I0
tp2977
bS'float'
p2978
tp2979
Rp2980
sg196
g3
(g4
(S'S5'
p2981
I0
I1
tp2982
Rp2983
(I3
S'|'
p2984
NNNI5
I1
I0
tp2985
bS'float'
p2986
tp2987
Rp2988
sg204
g3
(g4
(S'S3'
p2989
I0
I1
tp2990
Rp2991
(I3
S'|'
p2992
NNNI3
I1
I0
tp2993
bS'str'
p2994
tp2995
Rp2996
sg213
g3
(g4
(S'S5'
p2997
I0
I1
tp2998
Rp2999
(I3
S'|'
p3000
NNNI5
I1
I0
tp3001
bS'float'
p3002
tp3003
Rp3004
sg221
g3
(g4
(S'S3'
p3005
I0
I1
tp3006
Rp3007
(I3
S'|'
p3008
NNNI3
I1
I0
tp3009
bS'str'
p3010
tp3011
Rp3012
sg230
g3
(g4
(S'S3'
p3013
I0
I1
tp3014
Rp3015
(I3
S'|'
p3016
NNNI3
I1
I0
tp3017
bS'str'
p3018
tp3019
Rp3020
sg239
g3
(g4
(S'S5'
p3021
I0
I1
tp3022
Rp3023
(I3
S'|'
p3024
NNNI5
I1
I0
tp3025
bS'float'
p3026
tp3027
Rp3028
sg247
g3
(g4
(S'S3'
p3029
I0
I1
tp3030
Rp3031
(I3
S'|'
p3032
NNNI3
I1
I0
tp3033
bS'str'
p3034
tp3035
Rp3036
sg256
g3
(g4
(S'S5'
p3037
I0
I1
tp3038
Rp3039
(I3
S'|'
p3040
NNNI5
I1
I0
tp3041
bS'float'
p3042
tp3043
Rp3044
sg264
g3
(g4
(S'S5'
p3045
I0
I1
tp3046
Rp3047
(I3
S'|'
p3048
NNNI5
I1
I0
tp3049
bS'float'
p3050
tp3051
Rp3052
sg272
g3
(g4
(S'S3'
p3053
I0
I1
tp3054
Rp3055
(I3
S'|'
p3056
NNNI3
I1
I0
tp3057
bS'str'
p3058
tp3059
Rp3060
sg281
g3
(g4
(S'S5'
p3061
I0
I1
tp3062
Rp3063
(I3
S'|'
p3064
NNNI5
I1
I0
tp3065
bS'float'
p3066
tp3067
Rp3068
sg289
g3
(g4
(S'S5'
p3069
I0
I1
tp3070
Rp3071
(I3
S'|'
p3072
NNNI5
I1
I0
tp3073
bS'float'
p3074
tp3075
Rp3076
sg297
g3
(g4
(S'S5'
p3077
I0
I1
tp3078
Rp3079
(I3
S'|'
p3080
NNNI5
I1
I0
tp3081
bS'float'
p3082
tp3083
Rp3084
sg305
g3
(g4
(S'S5'
p3085
I0
I1
tp3086
Rp3087
(I3
S'|'
p3088
NNNI5
I1
I0
tp3089
bS'float'
p3090
tp3091
Rp3092
sg313
g3
(g4
(S'S5'
p3093
I0
I1
tp3094
Rp3095
(I3
S'|'
p3096
NNNI5
I1
I0
tp3097
bS'float'
p3098
tp3099
Rp3100
sg321
g3
(g4
(S'S5'
p3101
I0
I1
tp3102
Rp3103
(I3
S'|'
p3104
NNNI5
I1
I0
tp3105
bS'float'
p3106
tp3107
Rp3108
sg329
g3
(g4
(S'S3'
p3109
I0
I1
tp3110
Rp3111
(I3
S'|'
p3112
NNNI3
I1
I0
tp3113
bS'str'
p3114
tp3115
Rp3116
sg338
g3
(g4
(S'S3'
p3117
I0
I1
tp3118
Rp3119
(I3
S'|'
p3120
NNNI3
I1
I0
tp3121
bS'str'
p3122
tp3123
Rp3124
sg347
g3
(g4
(S'S5'
p3125
I0
I1
tp3126
Rp3127
(I3
S'|'
p3128
NNNI5
I1
I0
tp3129
bS'float'
p3130
tp3131
Rp3132
ssS'BHMCatS0025P'
p3133
(dp3134
g12
F-1.0
sg20
S'HP Dra B'
p3135
sg29
F-1.0
sg37
F0.01
sg45
I25
sg53
F5895.0
sg61
F0.011
sg69
F-1.0
sg77
F0.012
sg85
F1.052
sg93
F-1.0
sg101
F1.094
sg109
S'HP Dra'
p3136
sg118
F-1.0
sg134
F51.308274999999995
sg142
g1200
sg151
F0.01
sg159
F0.01
sg167
S'F9V'
p3137
sg169
(lp3138
(dp3139
g179
S'BHMCatPP0026'
p3140
sg188
F0.0
sg196
F0.0
sg204
S'BHMCatS0025P'
p3141
sg213
F0.0
sg221
S'26'
p3142
sg230
g231
sg239
F1.000001
sg247
S'0026'
p3143
sg256
F0.0
sg264
F0.0
sg272
S'HP Dra'
p3144
sg281
F1.000001
sg289
F0.0
sg297
F1.0
sg305
F0.0
sg313
F0.0
sg321
F1.0
sg329
S'HP Drah'
p3145
sg338
g339
sg347
F0.0
sasg355
S'F9V'
p3146
sg363
S'EkCat'
p3147
sg372
F4.433
sg380
F4.43
sg388
S'176'
p3148
sg390
(dp3149
S'BHMCatPP0026'
p3150
(dp3151
g401
F7.0
sg409
F0.0
sg417
F0.0
sg425
F0.0
sg433
F1.0
sg441
F0.0
sg449
F11.3
sg457
S"'early mars'"
p3152
sg466
F4.5
sg474
F1.5
sg482
F1.000001
sg490
F0.002
sg498
F1.0
sg506
F1.0
sg514
F0.0
sg522
S'Chaboyer'
p3153
sg531
F2.0
sg539
F0.95
sg547
F0.275556
sg555
F0.95
sg563
F1.000001
sg571
F5e+40
sg579
F4.7e+40
sg587
F1.5
sg595
F44.0
sg603
F0.0
sg611
F0.275556
sg619
F5.0
sg627
F1.0
sg635
S'Chaboyer'
p3154
sg644
F0.0
sg652
F0.3
sg660
S"'maximum greenhouse'"
p3155
sg669
F0.3
sg677
F1.0
sg685
S"'Saturn'"
p3156
sg694
F0.01
sg702
F10.0
sg710
F1.0
sg718
F2.0
sg726
F3.0
sg734
S'PARSEC'
p3157
sg743
S'PARSEC'
p3158
sg752
F5e+40
sg760
F4.7e+40
sg768
S'BHMCatPP0026'
p3159
sg777
F0.01
sg785
S'BHMCatS0025P'
p3160
sg794
S'HP Drah'
p3161
sg803
F7.0
sg811
S'HP Dra'
p3162
sg820
S"'recent venus'"
p3163
sg829
S"'runaway greenhouse'"
p3164
sg838
F11.3
sg846
F0.0
sg854
F1.0
sg862
F5.0
sg870
F0.002
sg878
F0.3
sssg886
F4.218
sg894
g3
(g121
S'V\x1a\x88\xcd\x86k0@'
p3165
tp3166
Rp3167
sg902
S'2010AJ....140..129M;'
p3168
sg911
F1.133
sg919
F1.371
sg927
F-1.0
sg935
F6000.0
sg943
F87.82
sg951
F-1.0
sg959
F0.037
sg967
F0.005
sg975
F3.0
sg983
S'BHMCatPP0026;'
p3169
sg992
F150.0
sg1000
F0.965578111209179
sg1008
S'DEBCat'
p3170
sg1017
S'HP Dra A'
p3171
sg1026
F18.914855555555555
sg1034
F-1.0
sg1042
F-1.0
sg1050
F77.0
sg1058
F-1.0
sg1066
g3
(g121
S'\xb3\t\xa1\x87D\xbe\x9b?'
p3172
tp3173
Rp3174
sg1074
F0.124699212433155
sg1082
g3
(g121
S'\xe4\xd5YK \x01(@'
p3175
tp3176
Rp3177
sg1090
F7.951
sg1098
g3133
sg1106
F-1.0
sg1114
F0.007
sg1122
F0.01
sg1130
S'0025'
p3178
sg1139
F-1.0
sg1147
F-1.0
sg1155
F10.76152
sg1163
F4.22
sg1171
F-1.0
sg1179
g3
(g121
S'kJ\x8ff\x03\xec\xa3?'
p3179
tp3180
Rp3181
sg1187
F-1.0
sg1195
F150.0
ssS'BHMCatS0019P'
p3182
(dp3183
g12
F-1.0
sg20
S'V565 Lyr B'
p3184
sg29
F-1.0
sg37
F1.0
sg45
I19
sg53
F5430.0
sg61
F0.008
sg69
F-1.0
sg77
F0.007
sg85
F0.971
sg93
F-1.0
sg101
F0.929
sg109
S'V565 Lyr'
p3185
sg118
F-1.0
sg134
F37.76925
sg142
g1200
sg151
F0.0053
sg159
F0.009
sg167
S'G type'
p3186
sg169
(lp3187
(dp3188
g179
S'BHMCatPP0020'
p3189
sg188
F0.0
sg196
F0.0
sg204
S'BHMCatS0019P'
p3190
sg213
F0.0
sg221
S'20'
p3191
sg230
g231
sg239
F1.000001
sg247
S'0020'
p3192
sg256
F0.0
sg264
F0.0
sg272
S'V565 Lyr'
p3193
sg281
F1.000001
sg289
F0.0
sg297
F1.0
sg305
F0.0
sg313
F0.0
sg321
F1.0
sg329
S'V565 Lyrh'
p3194
sg338
g339
sg347
F0.0
sasg355
S'G type'
p3195
sg363
S'EkCat'
p3196
sg372
F4.4319
sg380
F3.5
sg388
S'187'
p3197
sg390
(dp3198
S'BHMCatPP0020'
p3199
(dp3200
g401
F7.0
sg409
F0.0
sg417
F0.0
sg425
F0.0
sg433
F1.0
sg441
F0.0
sg449
F11.3
sg457
S"'early mars'"
p3201
sg466
F4.5
sg474
F1.5
sg482
F1.000001
sg490
F0.002
sg498
F1.0
sg506
F1.0
sg514
F0.0
sg522
S'Chaboyer'
p3202
sg531
F2.0
sg539
F0.95
sg547
F0.275556
sg555
F0.95
sg563
F1.000001
sg571
F5e+40
sg579
F4.7e+40
sg587
F1.5
sg595
F44.0
sg603
F0.0
sg611
F0.275556
sg619
F5.0
sg627
F1.0
sg635
S'Chaboyer'
p3203
sg644
F0.0
sg652
F0.3
sg660
S"'maximum greenhouse'"
p3204
sg669
F0.3
sg677
F1.0
sg685
S"'Saturn'"
p3205
sg694
F0.01
sg702
F10.0
sg710
F1.0
sg718
F2.0
sg726
F3.0
sg734
S'PARSEC'
p3206
sg743
S'PARSEC'
p3207
sg752
F5e+40
sg760
F4.7e+40
sg768
S'BHMCatPP0020'
p3208
sg777
F0.01
sg785
S'BHMCatS0019P'
p3209
sg794
S'V565 Lyrh'
p3210
sg803
F7.0
sg811
S'V565 Lyr'
p3211
sg820
S"'recent venus'"
p3212
sg829
S"'runaway greenhouse'"
p3213
sg838
F11.3
sg846
F0.0
sg854
F1.0
sg862
F5.0
sg870
F0.002
sg878
F0.3
sssg886
F4.3524
sg894
g3
(g121
S'@\x96\x81(w\xd7+@'
p3214
tp3215
Rp3216
sg902
S'2011A&A...525A...2B;'
p3217
sg911
F0.996
sg919
F1.101
sg927
F-1.0
sg935
F5600.0
sg943
F89.38
sg951
F-1.0
sg959
F0.02
sg967
F0.003
sg975
F250.0
sg983
S'BHMCatPP0020;'
p3218
sg992
F125.0
sg1000
F0.932730923694779
sg1008
S'DEBCat'
p3219
sg1017
S'V565 Lyr A'
p3220
sg1026
F19.34697222222222
sg1034
F-1.0
sg1042
F-1.0
sg1050
F4010.0
sg1058
F-1.0
sg1066
g3
(g121
S'\x9fL\xbd\xcc\x12\t\x10@'
p3221
tp3222
Rp3223
sg1074
F0.172270169919786
sg1082
g3
(g121
S'\x16FK\xe6\xe0\x0f,@'
p3224
tp3225
Rp3226
sg1090
F17.73
sg1098
g3182
sg1106
F-1.0
sg1114
F0.003
sg1122
F1.0
sg1130
S'0019'
p3227
sg1139
F-1.0
sg1147
F-1.0
sg1155
F18.798638
sg1163
F4.0
sg1171
F-1.0
sg1179
g3
(g121
S'@\x96\x81(w\xd7\x0b@'
p3228
tp3229
Rp3230
sg1187
F-1.0
sg1195
F95.0
ssS'BHMCatS0031P'
p3231
(dp3232
g12
F-1.0
sg20
S'M4-V66 B'
p3233
sg29
F-1.0
sg37
F-1.0
sg45
I31
sg53
F5938.0
sg61
F0.085
sg69
F-1.0
sg77
F0.005
sg85
F0.83
sg93
F-1.0
sg101
F0.744
sg109
S'M4-V66'
p3234
sg118
F-1.0
sg134
F-25.471861111111114
sg142
g1200
sg151
F0.077
sg159
F0.005
sg167
S'F type'
p3235
sg169
(lp3236
(dp3237
g179
S'BHMCatPP0032'
p3238
sg188
F0.0
sg196
F0.0
sg204
S'BHMCatS0031P'
p3239
sg213
F0.0
sg221
S'32'
p3240
sg230
g231
sg239
F1.000001
sg247
S'0032'
p3241
sg256
F0.0
sg264
F0.0
sg272
S'M4-V66'
p3242
sg281
F1.000001
sg289
F0.0
sg297
F1.0
sg305
F0.0
sg313
F0.0
sg321
F1.0
sg329
S'M4-V66h'
p3243
sg338
g339
sg347
F0.0
sasg355
S'G type'
p3244
sg363
S'EkCat'
p3245
sg372
F4.469
sg380
F-1.0
sg388
S'140'
p3246
sg390
(dp3247
S'BHMCatPP0032'
p3248
(dp3249
g401
F7.0
sg409
F0.0
sg417
F0.0
sg425
F0.0
sg433
F1.0
sg441
F0.0
sg449
F11.3
sg457
S"'early mars'"
p3250
sg466
F4.5
sg474
F1.5
sg482
F1.000001
sg490
F0.002
sg498
F1.0
sg506
F1.0
sg514
F0.0
sg522
S'Chaboyer'
p3251
sg531
F2.0
sg539
F0.95
sg547
F0.275556
sg555
F0.95
sg563
F1.000001
sg571
F5e+40
sg579
F4.7e+40
sg587
F1.5
sg595
F44.0
sg603
F0.0
sg611
F0.275556
sg619
F5.0
sg627
F1.0
sg635
S'Chaboyer'
p3252
sg644
F0.0
sg652
F0.3
sg660
S"'maximum greenhouse'"
p3253
sg669
F0.3
sg677
F1.0
sg685
S"'Saturn'"
p3254
sg694
F0.01
sg702
F10.0
sg710
F1.0
sg718
F2.0
sg726
F3.0
sg734
S'PARSEC'
p3255
sg743
S'PARSEC'
p3256
sg752
F5e+40
sg760
F4.7e+40
sg768
S'BHMCatPP0032'
p3257
sg777
F0.01
sg785
S'BHMCatS0031P'
p3258
sg794
S'M4-V66h'
p3259
sg803
F7.0
sg811
S'M4-V66'
p3260
sg820
S"'recent venus'"
p3261
sg829
S"'runaway greenhouse'"
p3262
sg838
F11.3
sg846
F0.0
sg854
F1.0
sg862
F5.0
sg870
F0.002
sg878
F0.3
sssg886
F4.388
sg894
F-1.0
sg902
S'2013AJ....145...43K;'
p3263
sg911
F0.784
sg919
F0.934
sg927
F-1.0
sg935
F6162.0
sg943
F89.44
sg951
F-1.0
sg959
F0.0
sg967
F0.004
sg975
F30.0
sg983
S'BHMCatPP0032;'
p3264
sg992
F105.0
sg1000
F0.948979591836735
sg1008
g1009
sg1017
S'M4-V66 A'
p3265
sg1026
F16.392286111111112
sg1034
F-1.0
sg1042
F-1.0
sg1050
F1850.0
sg1058
F-1.0
sg1066
F-1.0
sg1074
F0.0910457855614973
sg1082
F-1.0
sg1090
F16.84
sg1098
g3231
sg1106
F-1.0
sg1114
F0.004
sg1122
F-1.0
sg1130
S'0031'
p3266
sg1139
F-1.0
sg1147
F-1.0
sg1155
F8.11130346
sg1163
F-1.0
sg1171
F-1.0
sg1179
F-1.0
sg1187
F-1.0
sg1195
F98.0
ssS'BHMCatS0009P'
p3267
(dp3268
g12
F-1.0
sg20
S'KX Cnc B'
p3269
sg29
F0.56
sg37
F-1.0
sg45
I9
sg53
F5847.0
sg61
F-1.0
sg69
F-1.0
sg77
F0.002
sg85
F1.049
sg93
F-1.0
sg101
F1.131
sg109
S'KX Cnc'
p3270
sg118
F-1.0
sg134
F31.86138888888889
sg142
g1200
sg151
F-1.0
sg159
F0.002
sg167
S'G0V'
p3271
sg169
(lp3272
(dp3273
g179
S'BHMCatPP0010'
p3274
sg188
F0.0
sg196
F0.0
sg204
S'BHMCatS0009P'
p3275
sg213
F0.0
sg221
S'10'
p3276
sg230
g231
sg239
F1.000001
sg247
S'0010'
p3277
sg256
F0.0
sg264
F0.0
sg272
S'KX Cnc'
p3278
sg281
F1.000001
sg289
F0.0
sg297
F1.0
sg305
F0.0
sg313
F0.0
sg321
F1.0
sg329
S'KX Cnch'
p3279
sg338
g339
sg347
F0.0
sasg355
S'G0V'
p3280
sg363
S'DEBCat'
p3281
sg372
F-1.0
sg380
F-1.0
sg388
S'39'
p3282
sg390
(dp3283
S'BHMCatPP0010'
p3284
(dp3285
g401
F7.0
sg409
F0.0
sg417
F0.0
sg425
F0.0
sg433
F1.0
sg441
F0.0
sg449
F11.3
sg457
S"'early mars'"
p3286
sg466
F4.5
sg474
F1.5
sg482
F1.000001
sg490
F0.002
sg498
F1.0
sg506
F1.0
sg514
F0.0
sg522
S'Chaboyer'
p3287
sg531
F2.0
sg539
F0.95
sg547
F0.275556
sg555
F0.95
sg563
F1.000001
sg571
F5e+40
sg579
F4.7e+40
sg587
F1.5
sg595
F44.0
sg603
F0.0
sg611
F0.275556
sg619
F5.0
sg627
F1.0
sg635
S'Chaboyer'
p3288
sg644
F0.0
sg652
F0.3
sg660
S"'maximum greenhouse'"
p3289
sg669
F0.3
sg677
F1.0
sg685
S"'Saturn'"
p3290
sg694
F0.01
sg702
F10.0
sg710
F1.0
sg718
F2.0
sg726
F3.0
sg734
S'PARSEC'
p3291
sg743
S'PARSEC'
p3292
sg752
F5e+40
sg760
F4.7e+40
sg768
S'BHMCatPP0010'
p3293
sg777
F0.01
sg785
S'BHMCatS0009P'
p3294
sg794
S'KX Cnch'
p3295
sg803
F7.0
sg811
S'KX Cnc'
p3296
sg820
S"'recent venus'"
p3297
sg829
S"'runaway greenhouse'"
p3298
sg838
F11.3
sg846
F0.0
sg854
F1.0
sg862
F5.0
sg870
F0.002
sg878
F0.3
sssg886
F-1.0
sg894
F-1.0
sg902
S'2006PZP.....6...14D;'
p3299
sg911
F1.138
sg919
F1.064
sg927
F-1.0
sg935
F5902.0
sg943
F-1.0
sg951
F-1.0
sg959
F0.4666
sg967
F0.003
sg975
F-1.0
sg983
S'BHMCatPP0010;'
p3300
sg992
F-1.0
sg1000
F0.993848857644991
sg1008
g1009
sg1017
S'KX Cnc A'
p3301
sg1026
F8.71275
sg1034
F-1.0
sg1042
F-1.0
sg1050
F-1.0
sg1058
F-1.0
sg1066
F-1.0
sg1074
F0.2553
sg1082
F-1.0
sg1090
F7.19
sg1098
g3267
sg1106
F-1.0
sg1114
F0.003
sg1122
F-1.0
sg1130
S'0009'
p3302
sg1139
F-1.0
sg1147
F-1.0
sg1155
F31.22
sg1163
F-1.0
sg1171
F-1.0
sg1179
F-1.0
sg1187
g3
(g121
S'\x91\xac\xf7z\xc5DF@'
p3303
tp3304
Rp3305
sg1195
F-1.0
ssS'BHMCatS0021P'
p3306
(dp3307
g12
F-1.0
sg20
S'KIC 6131659 B'
p3308
sg29
F-1.0
sg37
F-1.0
sg45
I21
sg53
F4780.0
sg61
F0.009
sg69
F-1.0
sg77
F0.003
sg85
F0.64
sg93
F-1.0
sg101
F0.685
sg109
S'KIC 6131659'
p3309
sg118
F-1.0
sg134
F41.436905555555555
sg142
g1200
sg151
F0.004
sg159
F0.006
sg167
S'G5V'
p3310
sg169
(lp3311
(dp3312
g179
S'BHMCatPP0022'
p3313
sg188
F0.0
sg196
F0.0
sg204
S'BHMCatS0021P'
p3314
sg213
F0.0
sg221
S'22'
p3315
sg230
g231
sg239
F1.000001
sg247
S'0022'
p3316
sg256
F0.0
sg264
F0.0
sg272
S'KIC 6131659'
p3317
sg281
F1.000001
sg289
F0.0
sg297
F1.0
sg305
F0.0
sg313
F0.0
sg321
F1.0
sg329
S'KIC 6131659h'
p3318
sg338
g339
sg347
F0.0
sasg355
g168
sg363
S'EkCat'
p3319
sg372
F4.66185785287664
sg380
F-1.0
sg388
S'198'
p3320
sg390
(dp3321
S'BHMCatPP0022'
p3322
(dp3323
g401
F7.0
sg409
F0.0
sg417
F0.0
sg425
F0.0
sg433
F1.0
sg441
F0.0
sg449
F11.3
sg457
S"'early mars'"
p3324
sg466
F4.5
sg474
F1.5
sg482
F1.000001
sg490
F0.002
sg498
F1.0
sg506
F1.0
sg514
F0.0
sg522
S'Chaboyer'
p3325
sg531
F2.0
sg539
F0.95
sg547
F0.275556
sg555
F0.95
sg563
F1.000001
sg571
F5e+40
sg579
F4.7e+40
sg587
F1.5
sg595
F44.0
sg603
F0.0
sg611
F0.275556
sg619
F5.0
sg627
F1.0
sg635
S'Chaboyer'
p3326
sg644
F0.0
sg652
F0.3
sg660
S"'maximum greenhouse'"
p3327
sg669
F0.3
sg677
F1.0
sg685
S"'Saturn'"
p3328
sg694
F0.01
sg702
F10.0
sg710
F1.0
sg718
F2.0
sg726
F3.0
sg734
S'PARSEC'
p3329
sg743
S'PARSEC'
p3330
sg752
F5e+40
sg760
F4.7e+40
sg768
S'BHMCatPP0022'
p3331
sg777
F0.01
sg785
S'BHMCatS0021P'
p3332
sg794
S'KIC 6131659h'
p3333
sg803
F7.0
sg811
S'KIC 6131659'
p3334
sg820
S"'recent venus'"
p3335
sg829
S"'runaway greenhouse'"
p3336
sg838
F11.3
sg846
F0.0
sg854
F1.0
sg862
F5.0
sg870
F0.002
sg878
F0.3
sssg886
F4.51361395576685
sg894
F-1.0
sg902
S'2008AN....329..835B;'
p3337
sg911
F0.922
sg919
F0.88
sg927
F-1.0
sg935
F5660.0
sg943
F89.19
sg951
F-1.0
sg959
F0.0
sg967
F0.007
sg975
F31.0
sg983
S'BHMCatPP0022;'
p3338
sg992
F105.0
sg1000
F0.74295010845987
sg1008
S'DEBCat'
p3339
sg1017
S'KIC 6131659 A'
p3340
sg1026
F19.618605555555558
sg1034
F-1.0
sg1042
F-1.0
sg1050
F322.0
sg1058
F-1.0
sg1066
F-1.0
sg1074
F0.154768526069519
sg1082
F-1.0
sg1090
F17.85
sg1098
g3306
sg1106
F-1.0
sg1114
F0.005
sg1122
F-1.0
sg1130
S'0021'
p3341
sg1139
F-1.0
sg1147
F-1.0
sg1155
F17.52782716
sg1163
F-1.0
sg1171
F-1.0
sg1179
F-1.0
sg1187
F-1.0
sg1195
F140.0
ssS'BHMCatS1012V'
p3342
(dp3343
g12
F0.0
sg20
S'NICHE-012 B'
p3344
sg29
F-2.0
sg37
F-2.0
sg45
I1012
sg53
F-2.0
sg61
F-2.0
sg69
F-2.0
sg77
F0.0
sg85
F-2.0
sg93
F-2.0
sg101
F0.55
sg109
S'NICHE-012'
p3345
sg118
g3
(g121
S'0\xa8\x1bgj\x94\x8f?'
p3346
tp3347
Rp3348
sg134
F-2.0
sg142
g143
sg151
F-2.0
sg159
F0.0
sg167
g168
sg169
(lp3349
(dp3350
g179
S'BHMCatPV1012'
p3351
sg188
F0.0
sg196
F0.0
sg204
S'BHMCatS1012V'
p3352
sg213
F0.0
sg221
S'1012'
p3353
sg230
g231
sg239
F1.000001
sg247
S'1012'
p3354
sg256
F0.0
sg264
F0.0
sg272
S'NICHE-012'
p3355
sg281
F1.000001
sg289
F0.0
sg297
F1.0
sg305
F0.0
sg313
F0.0
sg321
F1.0
sg329
S'NICHE-012h'
p3356
sg338
g339
sg347
F0.0
sasg355
g168
sg363
S'NICHE'
p3357
sg372
F-2.0
sg380
F-2.0
sg388
S'12'
p3358
sg390
(dp3359
S'BHMCatPV1012'
p3360
(dp3361
g401
F7.0
sg409
F0.0
sg417
F0.0
sg425
F0.0
sg433
F1.0
sg441
F0.0
sg449
F11.3
sg457
S"'early mars'"
p3362
sg466
F4.5
sg474
F1.5
sg482
F1.000001
sg490
F0.002
sg498
F1.0
sg506
F1.0
sg514
F0.0
sg522
S'Chaboyer'
p3363
sg531
F2.0
sg539
F0.95
sg547
F0.275556
sg555
F0.95
sg563
F1.000001
sg571
F5e+40
sg579
F4.7e+40
sg587
F1.5
sg595
F44.0
sg603
F0.0
sg611
F0.275556
sg619
F5.0
sg627
F1.0
sg635
S'Chaboyer'
p3364
sg644
F0.0
sg652
F0.3
sg660
S"'maximum greenhouse'"
p3365
sg669
F0.3
sg677
F1.0
sg685
S"'Earth'"
p3366
sg694
F0.01
sg702
F10.0
sg710
F1.0
sg718
F2.0
sg726
F3.0
sg734
S'PARSEC'
p3367
sg743
S'PARSEC'
p3368
sg752
F5e+40
sg760
F4.7e+40
sg768
S'BHMCatPV1012'
p3369
sg777
F0.01
sg785
S'BHMCatS1012V'
p3370
sg794
S'NICHE-012h'
p3371
sg803
F7.0
sg811
S'NICHE-012'
p3372
sg820
S"'recent venus'"
p3373
sg829
S"'runaway greenhouse'"
p3374
sg838
F11.3
sg846
F0.0
sg854
F1.0
sg862
F5.0
sg870
F0.002
sg878
F0.3
sssg886
F-2.0
sg894
F-1.0
sg902
S'2014arXiv1408.5163M;'
p3375
sg911
F0.55
sg919
F-2.0
sg927
F-2.0
sg935
F-2.0
sg943
F-2.0
sg951
F-2.0
sg959
F0.3
sg967
F0.0
sg975
F-1.0
sg983
S'BHMCatPV1012;'
p3376
sg992
F-2.0
sg1000
F1.0
sg1008
g1009
sg1017
S'NICHE-012 A'
p3377
sg1026
F-2.0
sg1034
F-1.0
sg1042
F-2.0
sg1050
F-1.0
sg1058
F-1.0
sg1066
F-1.0
sg1074
F0.148852937346155
sg1082
F-1.0
sg1090
F-2.0
sg1098
g3342
sg1106
F-2.0
sg1114
F0.0
sg1122
F-2.0
sg1130
S'1012'
p3378
sg1139
F-1.0
sg1147
F-2.0
sg1155
F20.0
sg1163
F-2.0
sg1171
F-1.0
sg1179
F-1.0
sg1187
F-1.0
sg1195
F-2.0
ssS'PlanetFieldsText'
p3379
(dp3380
g179
g3
(g4
(S'S12'
p3381
I0
I1
tp3382
Rp3383
(I3
S'|'
p3384
NNNI12
I1
I0
tp3385
bS'Plan.Cat.Id.'
p3386
tp3387
Rp3388
sg188
g3
(g4
(S'S7'
p3389
I0
I1
tp3390
Rp3391
(I3
S'|'
p3392
NNNI7
I1
I0
tp3393
bS'M_p,err'
p3394
tp3395
Rp3396
sg196
g3
(g4
(S'S5'
p3397
I0
I1
tp3398
Rp3399
(I3
S'|'
p3400
NNNI5
I1
I0
tp3401
bS'e_orb'
p3402
tp3403
Rp3404
sg204
g3
(g4
(S'S11'
p3405
I0
I1
tp3406
Rp3407
(I3
S'|'
p3408
NNNI11
I1
I0
tp3409
bS'Sys.Cat.Id.'
p3410
tp3411
Rp3412
sg213
g3
(g4
(S'S9'
p3413
I0
I1
tp3414
Rp3415
(I3
S'|'
p3416
NNNI9
I1
I0
tp3417
bS'e_orb,err'
p3418
tp3419
Rp3420
sg221
g3
(g4
(S'S3'
p3421
I0
I1
tp3422
Rp3423
(I3
S'|'
p3424
NNNI3
I1
I0
tp3425
bS'No.'
p3426
tp3427
Rp3428
sg230
g3
(g4
(S'S8'
p3429
I0
I1
tp3430
Rp3431
(I3
S'|'
p3432
NNNI8
I1
I0
tp3433
bS'ADS Link'
p3434
tp3435
Rp3436
sg239
g3
(g4
(S'S3'
p3437
I0
I1
tp3438
Rp3439
(I3
S'|'
p3440
NNNI3
I1
I0
tp3441
bS'R_p'
p3442
tp3443
Rp3444
sg247
g3
(g4
(S'S3'
p3445
I0
I1
tp3446
Rp3447
(I3
S'|'
p3448
NNNI3
I1
I0
tp3449
bS'No.'
p3450
tp3451
Rp3452
sg256
g3
(g4
(S'S5'
p3453
I0
I1
tp3454
Rp3455
(I3
S'|'
p3456
NNNI5
I1
I0
tp3457
bS'P_orb'
p3458
tp3459
Rp3460
sg264
g3
(g4
(S'S9'
p3461
I0
I1
tp3462
Rp3463
(I3
S'|'
p3464
NNNI9
I1
I0
tp3465
bS'a_orb,err'
p3466
tp3467
Rp3468
sg272
g3
(g4
(S'S10'
p3469
I0
I1
tp3470
Rp3471
(I3
S'|'
p3472
NNNI10
I1
I0
tp3473
bS'System Id.'
p3474
tp3475
Rp3476
sg281
g3
(g4
(S'S3'
p3477
I0
I1
tp3478
Rp3479
(I3
S'|'
p3480
NNNI3
I1
I0
tp3481
bS'M_p'
p3482
tp3483
Rp3484
sg289
g3
(g4
(S'S10'
p3485
I0
I1
tp3486
Rp3487
(I3
S'|'
p3488
NNNI10
I1
I0
tp3489
bS'\\omega_orb'
p3490
tp3491
Rp3492
sg297
g3
(g4
(S'S5'
p3493
I0
I1
tp3494
Rp3495
(I3
S'|'
p3496
NNNI5
I1
I0
tp3497
bS'a_orb'
p3498
tp3499
Rp3500
sg305
g3
(g4
(S'S9'
p3501
I0
I1
tp3502
Rp3503
(I3
S'|'
p3504
NNNI9
I1
I0
tp3505
bS'P_orb,err'
p3506
tp3507
Rp3508
sg313
g3
(g4
(S'S14'
p3509
I0
I1
tp3510
Rp3511
(I3
S'|'
p3512
NNNI14
I1
I0
tp3513
bS'\\omega_orb,err'
p3514
tp3515
Rp3516
sg321
g3
(g4
(S'S5'
p3517
I0
I1
tp3518
Rp3519
(I3
S'|'
p3520
NNNI5
I1
I0
tp3521
bS'M_orb'
p3522
tp3523
Rp3524
sg329
g3
(g4
(S'S10'
p3525
I0
I1
tp3526
Rp3527
(I3
S'|'
p3528
NNNI10
I1
I0
tp3529
bS'Planet Id.'
p3530
tp3531
Rp3532
sg338
g3
(g4
(S'S4'
p3533
I0
I1
tp3534
Rp3535
(I3
S'|'
p3536
NNNI4
I1
I0
tp3537
bS'Type'
p3538
tp3539
Rp3540
sg347
g3
(g4
(S'S7'
p3541
I0
I1
tp3542
Rp3543
(I3
S'|'
p3544
NNNI7
I1
I0
tp3545
bS'R_p,err'
p3546
tp3547
Rp3548
ssS'BHMCatS0020P'
p3549
(dp3550
g12
F-1.0
sg20
S'LV Her B'
p3551
sg29
F-1.0
sg37
F1.0
sg45
I20
sg53
F6030.0
sg61
F0.008
sg69
F-1.0
sg77
F0.012
sg85
F1.313
sg93
F-1.0
sg101
F1.17
sg109
S'LV Her'
p3552
sg118
F-1.0
sg134
F23.17516666666667
sg142
g1200
sg151
F0.008
sg159
F0.011
sg167
S'F9V'
p3553
sg169
(lp3554
(dp3555
g179
S'BHMCatPP0021'
p3556
sg188
F0.0
sg196
F0.0
sg204
S'BHMCatS0020P'
p3557
sg213
F0.0
sg221
S'21'
p3558
sg230
g231
sg239
F1.000001
sg247
S'0021'
p3559
sg256
F0.0
sg264
F0.0
sg272
S'LV Her'
p3560
sg281
F1.000001
sg289
F0.0
sg297
F1.0
sg305
F0.0
sg313
F0.0
sg321
F1.0
sg329
S'LV Herh'
p3561
sg338
g339
sg347
F0.0
sasg355
S'F9V'
p3562
sg363
S'EkCat'
p3563
sg372
F4.27
sg380
F13.0
sg388
S'154'
p3564
sg390
(dp3565
S'BHMCatPP0021'
p3566
(dp3567
g401
F7.0
sg409
F0.0
sg417
F0.0
sg425
F0.0
sg433
F1.0
sg441
F0.0
sg449
F11.3
sg457
S"'early mars'"
p3568
sg466
F4.5
sg474
F1.5
sg482
F1.000001
sg490
F0.002
sg498
F1.0
sg506
F1.0
sg514
F0.0
sg522
S'Chaboyer'
p3569
sg531
F2.0
sg539
F0.95
sg547
F0.275556
sg555
F0.95
sg563
F1.000001
sg571
F5e+40
sg579
F4.7e+40
sg587
F1.5
sg595
F44.0
sg603
F0.0
sg611
F0.275556
sg619
F5.0
sg627
F1.0
sg635
S'Chaboyer'
p3570
sg644
F0.0
sg652
F0.3
sg660
S"'maximum greenhouse'"
p3571
sg669
F0.3
sg677
F1.0
sg685
S"'Saturn'"
p3572
sg694
F0.01
sg702
F10.0
sg710
F1.0
sg718
F2.0
sg726
F3.0
sg734
S'PARSEC'
p3573
sg743
S'PARSEC'
p3574
sg752
F5e+40
sg760
F4.7e+40
sg768
S'BHMCatPP0021'
p3575
sg777
F0.01
sg785
S'BHMCatS0020P'
p3576
sg794
S'LV Herh'
p3577
sg803
F7.0
sg811
S'LV Her'
p3578
sg820
S"'recent venus'"
p3579
sg829
S"'runaway greenhouse'"
p3580
sg838
F11.3
sg846
F0.0
sg854
F1.0
sg862
F5.0
sg870
F0.002
sg878
F0.3
sssg886
F4.249
sg894
g3
(g121
S'\x96L\xb1\x9e\x1c"\x15@'
p3581
tp3582
Rp3583
sg902
S'2009AJ....138.1622T;'
p3584
sg911
F1.193
sg919
F1.358
sg927
F-1.0
sg935
F6060.0
sg943
F89.55
sg951
F-1.0
sg959
F0.613
sg967
F0.01
sg975
F24.0
sg983
S'BHMCatPP0021;'
p3585
sg992
F150.0
sg1000
F0.980720871751886
sg1008
S'DEBCat'
p3586
sg1017
S'LV Her A'
p3587
sg1026
F17.592333333333332
sg1034
F-1.0
sg1042
F-1.0
sg1050
F352.0
sg1058
F-1.0
sg1066
g3
(g121
S'\x14\ni\x0f\xf4%\xd9?'
p3588
tp3589
Rp3590
sg1074
F0.182091571122995
sg1082
g3
(g121
S'0X\x85L\xd6n\x14@'
p3591
tp3592
Rp3593
sg1090
F10.984
sg1098
g3549
sg1106
F-1.0
sg1114
F0.008
sg1122
F1.0
sg1130
S'0020'
p3594
sg1139
F-1.0
sg1147
F-1.0
sg1155
F18.4359535
sg1163
F13.0
sg1171
F-1.0
sg1179
g3
(g121
S'\xe06\xda`\x99\x02\xda?'
p3595
tp3596
Rp3597
sg1187
F-1.0
sg1195
F150.0
ssS'BHMCatS0022P'
p3598
(dp3599
g12
F-1.0
sg20
S'V568 Lyr  B'
p3600
sg29
F-1.0
sg37
F-1.0
sg45
I22
sg53
F4900.0
sg61
F0.008
sg69
F-1.0
sg77
F0.016
sg85
F0.768
sg93
F-1.0
sg101
F0.827
sg109
S'V568 Lyr'
p3601
sg118
F-1.0
sg134
F37.75963888888889
sg142
g1200
sg151
F0.01
sg159
F0.006
sg167
S'G type'
p3602
sg169
(lp3603
(dp3604
g179
S'BHMCatPP0023'
p3605
sg188
F0.0
sg196
F0.0
sg204
S'BHMCatS0022P'
p3606
sg213
F0.0
sg221
S'23'
p3607
sg230
g231
sg239
F1.000001
sg247
S'0023'
p3608
sg256
F0.0
sg264
F0.0
sg272
S'V568 Lyr'
p3609
sg281
F1.000001
sg289
F0.0
sg297
F1.0
sg305
F0.0
sg313
F0.0
sg321
F1.0
sg329
S'V568 Lyr h'
p3610
sg338
g339
sg347
F0.0
sasg355
S'K type'
p3611
sg363
S'EkCat'
p3612
sg372
F4.586
sg380
F-1.0
sg388
S'188'
p3613
sg390
(dp3614
S'BHMCatPP0023'
p3615
(dp3616
g401
F7.0
sg409
F0.0
sg417
F0.0
sg425
F0.0
sg433
F1.0
sg441
F0.0
sg449
F11.3
sg457
S"'early mars'"
p3617
sg466
F4.5
sg474
F1.5
sg482
F1.000001
sg490
F0.002
sg498
F1.0
sg506
F1.0
sg514
F0.0
sg522
S'Chaboyer'
p3618
sg531
F2.0
sg539
F0.95
sg547
F0.275556
sg555
F0.95
sg563
F1.000001
sg571
F5e+40
sg579
F4.7e+40
sg587
F1.5
sg595
F44.0
sg603
F0.0
sg611
F0.275556
sg619
F5.0
sg627
F1.0
sg635
S'Chaboyer'
p3619
sg644
F0.0
sg652
F0.3
sg660
S"'maximum greenhouse'"
p3620
sg669
F0.3
sg677
F1.0
sg685
S"'Saturn'"
p3621
sg694
F0.01
sg702
F10.0
sg710
F1.0
sg718
F2.0
sg726
F3.0
sg734
S'PARSEC'
p3622
sg743
S'PARSEC'
p3623
sg752
F5e+40
sg760
F4.7e+40
sg768
S'BHMCatPP0023'
p3624
sg777
F0.01
sg785
S'BHMCatS0022P'
p3625
sg794
S'V568 Lyr h'
p3626
sg803
F7.0
sg811
S'V568 Lyr'
p3627
sg820
S"'recent venus'"
p3628
sg829
S"'runaway greenhouse'"
p3629
sg838
F11.3
sg846
F0.0
sg854
F1.0
sg862
F5.0
sg870
F0.002
sg878
F0.3
sssg886
F4.178
sg894
F-1.0
sg902
S'2008A&A...492..171G;'
p3630
sg911
F1.074
sg919
F1.399
sg927
F-1.0
sg935
F5665.0
sg943
F89.76
sg951
F-1.0
sg959
F0.0
sg967
F0.008
sg975
F187.0
sg983
S'BHMCatPP0023;'
p3631
sg992
F100.0
sg1000
F0.770018621973929
sg1008
S'DEBCat'
p3632
sg1017
S'V568 Lyr  A'
p3633
sg1026
F19.348416666666665
sg1034
F-1.0
sg1042
F-1.0
sg1050
F3972.0
sg1058
F-1.0
sg1066
F-1.0
sg1074
F0.14406273328877
sg1082
F-1.0
sg1090
F16.91
sg1098
g3598
sg1106
F-1.0
sg1114
F0.004
sg1122
F-1.0
sg1130
S'0022'
p3634
sg1139
F-1.0
sg1147
F-1.0
sg1155
F14.469918
sg1163
F-1.0
sg1171
F-1.0
sg1179
F-1.0
sg1187
F-1.0
sg1195
F100.0
ssS'BHMCatS0032P'
p3635
(dp3636
g12
F-1.0
sg20
S'CD-80 28 B'
p3637
sg29
F-1.0
sg37
F-1.0
sg45
I32
sg53
F-1.0
sg61
F0.1
sg69
F-1.0
sg77
F0.33
sg85
F4.06
sg93
F-1.0
sg101
F1.384
sg109
S'CD-80 28'
p3638
sg118
F-1.0
sg134
F-79.93870555555556
sg142
g1200
sg151
F0.104
sg159
F0.41
sg167
S'K2'
p3639
sg169
(lp3640
(dp3641
g179
S'BHMCatPP0033'
p3642
sg188
F0.0
sg196
F0.0
sg204
S'BHMCatS0032P'
p3643
sg213
F0.0
sg221
S'33'
p3644
sg230
g231
sg239
F1.000001
sg247
S'0033'
p3645
sg256
F0.0
sg264
F0.0
sg272
S'CD-80 28'
p3646
sg281
F1.000001
sg289
F0.0
sg297
F1.0
sg305
F0.0
sg313
F0.0
sg321
F1.0
sg329
S'CD-80 28h'
p3647
sg338
g339
sg347
F0.0
sasg355
g168
sg363
S'EkCat'
p3648
sg372
F3.36193240197991
sg380
F-1.0
sg388
g2086
sg390
(dp3649
S'BHMCatPP0033'
p3650
(dp3651
g401
F7.0
sg409
F0.0
sg417
F0.0
sg425
F0.0
sg433
F1.0
sg441
F0.0
sg449
F11.3
sg457
S"'early mars'"
p3652
sg466
F4.5
sg474
F1.5
sg482
F1.000001
sg490
F0.002
sg498
F1.0
sg506
F1.0
sg514
F0.0
sg522
S'Chaboyer'
p3653
sg531
F2.0
sg539
F0.95
sg547
F0.275556
sg555
F0.95
sg563
F1.000001
sg571
F5e+40
sg579
F4.7e+40
sg587
F1.5
sg595
F44.0
sg603
F0.0
sg611
F0.275556
sg619
F5.0
sg627
F1.0
sg635
S'Chaboyer'
p3654
sg644
F0.0
sg652
F0.3
sg660
S"'maximum greenhouse'"
p3655
sg669
F0.3
sg677
F1.0
sg685
S"'Saturn'"
p3656
sg694
F0.01
sg702
F10.0
sg710
F1.0
sg718
F2.0
sg726
F3.0
sg734
S'PARSEC'
p3657
sg743
S'PARSEC'
p3658
sg752
F5e+40
sg760
F4.7e+40
sg768
S'BHMCatPP0033'
p3659
sg777
F0.01
sg785
S'BHMCatS0032P'
p3660
sg794
S'CD-80 28h'
p3661
sg803
F7.0
sg811
S'CD-80 28'
p3662
sg820
S"'recent venus'"
p3663
sg829
S"'runaway greenhouse'"
p3664
sg838
F11.3
sg846
F0.0
sg854
F1.0
sg862
F5.0
sg870
F0.002
sg878
F0.3
sssg886
F3.57835330017799
sg894
F-1.0
sg902
S'2008AN....329..835B;'
p3665
sg911
F1.38
sg919
F3.16
sg927
F-1.0
sg935
F-1.0
sg943
F80.4
sg951
F-1.0
sg959
F0.0
sg967
F0.055
sg975
F7.0
sg983
S'BHMCatPP0033;'
p3666
sg992
F-1.0
sg1000
F1.00289855072464
sg1008
g1009
sg1017
S'CD-80 28 A'
p3667
sg1026
F1.0939444444444444
sg1034
F-1.0
sg1042
F-1.0
sg1050
F71.0
sg1058
F-1.0
sg1066
F-1.0
sg1074
F0.108919804812834
sg1082
F-1.0
sg1090
F10.177
sg1098
g3635
sg1106
F-1.0
sg1114
F0.055
sg1122
F-1.0
sg1130
S'0032'
p3668
sg1139
F-1.0
sg1147
F-1.0
sg1155
F8.069406
sg1163
F-1.0
sg1171
F-1.0
sg1179
F-1.0
sg1187
F-1.0
sg1195
F-1.0
ssS'BHMCatS0004D'
p3669
(dp3670
g12
F-0.11
sg20
S'Kepler-38 B'
p3671
sg29
F0.096
sg37
F-1.0
sg45
I4
sg53
F3325.0
sg61
F-1.0
sg69
F-1.0
sg77
F0.003
sg85
F0.272
sg93
F13.0
sg101
F0.249
sg109
S'Kepler-38'
p3672
sg118
g3
(g121
S'\xf0\xd5|I\xa8\xd3\x88?'
p3673
tp3674
Rp3675
sg134
F42.279205555555556
sg142
g1287
sg151
F0.011
sg159
F0.005
sg167
S'G type'
p3676
sg169
(lp3677
(dp3678
g179
S'BHMCatPD0004'
p3679
sg188
F0.0
sg196
F0.032
sg204
S'BHMCatS004D'
p3680
sg213
F-1.0
sg221
g389
sg230
S'2012Sci...337.1511O'
p3681
sg239
F4.3763741955736934
sg247
S'0004'
p3682
sg256
F105.595
sg264
F0.0082
sg272
S'Kepler-38'
p3683
sg281
F120.82984494826027
sg289
F-1.0
sg297
F0.4644
sg305
F0.038
sg313
F0.0
sg321
F1.198
sg329
S'Kepler-38b'
p3684
sg338
g1297
sg347
F0.11221472296342803
sasg355
S'M type'
p3685
sg363
S'KIC'
p3686
sg372
F4.964
sg380
F-1.0
sg388
S'6762829'
p3687
sg390
(dp3688
S'BHMCatPD0004'
p3689
(dp3690
g401
F7.0
sg409
F0.0
sg417
F0.0
sg425
F0.0
sg433
F10.0
sg441
F-0.11
sg449
F11.3
sg457
S"'early mars'"
p3691
sg466
F4.5
sg474
F1.5
sg482
F4.37637419557369
sg490
F0.002
sg498
F1.0
sg506
F1.0
sg514
F-0.11
sg522
S'Chaboyer'
p3692
sg531
F2.0
sg539
F0.95
sg547
F0.275556
sg555
F0.95
sg563
F120.82984494826
sg571
F5e+40
sg579
F4.7e+40
sg587
F1.5
sg595
F44.0
sg603
F0.0
sg611
F0.275556
sg619
F5.0
sg627
F1.0
sg635
S'Chaboyer'
p3693
sg644
F0.0
sg652
F0.8
sg660
S"'maximum greenhouse'"
p3694
sg669
F0.3
sg677
F1.0
sg685
S"'Saturn'"
p3695
sg694
F0.01
sg702
F10.0
sg710
F10.0
sg718
F2.0
sg726
F3.0
sg734
S'PARSEC'
p3696
sg743
S'PARSEC'
p3697
sg752
F1e+40
sg760
F4.7e+40
sg768
S'BHMCatPD0004'
p3698
sg777
F0.01
sg785
S'BHMCatS0004D'
p3699
sg794
S'Kepler-38b'
p3700
sg803
F7.0
sg811
S'Kepler-38'
p3701
sg820
S"'recent venus'"
p3702
sg829
S"'runaway greenhouse'"
p3703
sg838
F11.3
sg846
F0.0
sg854
F10.0
sg862
F5.0
sg870
F0.002
sg878
F0.3
sssg886
F4.47
sg894
g3
(g121
S'\xc3W\x8b\x85C\x83B@'
p3704
tp3705
Rp3706
sg902
S'2012ApJ...758...87O;'
p3707
sg911
F0.949
sg919
F1.757
sg927
F-1.0
sg935
F5623.0
sg943
F89.412
sg951
F-1.0
sg959
F0.1032
sg967
F0.055
sg975
F-1.0
sg983
S'BHMCatPD0004;'
p3708
sg992
F-1.0
sg1000
F0.262381454162276
sg1008
g1009
sg1017
S'Kepler-38 A'
p3709
sg1026
F19.122025
sg1034
F-1.0
sg1042
F-1.0
sg1050
F-1.0
sg1058
F268.68
sg1066
F-1.0
sg1074
F0.1469
sg1082
F-1.0
sg1090
F13.941
sg1098
g3669
sg1106
F-1.0
sg1114
F0.007
sg1122
F0.5
sg1130
S'0004'
p3710
sg1139
F-0.158
sg1147
F7.0
sg1155
F18.795
sg1163
F2.4
sg1171
g3
(g121
S'\x95\x00#\x0cUZ\x86?'
p3711
tp3712
Rp3713
sg1179
g3
(g121
S'\x9b\xe7\x92\xde\xc5\xda\x1e@'
p3714
tp3715
Rp3716
sg1187
g3
(g121
S'\x84pS\xf9Vl\x90@'
p3717
tp3718
Rp3719
sg1195
F50.0
ssS'BHMCatS0010P'
p3720
(dp3721
g12
F-1.0
sg20
S'V54 M55 B'
p3722
sg29
F0.56
sg37
F-1.0
sg45
I10
sg53
F5023.0
sg61
F-1.0
sg69
F-1.0
sg77
F0.009
sg85
F0.528
sg93
F-1.0
sg101
F0.555
sg109
S'V54 M55'
p3723
sg118
F-1.0
sg134
F-1.0
sg142
g1200
sg151
F-1.0
sg159
F0.005
sg167
S'F type'
p3724
sg169
(lp3725
(dp3726
g179
S'BHMCatPP0011'
p3727
sg188
F0.0
sg196
F0.0
sg204
S'BHMCatS0010P'
p3728
sg213
F0.0
sg221
S'11'
p3729
sg230
g231
sg239
F1.000001
sg247
S'0011'
p3730
sg256
F0.0
sg264
F0.0
sg272
S'V54 M55'
p3731
sg281
F1.000001
sg289
F0.0
sg297
F1.0
sg305
F0.0
sg313
F0.0
sg321
F1.0
sg329
S'V54 M55h'
p3732
sg338
g339
sg347
F0.0
sasg355
S'K type'
p3733
sg363
S'DEBCat'
p3734
sg372
F-1.0
sg380
F-1.0
sg388
S'29'
p3735
sg390
(dp3736
S'BHMCatPP0011'
p3737
(dp3738
g401
F7.0
sg409
F0.0
sg417
F0.0
sg425
F0.0
sg433
F1.0
sg441
F0.0
sg449
F11.3
sg457
S"'early mars'"
p3739
sg466
F4.5
sg474
F1.5
sg482
F1.000001
sg490
F0.002
sg498
F1.0
sg506
F1.0
sg514
F0.0
sg522
S'Chaboyer'
p3740
sg531
F2.0
sg539
F0.95
sg547
F0.275556
sg555
F0.95
sg563
F1.000001
sg571
F5e+40
sg579
F4.7e+40
sg587
F1.5
sg595
F44.0
sg603
F0.0
sg611
F0.275556
sg619
F5.0
sg627
F1.0
sg635
S'Chaboyer'
p3741
sg644
F0.0
sg652
F0.3
sg660
S"'maximum greenhouse'"
p3742
sg669
F0.3
sg677
F1.0
sg685
S"'Saturn'"
p3743
sg694
F0.01
sg702
F10.0
sg710
F1.0
sg718
F2.0
sg726
F3.0
sg734
S'PARSEC'
p3744
sg743
S'PARSEC'
p3745
sg752
F5e+40
sg760
F4.7e+40
sg768
S'BHMCatPP0011'
p3746
sg777
F0.01
sg785
S'BHMCatS0010P'
p3747
sg794
S'V54 M55h'
p3748
sg803
F7.0
sg811
S'V54 M55'
p3749
sg820
S"'recent venus'"
p3750
sg829
S"'runaway greenhouse'"
p3751
sg838
F11.3
sg846
F0.0
sg854
F1.0
sg862
F5.0
sg870
F0.002
sg878
F0.3
sssg886
F-1.0
sg894
F-1.0
sg902
S'2014AcA....64...11K;'
p3752
sg911
F0.726
sg919
F1.006
sg927
F-1.0
sg935
F6251.0
sg943
F-1.0
sg951
F-1.0
sg959
F0.133
sg967
F0.015
sg975
F-1.0
sg983
S'BHMCatPP0011;'
p3753
sg992
F-1.0
sg1000
F0.764462809917356
sg1008
g1009
sg1017
S'V54 M55 A'
p3754
sg1026
F-1.0
sg1034
F-1.0
sg1042
F-1.0
sg1050
F-1.0
sg1058
F-1.0
sg1066
F-1.0
sg1074
F0.0938
sg1082
F-1.0
sg1090
F18.3
sg1098
g3720
sg1106
F-1.0
sg1114
F0.008
sg1122
F-1.0
sg1130
S'0010'
p3755
sg1139
F-1.0
sg1147
F-1.0
sg1155
F9.269
sg1163
F-1.0
sg1171
F-1.0
sg1179
F-1.0
sg1187
g3
(g121
S'\x83\xc9\x05\x13\xd2\xd2\xb7@'
p3756
tp3757
Rp3758
sg1195
F-1.0
ssS'BHMCatS0023P'
p3759
(dp3760
g12
F-1.0
sg20
S'TYC 176-2950-1 B'
p3761
sg29
F-1.0
sg37
F-1.0
sg45
I23
sg53
F-1.0
sg61
F0.015
sg69
F-1.0
sg77
F0.03
sg85
F1.18
sg93
F-1.0
sg101
F1.041
sg109
S'TYC 176-2950-1'
p3762
sg118
F-1.0
sg134
F5.814813888888889
sg142
g1200
sg151
F0.016
sg159
F0.02
sg167
S'G6'
p3763
sg169
(lp3764
(dp3765
g179
S'BHMCatPP0024'
p3766
sg188
F0.0
sg196
F0.0
sg204
S'BHMCatS0023P'
p3767
sg213
F0.0
sg221
S'24'
p3768
sg230
g231
sg239
F1.000001
sg247
S'0024'
p3769
sg256
F0.0
sg264
F0.0
sg272
S'TYC 176-2950-1'
p3770
sg281
F1.000001
sg289
F0.0
sg297
F1.0
sg305
F0.0
sg313
F0.0
sg321
F1.0
sg329
S'TYC 176-2950-1h'
p3771
sg338
g339
sg347
F0.0
sasg355
g168
sg363
S'EkCat'
p3772
sg372
F4.31153509391184
sg380
F-1.0
sg388
S'74'
p3773
sg390
(dp3774
S'BHMCatPP0024'
p3775
(dp3776
g401
F7.0
sg409
F0.0
sg417
F0.0
sg425
F0.0
sg433
F1.0
sg441
F0.0
sg449
F11.3
sg457
S"'early mars'"
p3777
sg466
F4.5
sg474
F1.5
sg482
F1.000001
sg490
F0.002
sg498
F1.0
sg506
F1.0
sg514
F0.0
sg522
S'Chaboyer'
p3778
sg531
F2.0
sg539
F0.95
sg547
F0.275556
sg555
F0.95
sg563
F1.000001
sg571
F5e+40
sg579
F4.7e+40
sg587
F1.5
sg595
F44.0
sg603
F0.0
sg611
F0.275556
sg619
F5.0
sg627
F1.0
sg635
S'Chaboyer'
p3779
sg644
F0.0
sg652
F0.3
sg660
S"'maximum greenhouse'"
p3780
sg669
F0.3
sg677
F1.0
sg685
S"'Saturn'"
p3781
sg694
F0.01
sg702
F10.0
sg710
F1.0
sg718
F2.0
sg726
F3.0
sg734
S'PARSEC'
p3782
sg743
S'PARSEC'
p3783
sg752
F5e+40
sg760
F4.7e+40
sg768
S'BHMCatPP0024'
p3784
sg777
F0.01
sg785
S'BHMCatS0023P'
p3785
sg794
S'TYC 176-2950-1h'
p3786
sg803
F7.0
sg811
S'TYC 176-2950-1'
p3787
sg820
S"'recent venus'"
p3788
sg829
S"'runaway greenhouse'"
p3789
sg838
F11.3
sg846
F0.0
sg854
F1.0
sg862
F5.0
sg870
F0.002
sg878
F0.3
sssg886
F4.02613295021946
sg894
F-1.0
sg902
S'2008AN....329..835B;'
p3790
sg911
F1.055
sg919
F1.65
sg927
F-1.0
sg935
F-1.0
sg943
F88.2
sg951
F-1.0
sg959
F0.21
sg967
F0.008
sg975
F17.0
sg983
S'BHMCatPP0024;'
p3791
sg992
F-1.0
sg1000
F0.986729857819905
sg1008
g1009
sg1017
S'TYC 176-2950-1 A'
p3792
sg1026
F7.273766666666667
sg1034
F-1.0
sg1042
F-1.0
sg1050
F177.0
sg1058
F-1.0
sg1066
F-1.0
sg1074
F0.128004044117647
sg1082
F-1.0
sg1090
F10.215
sg1098
g3759
sg1106
F-1.0
sg1114
F0.008
sg1122
F-1.0
sg1130
S'0023'
p3793
sg1139
F-1.0
sg1147
F-1.0
sg1155
F11.55478
sg1163
F-1.0
sg1171
F-1.0
sg1179
F-1.0
sg1187
F-1.0
sg1195
F-1.0
ssS'BHMCatS1002V'
p3794
(dp3795
g12
F0.0
sg20
S'NICHE-002 B'
p3796
sg29
F-2.0
sg37
F-2.0
sg45
I1002
sg53
F-2.0
sg61
F-2.0
sg69
F-2.0
sg77
F0.0
sg85
F-2.0
sg93
F-2.0
sg101
F0.85
sg109
S'NICHE-002'
p3797
sg118
g3
(g121
S'0\xa8\x1bgj\x94\x8f?'
p3798
tp3799
Rp3800
sg134
F-2.0
sg142
g143
sg151
F-2.0
sg159
F0.0
sg167
g168
sg169
(lp3801
(dp3802
g179
S'BHMCatPV1002'
p3803
sg188
F0.0
sg196
F0.0
sg204
S'BHMCatS1002V'
p3804
sg213
F0.0
sg221
S'1002'
p3805
sg230
g231
sg239
F1.000001
sg247
S'1002'
p3806
sg256
F0.0
sg264
F0.0
sg272
S'NICHE-002'
p3807
sg281
F1.000001
sg289
F0.0
sg297
F1.0
sg305
F0.0
sg313
F0.0
sg321
F1.0
sg329
S'NICHE-002h'
p3808
sg338
g339
sg347
F0.0
sasg355
g168
sg363
S'NICHE'
p3809
sg372
F-2.0
sg380
F-2.0
sg388
S'2'
p3810
sg390
(dp3811
S'BHMCatPV1002'
p3812
(dp3813
g401
F7.0
sg409
F0.0
sg417
F0.0
sg425
F0.0
sg433
F1.0
sg441
F0.0
sg449
F11.3
sg457
S"'early mars'"
p3814
sg466
F4.5
sg474
F1.5
sg482
F1.000001
sg490
F0.002
sg498
F1.0
sg506
F1.0
sg514
F0.0
sg522
S'Chaboyer'
p3815
sg531
F2.0
sg539
F0.95
sg547
F0.275556
sg555
F0.95
sg563
F1.000001
sg571
F5e+40
sg579
F4.7e+40
sg587
F1.5
sg595
F44.0
sg603
F0.0
sg611
F0.275556
sg619
F5.0
sg627
F1.0
sg635
S'Chaboyer'
p3816
sg644
F0.0
sg652
F0.3
sg660
S"'maximum greenhouse'"
p3817
sg669
F0.3
sg677
F1.0
sg685
S"'Earth'"
p3818
sg694
F0.01
sg702
F10.0
sg710
F1.0
sg718
F2.0
sg726
F3.0
sg734
S'PARSEC'
p3819
sg743
S'PARSEC'
p3820
sg752
F5e+40
sg760
F4.7e+40
sg768
S'BHMCatPV1002'
p3821
sg777
F0.01
sg785
S'BHMCatS1002V'
p3822
sg794
S'NICHE-002h'
p3823
sg803
F7.0
sg811
S'NICHE-002'
p3824
sg820
S"'recent venus'"
p3825
sg829
S"'runaway greenhouse'"
p3826
sg838
F11.3
sg846
F0.0
sg854
F1.0
sg862
F5.0
sg870
F0.002
sg878
F0.3
sssg886
F-2.0
sg894
F-1.0
sg902
S'2014arXiv1408.5163M;'
p3827
sg911
F1.0
sg919
F-2.0
sg927
F-2.0
sg935
F-2.0
sg943
F-2.0
sg951
F-2.0
sg959
F0.5
sg967
F0.0
sg975
F-1.0
sg983
S'BHMCatPV1002;'
p3828
sg992
F-2.0
sg1000
F0.85
sg1008
g1009
sg1017
S'NICHE-002 A'
p3829
sg1026
F-2.0
sg1034
F-1.0
sg1042
F-2.0
sg1050
F-1.0
sg1058
F-1.0
sg1066
F-1.0
sg1074
F0.177017861626706
sg1082
F-1.0
sg1090
F-2.0
sg1098
g3794
sg1106
F-2.0
sg1114
F0.0
sg1122
F-2.0
sg1130
S'1002'
p3830
sg1139
F-1.0
sg1147
F-2.0
sg1155
F20.0
sg1163
F-2.0
sg1171
F-1.0
sg1179
F-1.0
sg1187
F-1.0
sg1195
F-2.0
ssS'BHMCatS0006D'
p3831
(dp3832
g12
F-0.15
sg20
S'Kepler-64 B'
p3833
sg29
F0.107
sg37
F-1.0
sg45
I6
sg53
F3561.0
sg61
F-1.0
sg69
F-1.0
sg77
F0.044
sg85
F0.408
sg93
F2.0
sg101
F0.378
sg109
S'Kepler-64'
p3834
sg118
g3
(g121
S'\x1f\xe4\x96\xebQ\xbf\x86?'
p3835
tp3836
Rp3837
sg134
F39.9551
sg142
g1287
sg151
F-1.0
sg159
F0.024
sg167
S'F type'
p3838
sg169
(lp3839
(dp3840
g179
S'BHMCatPD0007'
p3841
sg188
F82.67305180670441
sg196
F0.0539
sg204
S'BHMCatS006D'
p3842
sg213
F0.0081
sg221
g2086
sg230
S'2013ApJ...768..127S;2013ApJ...770...52K'
p3843
sg239
F6.20547417987757
sg247
S'0007'
p3844
sg256
F138.506
sg264
F0.011
sg272
S'Kepler-64'
p3845
sg281
F168.52583637520513
sg289
F-1.0
sg297
F0.634
sg305
F0.1
sg313
F0.0
sg321
F1.906
sg329
S'Kepler-64b'
p3846
sg338
g1297
sg347
F0.16832208444514205
sasg355
S'M type'
p3847
sg363
S'KIC'
p3848
sg372
F-1.0
sg380
F-1.0
sg388
S'4862625'
p3849
sg390
(dp3850
S'BHMCatPD0007'
p3851
(dp3852
g401
F7.0
sg409
F0.0
sg417
F0.0
sg425
F0.0
sg433
F1.5
sg441
F-0.15
sg449
F11.3
sg457
S"'early mars'"
p3853
sg466
F4.5
sg474
F1.5
sg482
F6.20547417987757
sg490
F0.002
sg498
F1.0
sg506
F1.0
sg514
F-0.15
sg522
S'Chaboyer'
p3854
sg531
F2.0
sg539
F0.95
sg547
F0.275556
sg555
F0.95
sg563
F168.525836375205
sg571
F5e+40
sg579
F4.7e+40
sg587
F1.5
sg595
F44.0
sg603
F0.0
sg611
F0.275556
sg619
F5.0
sg627
F1.0
sg635
S'Chaboyer'
p3855
sg644
F0.0
sg652
F0.8
sg660
S"'maximum greenhouse'"
p3856
sg669
F0.3
sg677
F1.0
sg685
S"'Saturn'"
p3857
sg694
F0.01
sg702
F10.0
sg710
F1.5
sg718
F2.0
sg726
F3.0
sg734
S'PARSEC'
p3858
sg743
S'PARSEC'
p3859
sg752
F1e+40
sg760
F4.7e+40
sg768
S'BHMCatPD0007'
p3860
sg777
F0.01
sg785
S'BHMCatS0006D'
p3861
sg794
S'Kepler-64b'
p3862
sg803
F7.0
sg811
S'Kepler-64'
p3863
sg820
S"'recent venus'"
p3864
sg829
S"'runaway greenhouse'"
p3865
sg838
F11.3
sg846
F0.0
sg854
F1.5
sg862
F5.0
sg870
F0.002
sg878
F0.3
sssg886
F4.658
sg894
g3
(g121
S'\x94\x0b\xed\xa8\xcf\x7f\x05@'
p3866
tp3867
Rp3868
sg902
S'2013ApJ...768..127S; 2013ApJ...770...52K;'
p3869
sg911
F1.528
sg919
F1.734
sg927
F-1.0
sg935
F6407.0
sg943
F87.36
sg951
F-1.0
sg959
F0.2117
sg967
F0.087
sg975
F-1.0
sg983
S'BHMCatPD0007;'
p3870
sg992
F150.0
sg1000
F0.24738219895288
sg1008
g1009
sg1017
S'Kepler-64 A'
p3871
sg1026
F19.881006666666668
sg1034
F-1.0
sg1042
F-1.0
sg1050
F-1.0
sg1058
F218.56
sg1066
F-1.0
sg1074
F0.1744
sg1082
F-1.0
sg1090
F13.718
sg1098
g3831
sg1106
F-1.0
sg1114
F0.023
sg1122
F2.0
sg1130
S'0006'
p3872
sg1139
F-0.217
sg1147
F1.0
sg1155
F20.0
sg1163
F32.6
sg1171
g3
(g121
S'h3|\x07\xbb\xa5\x83?'
p3873
tp3874
Rp3875
sg1179
g3
(g121
S'n\x92\xae\x97\x83\x1a\xc5?'
p3876
tp3877
Rp3878
sg1187
g3
(g121
S'\xca\x19\xa8%\xd0\xfe\x93@'
p3879
tp3880
Rp3881
sg1195
F150.0
ssS'BHMCatS1006V'
p3882
(dp3883
g12
F0.0
sg20
S'NICHE-006 B'
p3884
sg29
F-2.0
sg37
F-2.0
sg45
I1006
sg53
F-2.0
sg61
F-2.0
sg69
F-2.0
sg77
F0.0
sg85
F-2.0
sg93
F-2.0
sg101
F0.55
sg109
S'NICHE-006'
p3885
sg118
g3
(g121
S'0\xa8\x1bgj\x94\x8f?'
p3886
tp3887
Rp3888
sg134
F-2.0
sg142
g143
sg151
F-2.0
sg159
F0.0
sg167
g168
sg169
(lp3889
(dp3890
g179
S'BHMCatPV1006'
p3891
sg188
F0.0
sg196
F0.0
sg204
S'BHMCatS1006V'
p3892
sg213
F0.0
sg221
S'1006'
p3893
sg230
g231
sg239
F1.000001
sg247
S'1006'
p3894
sg256
F0.0
sg264
F0.0
sg272
S'NICHE-006'
p3895
sg281
F1.000001
sg289
F0.0
sg297
F1.0
sg305
F0.0
sg313
F0.0
sg321
F1.0
sg329
S'NICHE-006h'
p3896
sg338
g339
sg347
F0.0
sasg355
g168
sg363
S'NICHE'
p3897
sg372
F-2.0
sg380
F-2.0
sg388
g1910
sg390
(dp3898
S'BHMCatPV1006'
p3899
(dp3900
g401
F7.0
sg409
F0.0
sg417
F0.0
sg425
F0.0
sg433
F1.0
sg441
F0.0
sg449
F11.3
sg457
S"'early mars'"
p3901
sg466
F4.5
sg474
F1.5
sg482
F1.000001
sg490
F0.002
sg498
F1.0
sg506
F1.0
sg514
F0.0
sg522
S'Chaboyer'
p3902
sg531
F2.0
sg539
F0.95
sg547
F0.275556
sg555
F0.95
sg563
F1.000001
sg571
F5e+40
sg579
F4.7e+40
sg587
F1.5
sg595
F44.0
sg603
F0.0
sg611
F0.275556
sg619
F5.0
sg627
F1.0
sg635
S'Chaboyer'
p3903
sg644
F0.0
sg652
F0.3
sg660
S"'maximum greenhouse'"
p3904
sg669
F0.3
sg677
F1.0
sg685
S"'Earth'"
p3905
sg694
F0.01
sg702
F10.0
sg710
F1.0
sg718
F2.0
sg726
F3.0
sg734
S'PARSEC'
p3906
sg743
S'PARSEC'
p3907
sg752
F5e+40
sg760
F4.7e+40
sg768
S'BHMCatPV1006'
p3908
sg777
F0.01
sg785
S'BHMCatS1006V'
p3909
sg794
S'NICHE-006h'
p3910
sg803
F7.0
sg811
S'NICHE-006'
p3911
sg820
S"'recent venus'"
p3912
sg829
S"'runaway greenhouse'"
p3913
sg838
F11.3
sg846
F0.0
sg854
F1.0
sg862
F5.0
sg870
F0.002
sg878
F0.3
sssg886
F-2.0
sg894
F-1.0
sg902
S'2014arXiv1408.5163M;'
p3914
sg911
F1.0
sg919
F-2.0
sg927
F-2.0
sg935
F-2.0
sg943
F-2.0
sg951
F-2.0
sg959
F0.1
sg967
F0.0
sg975
F-1.0
sg983
S'BHMCatPV1006;'
p3915
sg992
F-2.0
sg1000
F0.55
sg1008
g1009
sg1017
S'NICHE-006 A'
p3916
sg1026
F-2.0
sg1034
F-1.0
sg1042
F-2.0
sg1050
F-1.0
sg1058
F-1.0
sg1066
F-1.0
sg1074
F0.118714722140125
sg1082
F-1.0
sg1090
F-2.0
sg1098
g3882
sg1106
F-2.0
sg1114
F0.0
sg1122
F-2.0
sg1130
S'1006'
p3917
sg1139
F-1.0
sg1147
F-2.0
sg1155
F12.0
sg1163
F-2.0
sg1171
F-1.0
sg1179
F-1.0
sg1187
F-1.0
sg1195
F-2.0
ssS'BHMCatS0012P'
p3918
(dp3919
g12
F-1.0
sg20
S'EW Ori B'
p3920
sg29
F0.57
sg37
F-1.0
sg45
I12
sg53
F5902.0
sg61
F-1.0
sg69
F-1.0
sg77
F0.005
sg85
F1.097
sg93
F-1.0
sg101
F1.123
sg109
S'EW Ori'
p3921
sg118
F-1.0
sg134
F2.044436111111111
sg142
g1200
sg151
F-1.0
sg159
F0.005
sg167
S'G0V'
p3922
sg169
(lp3923
(dp3924
g179
S'BHMCatPP0013'
p3925
sg188
F0.0
sg196
F0.0
sg204
S'BHMCatS0012P'
p3926
sg213
F0.0
sg221
S'13'
p3927
sg230
g231
sg239
F1.000001
sg247
S'0013'
p3928
sg256
F0.0
sg264
F0.0
sg272
S'EW Ori'
p3929
sg281
F1.000001
sg289
F0.0
sg297
F1.0
sg305
F0.0
sg313
F0.0
sg321
F1.0
sg329
S'EW Orih'
p3930
sg338
g339
sg347
F0.0
sasg355
S'G2V'
p3931
sg363
S'DEBCat'
p3932
sg372
F-1.0
sg380
F-1.0
sg388
S'27'
p3933
sg390
(dp3934
S'BHMCatPP0013'
p3935
(dp3936
g401
F7.0
sg409
F0.0
sg417
F0.0
sg425
F0.0
sg433
F1.0
sg441
F0.0
sg449
F11.3
sg457
S"'early mars'"
p3937
sg466
F4.5
sg474
F1.5
sg482
F1.000001
sg490
F0.002
sg498
F1.0
sg506
F1.0
sg514
F0.0
sg522
S'Chaboyer'
p3938
sg531
F2.0
sg539
F0.95
sg547
F0.275556
sg555
F0.95
sg563
F1.000001
sg571
F5e+40
sg579
F4.7e+40
sg587
F1.5
sg595
F44.0
sg603
F0.0
sg611
F0.275556
sg619
F5.0
sg627
F1.0
sg635
S'Chaboyer'
p3939
sg644
F0.0
sg652
F0.3
sg660
S"'maximum greenhouse'"
p3940
sg669
F0.3
sg677
F1.0
sg685
S"'Saturn'"
p3941
sg694
F0.01
sg702
F10.0
sg710
F1.0
sg718
F2.0
sg726
F3.0
sg734
S'PARSEC'
p3942
sg743
S'PARSEC'
p3943
sg752
F5e+40
sg760
F4.7e+40
sg768
S'BHMCatPP0013'
p3944
sg777
F0.01
sg785
S'BHMCatS0012P'
p3945
sg794
S'EW Orih'
p3946
sg803
F7.0
sg811
S'EW Ori'
p3947
sg820
S"'recent venus'"
p3948
sg829
S"'runaway greenhouse'"
p3949
sg838
F11.3
sg846
F0.0
sg854
F1.0
sg862
F5.0
sg870
F0.002
sg878
F0.3
sssg886
F-1.0
sg894
F-1.0
sg902
S'2010A%26A...511A..22C;'
p3950
sg911
F1.173
sg919
F1.168
sg927
F-1.0
sg935
F6067.0
sg943
F-1.0
sg951
F-1.0
sg959
F0.0758
sg967
F0.011
sg975
F-1.0
sg983
S'BHMCatPP0013;'
p3951
sg992
F-1.0
sg1000
F0.957374254049446
sg1008
g1009
sg1017
S'EW Ori A'
p3952
sg1026
F5.335875
sg1034
F-1.0
sg1042
F-1.0
sg1050
F-1.0
sg1058
F-1.0
sg1066
F-1.0
sg1074
F0.0946
sg1082
F-1.0
sg1090
F9.09
sg1098
g3918
sg1106
F-1.0
sg1114
F0.009
sg1122
F-1.0
sg1130
S'0012'
p3953
sg1139
F-1.0
sg1147
F-1.0
sg1155
F6.937
sg1163
F-1.0
sg1171
F-1.0
sg1179
F-1.0
sg1187
g3
(g121
S'\xcaW.o\xfe\x1b^@'
p3954
tp3955
Rp3956
sg1195
F-1.0
ssS'BHMCatS0014P'
p3957
(dp3958
g12
F-1.0
sg20
S'M4-V69 B'
p3959
sg29
F0.902
sg37
F-1.0
sg45
I14
sg53
F5915.0
sg61
F0.119
sg69
F-1.0
sg77
F0.01
sg85
F0.807
sg93
F11.23
sg101
F0.728
sg109
S'M4-V69'
p3960
sg118
F-1.0
sg134
F-25.378333333333334
sg142
g1200
sg151
F0.132
sg159
F0.008
sg167
S'F type'
p3961
sg169
(lp3962
(dp3963
g179
S'BHMCatPP0015'
p3964
sg188
F0.0
sg196
F0.0
sg204
S'BHMCatS0014P'
p3965
sg213
F0.0
sg221
S'15'
p3966
sg230
g231
sg239
F1.000001
sg247
S'0015'
p3967
sg256
F0.0
sg264
F0.0
sg272
S'M4-V69'
p3968
sg281
F1.000001
sg289
F0.0
sg297
F1.0
sg305
F0.0
sg313
F0.0
sg321
F1.0
sg329
S'M4-V69h'
p3969
sg338
g339
sg347
F0.0
sasg355
S'G type'
p3970
sg363
S'EkCat'
p3971
sg372
F4.483
sg380
F-1.0
sg388
S'141'
p3972
sg390
(dp3973
S'BHMCatPP0015'
p3974
(dp3975
g401
F7.0
sg409
F0.0
sg417
F0.0
sg425
F0.0
sg433
F10.9
sg441
F0.0
sg449
F11.3
sg457
S"'early mars'"
p3976
sg466
F4.5
sg474
F1.5
sg482
F1.000001
sg490
F0.002
sg498
F1.0
sg506
F1.0
sg514
F0.0
sg522
S'Chaboyer'
p3977
sg531
F2.0
sg539
F0.95
sg547
F0.275556
sg555
F0.95
sg563
F1.000001
sg571
F5e+40
sg579
F4.7e+40
sg587
F1.5
sg595
F44.0
sg603
F0.0
sg611
F0.275556
sg619
F5.0
sg627
F1.0
sg635
S'Chaboyer'
p3978
sg644
F0.0
sg652
F0.3
sg660
S"'maximum greenhouse'"
p3979
sg669
F0.3
sg677
F1.0
sg685
S"'Saturn'"
p3980
sg694
F0.01
sg702
F10.0
sg710
F10.9
sg718
F2.0
sg726
F3.0
sg734
S'PARSEC'
p3981
sg743
S'PARSEC'
p3982
sg752
F5e+40
sg760
F4.7e+40
sg768
S'BHMCatPP0015'
p3983
sg777
F0.01
sg785
S'BHMCatS0014P'
p3984
sg794
S'M4-V69h'
p3985
sg803
F7.0
sg811
S'M4-V69'
p3986
sg820
S"'recent venus'"
p3987
sg829
S"'runaway greenhouse'"
p3988
sg838
F11.3
sg846
F0.0
sg854
F10.9
sg862
F5.0
sg870
F0.002
sg878
F0.3
sssg886
F4.444
sg894
F-1.0
sg902
S'2013AJ....145...43K;'
p3989
sg911
F0.766
sg919
F0.866
sg927
F-1.0
sg935
F6084.0
sg943
F89.79
sg951
F-1.0
sg959
F0.384
sg967
F0.005
sg975
F30.0
sg983
S'BHMCatPP0015;'
p3990
sg992
F137.0
sg1000
F0.950391644908616
sg1008
g1009
sg1017
S'M4-V69 A'
p3991
sg1026
F16.39944722222222
sg1034
F-1.0
sg1042
F-1.0
sg1050
F1850.0
sg1058
F65.25
sg1066
F-1.0
sg1074
F0.296410819251337
sg1082
F-1.0
sg1090
F17.01
sg1098
g3957
sg1106
F-1.0
sg1114
F0.004
sg1122
F-1.0
sg1130
S'0014'
p3992
sg1139
F-1.0
sg1147
F10.57
sg1155
F48.1882687
sg1163
F-1.0
sg1171
F-1.0
sg1179
F-1.0
sg1187
F-1.0
sg1195
F121.0
ssS'PlanetFieldsPriority'
p3993
(dp3994
g179
I1
sg188
I4
sg196
I1
sg204
I1
sg213
I4
sg221
I100
sg230
I1
sg239
I1
sg247
I1
sg256
I1
sg264
I4
sg272
I2
sg281
I1
sg289
I2
sg297
I1
sg305
I4
sg313
I4
sg321
I100
sg329
I1
sg338
I100
sg347
I4
ssS'BHMCatS0002D'
p3995
(dp3996
g12
F-0.263
sg20
S'Kepler-34 B'
p3997
sg29
F0.148
sg37
F-1.0
sg45
I2
sg53
F5867.0
sg61
F-1.0
sg69
F-1.0
sg77
F0.003
sg85
F1.093
sg93
F2.9
sg101
F1.021
sg109
S'Kepler-34'
p3998
sg118
g3
(g121
S'\x949l\xffz\xc4\x81?'
p3999
tp4000
Rp4001
sg134
F44.64156111111111
sg142
g1287
sg151
F-1.0
sg159
F0.003
sg167
S'G0V'
p4002
sg169
(lp4003
(dp4004
g179
S'BHMCatPD0002'
p4005
sg188
F3.1797327617963234
sg196
F0.182
sg204
S'BHMCatS002D'
p4006
sg213
F0.018
sg221
g3810
sg230
S'2012Natur.481..475W;2012yCatp038048101W'
p4007
sg239
F8.573204834405901
sg247
S'0002'
p4008
sg256
F288.822
sg264
F0.0009
sg272
S'Kepler-34'
p4009
sg281
F69.95412075951911
sg289
F-1.0
sg297
F1.0896
sg305
F0.072
sg313
F0.0
sg321
F2.069
sg329
S'Kepler-34b'
p4010
sg338
g1297
sg347
F0.14587913985245643
sasg355
S'G0V'
p4011
sg363
S'KIC'
p4012
sg372
F-1.0
sg380
F-1.0
sg388
S'8572936'
p4013
sg390
(dp4014
S'BHMCatPD0002'
p4015
(dp4016
g401
F7.0
sg409
F0.0
sg417
F0.0
sg425
F0.0
sg433
F2.45
sg441
F-0.263
sg449
F11.3
sg457
S"'early mars'"
p4017
sg466
F4.5
sg474
F1.5
sg482
F8.5732048344059
sg490
F0.002
sg498
F1.0
sg506
F1.0
sg514
F-0.263
sg522
S'Chaboyer'
p4018
sg531
F2.0
sg539
F0.95
sg547
F0.275556
sg555
F0.95
sg563
F69.9541207595191
sg571
F5e+40
sg579
F4.7e+40
sg587
F1.5
sg595
F44.0
sg603
F0.0
sg611
F0.275556
sg619
F5.0
sg627
F1.0
sg635
S'Chaboyer'
p4019
sg644
F0.0
sg652
F0.8
sg660
S"'maximum greenhouse'"
p4020
sg669
F0.3
sg677
F1.0
sg685
S"'Saturn'"
p4021
sg694
F0.01
sg702
F10.0
sg710
F2.45
sg718
F2.0
sg726
F3.0
sg734
S'PARSEC'
p4022
sg743
S'PARSEC'
p4023
sg752
F5e+40
sg760
F4.7e+40
sg768
S'BHMCatPD0002'
p4024
sg777
F0.01
sg785
S'BHMCatS0002D'
p4025
sg794
S'Kepler-34b'
p4026
sg803
F7.0
sg811
S'Kepler-34'
p4027
sg820
S"'recent venus'"
p4028
sg829
S"'runaway greenhouse'"
p4029
sg838
F11.3
sg846
F0.0
sg854
F2.45
sg862
F5.0
sg870
F0.002
sg878
F0.3
sssg886
F4.442
sg894
g3
(g121
S'\x1e6\x10i\xba\xca0@'
p4030
tp4031
Rp4032
sg902
S'2012Natur.481..475W; 2012yCatp038048101W;'
p4033
sg911
F1.048
sg919
F1.162
sg927
F1.5
sg935
F5913.0
sg943
F89.8584
sg951
F-1.0
sg959
F0.5209
sg967
F0.003
sg975
F-1.0
sg983
S'BHMCatPD0002;'
p4034
sg992
F130.0
sg1000
F0.974236641221374
sg1008
g1009
sg1017
S'Kepler-34 A'
p4035
sg1026
F19.762388055555554
sg1034
F-1.0
sg1042
F16.5
sg1050
F-1.0
sg1058
F71.436
sg1066
F-1.0
sg1074
F0.2288
sg1082
F-1.0
sg1090
F14.875
sg1098
g3995
sg1106
F-1.0
sg1114
F0.002
sg1122
F0.5
sg1130
S'0002'
p4036
sg1139
F-0.263
sg1147
F2.0
sg1155
F27.796
sg1163
F3.5
sg1171
g3
(g121
S'\x949l\xffz\xc4\x81?'
p4037
tp4038
Rp4039
sg1179
g3
(g121
S'\x90\xab[\n\xd50\x03@'
p4040
tp4041
Rp4042
sg1187
g3
(g121
S'\xc4d2\x8d\x9a\xbf\x99@'
p4043
tp4044
Rp4045
sg1195
F130.0
ssS'BHMCatS1008V'
p4046
(dp4047
g12
F0.0
sg20
S'NICHE-008 B'
p4048
sg29
F-2.0
sg37
F-2.0
sg45
I1008
sg53
F-2.0
sg61
F-2.0
sg69
F-2.0
sg77
F0.0
sg85
F-2.0
sg93
F-2.0
sg101
F0.7
sg109
S'NICHE-008'
p4049
sg118
g3
(g121
S'0\xa8\x1bgj\x94\x8f?'
p4050
tp4051
Rp4052
sg134
F-2.0
sg142
g143
sg151
F-2.0
sg159
F0.0
sg167
g168
sg169
(lp4053
(dp4054
g179
S'BHMCatPV1008'
p4055
sg188
F0.0
sg196
F0.0
sg204
S'BHMCatS1008V'
p4056
sg213
F0.0
sg221
S'1008'
p4057
sg230
g231
sg239
F1.000001
sg247
S'1008'
p4058
sg256
F0.0
sg264
F0.0
sg272
S'NICHE-008'
p4059
sg281
F1.000001
sg289
F0.0
sg297
F1.0
sg305
F0.0
sg313
F0.0
sg321
F1.0
sg329
S'NICHE-008h'
p4060
sg338
g339
sg347
F0.0
sasg355
g168
sg363
S'NICHE'
p4061
sg372
F-2.0
sg380
F-2.0
sg388
g1668
sg390
(dp4062
S'BHMCatPV1008'
p4063
(dp4064
g401
F7.0
sg409
F0.0
sg417
F0.0
sg425
F0.0
sg433
F1.0
sg441
F0.0
sg449
F11.3
sg457
S"'early mars'"
p4065
sg466
F4.5
sg474
F1.5
sg482
F1.000001
sg490
F0.002
sg498
F1.0
sg506
F1.0
sg514
F0.0
sg522
S'Chaboyer'
p4066
sg531
F2.0
sg539
F0.95
sg547
F0.275556
sg555
F0.95
sg563
F1.000001
sg571
F5e+40
sg579
F4.7e+40
sg587
F1.5
sg595
F44.0
sg603
F0.0
sg611
F0.275556
sg619
F5.0
sg627
F1.0
sg635
S'Chaboyer'
p4067
sg644
F0.0
sg652
F0.3
sg660
S"'maximum greenhouse'"
p4068
sg669
F0.3
sg677
F1.0
sg685
S"'Earth'"
p4069
sg694
F0.01
sg702
F10.0
sg710
F1.0
sg718
F2.0
sg726
F3.0
sg734
S'PARSEC'
p4070
sg743
S'PARSEC'
p4071
sg752
F5e+40
sg760
F4.7e+40
sg768
S'BHMCatPV1008'
p4072
sg777
F0.01
sg785
S'BHMCatS1008V'
p4073
sg794
S'NICHE-008h'
p4074
sg803
F7.0
sg811
S'NICHE-008'
p4075
sg820
S"'recent venus'"
p4076
sg829
S"'runaway greenhouse'"
p4077
sg838
F11.3
sg846
F0.0
sg854
F1.0
sg862
F5.0
sg870
F0.002
sg878
F0.3
sssg886
F-2.0
sg894
F-1.0
sg902
S'2014arXiv1408.5163M;'
p4078
sg911
F0.85
sg919
F-2.0
sg927
F-2.0
sg935
F-2.0
sg943
F-2.0
sg951
F-2.0
sg959
F0.3
sg967
F0.0
sg975
F-1.0
sg983
S'BHMCatPV1008;'
p4079
sg992
F-2.0
sg1000
F0.823529411764706
sg1008
g1009
sg1017
S'NICHE-008 A'
p4080
sg1026
F-2.0
sg1034
F-1.0
sg1042
F-2.0
sg1050
F-1.0
sg1058
F-1.0
sg1066
F-1.0
sg1074
F0.166879790842003
sg1082
F-1.0
sg1090
F-2.0
sg1098
g4046
sg1106
F-2.0
sg1114
F0.0
sg1122
F-2.0
sg1130
S'1008'
p4081
sg1139
F-1.0
sg1147
F-2.0
sg1155
F20.0
sg1163
F-2.0
sg1171
F-1.0
sg1179
F-1.0
sg1187
F-1.0
sg1195
F-2.0
ssS'FieldsType'
p4082
(dp4083
g12
g3
(g4
(S'S5'
p4084
I0
I1
tp4085
Rp4086
(I3
S'|'
p4087
NNNI5
I1
I0
tp4088
bS'float'
p4089
tp4090
Rp4091
sg20
g3
(g4
(S'S3'
p4092
I0
I1
tp4093
Rp4094
(I3
S'|'
p4095
NNNI3
I1
I0
tp4096
bS'str'
p4097
tp4098
Rp4099
sg29
g3
(g4
(S'S5'
p4100
I0
I1
tp4101
Rp4102
(I3
S'|'
p4103
NNNI5
I1
I0
tp4104
bS'float'
p4105
tp4106
Rp4107
sg37
g3
(g4
(S'S5'
p4108
I0
I1
tp4109
Rp4110
(I3
S'|'
p4111
NNNI5
I1
I0
tp4112
bS'float'
p4113
tp4114
Rp4115
sg45
g3
(g4
(S'S3'
p4116
I0
I1
tp4117
Rp4118
(I3
S'|'
p4119
NNNI3
I1
I0
tp4120
bS'int'
p4121
tp4122
Rp4123
sg53
g3
(g4
(S'S5'
p4124
I0
I1
tp4125
Rp4126
(I3
S'|'
p4127
NNNI5
I1
I0
tp4128
bS'float'
p4129
tp4130
Rp4131
sg61
g3
(g4
(S'S5'
p4132
I0
I1
tp4133
Rp4134
(I3
S'|'
p4135
NNNI5
I1
I0
tp4136
bS'float'
p4137
tp4138
Rp4139
sg69
g3
(g4
(S'S5'
p4140
I0
I1
tp4141
Rp4142
(I3
S'|'
p4143
NNNI5
I1
I0
tp4144
bS'float'
p4145
tp4146
Rp4147
sg77
g3
(g4
(S'S5'
p4148
I0
I1
tp4149
Rp4150
(I3
S'|'
p4151
NNNI5
I1
I0
tp4152
bS'float'
p4153
tp4154
Rp4155
sg85
g3
(g4
(S'S5'
p4156
I0
I1
tp4157
Rp4158
(I3
S'|'
p4159
NNNI5
I1
I0
tp4160
bS'float'
p4161
tp4162
Rp4163
sg93
g3
(g4
(S'S5'
p4164
I0
I1
tp4165
Rp4166
(I3
S'|'
p4167
NNNI5
I1
I0
tp4168
bS'float'
p4169
tp4170
Rp4171
sg101
g3
(g4
(S'S5'
p4172
I0
I1
tp4173
Rp4174
(I3
S'|'
p4175
NNNI5
I1
I0
tp4176
bS'float'
p4177
tp4178
Rp4179
sg109
g3
(g4
(S'S3'
p4180
I0
I1
tp4181
Rp4182
(I3
S'|'
p4183
NNNI3
I1
I0
tp4184
bS'str'
p4185
tp4186
Rp4187
sg118
g3
(g4
(S'S5'
p4188
I0
I1
tp4189
Rp4190
(I3
S'|'
p4191
NNNI5
I1
I0
tp4192
bS'float'
p4193
tp4194
Rp4195
sg134
g3
(g4
(S'S3'
p4196
I0
I1
tp4197
Rp4198
(I3
S'|'
p4199
NNNI3
I1
I0
tp4200
bS'dms'
p4201
tp4202
Rp4203
sg142
g3
(g4
(S'S3'
p4204
I0
I1
tp4205
Rp4206
(I3
S'|'
p4207
NNNI3
I1
I0
tp4208
bS'str'
p4209
tp4210
Rp4211
sg151
g3
(g4
(S'S5'
p4212
I0
I1
tp4213
Rp4214
(I3
S'|'
p4215
NNNI5
I1
I0
tp4216
bS'float'
p4217
tp4218
Rp4219
sg159
g3
(g4
(S'S5'
p4220
I0
I1
tp4221
Rp4222
(I3
S'|'
p4223
NNNI5
I1
I0
tp4224
bS'float'
p4225
tp4226
Rp4227
sg167
g3
(g4
(S'S3'
p4228
I0
I1
tp4229
Rp4230
(I3
S'|'
p4231
NNNI3
I1
I0
tp4232
bS'str'
p4233
tp4234
Rp4235
sg355
g3
(g4
(S'S3'
p4236
I0
I1
tp4237
Rp4238
(I3
S'|'
p4239
NNNI3
I1
I0
tp4240
bS'str'
p4241
tp4242
Rp4243
sg363
g3
(g4
(S'S3'
p4244
I0
I1
tp4245
Rp4246
(I3
S'|'
p4247
NNNI3
I1
I0
tp4248
bS'str'
p4249
tp4250
Rp4251
sg372
g3
(g4
(S'S5'
p4252
I0
I1
tp4253
Rp4254
(I3
S'|'
p4255
NNNI5
I1
I0
tp4256
bS'float'
p4257
tp4258
Rp4259
sg380
g3
(g4
(S'S5'
p4260
I0
I1
tp4261
Rp4262
(I3
S'|'
p4263
NNNI5
I1
I0
tp4264
bS'float'
p4265
tp4266
Rp4267
sg388
g3
(g4
(S'S3'
p4268
I0
I1
tp4269
Rp4270
(I3
S'|'
p4271
NNNI3
I1
I0
tp4272
bS'str'
p4273
tp4274
Rp4275
sg886
g3
(g4
(S'S5'
p4276
I0
I1
tp4277
Rp4278
(I3
S'|'
p4279
NNNI5
I1
I0
tp4280
bS'float'
p4281
tp4282
Rp4283
sg894
g3
(g4
(S'S5'
p4284
I0
I1
tp4285
Rp4286
(I3
S'|'
p4287
NNNI5
I1
I0
tp4288
bS'float'
p4289
tp4290
Rp4291
sg902
g3
(g4
(S'S3'
p4292
I0
I1
tp4293
Rp4294
(I3
S'|'
p4295
NNNI3
I1
I0
tp4296
bS'str'
p4297
tp4298
Rp4299
sg911
g3
(g4
(S'S5'
p4300
I0
I1
tp4301
Rp4302
(I3
S'|'
p4303
NNNI5
I1
I0
tp4304
bS'float'
p4305
tp4306
Rp4307
sg919
g3
(g4
(S'S5'
p4308
I0
I1
tp4309
Rp4310
(I3
S'|'
p4311
NNNI5
I1
I0
tp4312
bS'float'
p4313
tp4314
Rp4315
sg927
g3
(g4
(S'S5'
p4316
I0
I1
tp4317
Rp4318
(I3
S'|'
p4319
NNNI5
I1
I0
tp4320
bS'float'
p4321
tp4322
Rp4323
sg935
g3
(g4
(S'S5'
p4324
I0
I1
tp4325
Rp4326
(I3
S'|'
p4327
NNNI5
I1
I0
tp4328
bS'float'
p4329
tp4330
Rp4331
sg943
g3
(g4
(S'S5'
p4332
I0
I1
tp4333
Rp4334
(I3
S'|'
p4335
NNNI5
I1
I0
tp4336
bS'float'
p4337
tp4338
Rp4339
sg951
g3
(g4
(S'S5'
p4340
I0
I1
tp4341
Rp4342
(I3
S'|'
p4343
NNNI5
I1
I0
tp4344
bS'float'
p4345
tp4346
Rp4347
sg959
g3
(g4
(S'S5'
p4348
I0
I1
tp4349
Rp4350
(I3
S'|'
p4351
NNNI5
I1
I0
tp4352
bS'float'
p4353
tp4354
Rp4355
sg967
g3
(g4
(S'S5'
p4356
I0
I1
tp4357
Rp4358
(I3
S'|'
p4359
NNNI5
I1
I0
tp4360
bS'float'
p4361
tp4362
Rp4363
sg975
g3
(g4
(S'S5'
p4364
I0
I1
tp4365
Rp4366
(I3
S'|'
p4367
NNNI5
I1
I0
tp4368
bS'float'
p4369
tp4370
Rp4371
sg983
g3
(g4
(S'S3'
p4372
I0
I1
tp4373
Rp4374
(I3
S'|'
p4375
NNNI3
I1
I0
tp4376
bS'str'
p4377
tp4378
Rp4379
sg992
g3
(g4
(S'S5'
p4380
I0
I1
tp4381
Rp4382
(I3
S'|'
p4383
NNNI5
I1
I0
tp4384
bS'float'
p4385
tp4386
Rp4387
sg1000
g3
(g4
(S'S5'
p4388
I0
I1
tp4389
Rp4390
(I3
S'|'
p4391
NNNI5
I1
I0
tp4392
bS'float'
p4393
tp4394
Rp4395
sg1008
g3
(g4
(S'S3'
p4396
I0
I1
tp4397
Rp4398
(I3
S'|'
p4399
NNNI3
I1
I0
tp4400
bS'str'
p4401
tp4402
Rp4403
sg1017
g3
(g4
(S'S3'
p4404
I0
I1
tp4405
Rp4406
(I3
S'|'
p4407
NNNI3
I1
I0
tp4408
bS'str'
p4409
tp4410
Rp4411
sg1026
g3
(g4
(S'S3'
p4412
I0
I1
tp4413
Rp4414
(I3
S'|'
p4415
NNNI3
I1
I0
tp4416
bS'dms'
p4417
tp4418
Rp4419
sg1034
g3
(g4
(S'S5'
p4420
I0
I1
tp4421
Rp4422
(I3
S'|'
p4423
NNNI5
I1
I0
tp4424
bS'float'
p4425
tp4426
Rp4427
sg1042
g3
(g4
(S'S5'
p4428
I0
I1
tp4429
Rp4430
(I3
S'|'
p4431
NNNI5
I1
I0
tp4432
bS'float'
p4433
tp4434
Rp4435
sg1050
g3
(g4
(S'S5'
p4436
I0
I1
tp4437
Rp4438
(I3
S'|'
p4439
NNNI5
I1
I0
tp4440
bS'float'
p4441
tp4442
Rp4443
sg1058
g3
(g4
(S'S5'
p4444
I0
I1
tp4445
Rp4446
(I3
S'|'
p4447
NNNI5
I1
I0
tp4448
bS'float'
p4449
tp4450
Rp4451
sg1066
g3
(g4
(S'S5'
p4452
I0
I1
tp4453
Rp4454
(I3
S'|'
p4455
NNNI5
I1
I0
tp4456
bS'float'
p4457
tp4458
Rp4459
sg1074
g3
(g4
(S'S5'
p4460
I0
I1
tp4461
Rp4462
(I3
S'|'
p4463
NNNI5
I1
I0
tp4464
bS'float'
p4465
tp4466
Rp4467
sg1082
g3
(g4
(S'S5'
p4468
I0
I1
tp4469
Rp4470
(I3
S'|'
p4471
NNNI5
I1
I0
tp4472
bS'float'
p4473
tp4474
Rp4475
sg1090
g3
(g4
(S'S5'
p4476
I0
I1
tp4477
Rp4478
(I3
S'|'
p4479
NNNI5
I1
I0
tp4480
bS'float'
p4481
tp4482
Rp4483
sg1098
g3
(g4
(S'S3'
p4484
I0
I1
tp4485
Rp4486
(I3
S'|'
p4487
NNNI3
I1
I0
tp4488
bS'str'
p4489
tp4490
Rp4491
sg1106
g3
(g4
(S'S5'
p4492
I0
I1
tp4493
Rp4494
(I3
S'|'
p4495
NNNI5
I1
I0
tp4496
bS'float'
p4497
tp4498
Rp4499
sg1114
g3
(g4
(S'S5'
p4500
I0
I1
tp4501
Rp4502
(I3
S'|'
p4503
NNNI5
I1
I0
tp4504
bS'float'
p4505
tp4506
Rp4507
sg1122
g3
(g4
(S'S5'
p4508
I0
I1
tp4509
Rp4510
(I3
S'|'
p4511
NNNI5
I1
I0
tp4512
bS'float'
p4513
tp4514
Rp4515
sg1130
g3
(g4
(S'S3'
p4516
I0
I1
tp4517
Rp4518
(I3
S'|'
p4519
NNNI3
I1
I0
tp4520
bS'str'
p4521
tp4522
Rp4523
sg1139
g3
(g4
(S'S5'
p4524
I0
I1
tp4525
Rp4526
(I3
S'|'
p4527
NNNI5
I1
I0
tp4528
bS'float'
p4529
tp4530
Rp4531
sg1147
g3
(g4
(S'S5'
p4532
I0
I1
tp4533
Rp4534
(I3
S'|'
p4535
NNNI5
I1
I0
tp4536
bS'float'
p4537
tp4538
Rp4539
sg1155
g3
(g4
(S'S5'
p4540
I0
I1
tp4541
Rp4542
(I3
S'|'
p4543
NNNI5
I1
I0
tp4544
bS'float'
p4545
tp4546
Rp4547
sg1163
g3
(g4
(S'S5'
p4548
I0
I1
tp4549
Rp4550
(I3
S'|'
p4551
NNNI5
I1
I0
tp4552
bS'float'
p4553
tp4554
Rp4555
sg1171
g3
(g4
(S'S5'
p4556
I0
I1
tp4557
Rp4558
(I3
S'|'
p4559
NNNI5
I1
I0
tp4560
bS'float'
p4561
tp4562
Rp4563
sg1179
g3
(g4
(S'S5'
p4564
I0
I1
tp4565
Rp4566
(I3
S'|'
p4567
NNNI5
I1
I0
tp4568
bS'float'
p4569
tp4570
Rp4571
sg1187
g3
(g4
(S'S5'
p4572
I0
I1
tp4573
Rp4574
(I3
S'|'
p4575
NNNI5
I1
I0
tp4576
bS'float'
p4577
tp4578
Rp4579
sg1195
g3
(g4
(S'S5'
p4580
I0
I1
tp4581
Rp4582
(I3
S'|'
p4583
NNNI5
I1
I0
tp4584
bS'float'
p4585
tp4586
Rp4587
ssS'BHMCatS0016P'
p4588
(dp4589
g12
F-1.0
sg20
S'V69-47 Tuc  B'
p4590
sg29
F-1.0
sg37
F-1.0
sg45
I16
sg53
F5959.0
sg61
F0.006
sg69
F-1.0
sg77
F0.005
sg85
F1.162
sg93
F-1.0
sg101
F0.859
sg109
S'V69-47 Tuc'
p4591
sg118
F-1.0
sg134
F-71.9387
sg142
g1200
sg151
F0.004
sg159
F0.006
sg167
S'G type'
p4592
sg169
(lp4593
(dp4594
g179
S'BHMCatPP0017'
p4595
sg188
F0.0
sg196
F0.0
sg204
S'BHMCatS0016P'
p4596
sg213
F0.0
sg221
S'17'
p4597
sg230
g231
sg239
F1.000001
sg247
S'0017'
p4598
sg256
F0.0
sg264
F0.0
sg272
S'V69-47 Tuc'
p4599
sg281
F1.000001
sg289
F0.0
sg297
F1.0
sg305
F0.0
sg313
F0.0
sg321
F1.0
sg329
S'V69-47 Tuc h'
p4600
sg338
g339
sg347
F0.0
sasg355
S'G type'
p4601
sg363
S'EkCat'
p4602
sg372
F4.1
sg380
F-1.0
sg388
g1421
sg390
(dp4603
S'BHMCatPP0017'
p4604
(dp4605
g401
F7.0
sg409
F0.0
sg417
F0.0
sg425
F0.0
sg433
F1.0
sg441
F0.0
sg449
F11.3
sg457
S"'early mars'"
p4606
sg466
F4.5
sg474
F1.5
sg482
F1.000001
sg490
F0.002
sg498
F1.0
sg506
F1.0
sg514
F0.0
sg522
S'Chaboyer'
p4607
sg531
F2.0
sg539
F0.95
sg547
F0.275556
sg555
F0.95
sg563
F1.000001
sg571
F5e+40
sg579
F4.7e+40
sg587
F1.5
sg595
F44.0
sg603
F0.0
sg611
F0.275556
sg619
F5.0
sg627
F1.0
sg635
S'Chaboyer'
p4608
sg644
F0.0
sg652
F0.3
sg660
S"'maximum greenhouse'"
p4609
sg669
F0.3
sg677
F1.0
sg685
S"'Saturn'"
p4610
sg694
F0.01
sg702
F10.0
sg710
F1.0
sg718
F2.0
sg726
F3.0
sg734
S'PARSEC'
p4611
sg743
S'PARSEC'
p4612
sg752
F5e+40
sg760
F4.7e+40
sg768
S'BHMCatPP0017'
p4613
sg777
F0.01
sg785
S'BHMCatS0016P'
p4614
sg794
S'V69-47 Tuc h'
p4615
sg803
F7.0
sg811
S'V69-47 Tuc'
p4616
sg820
S"'recent venus'"
p4617
sg829
S"'runaway greenhouse'"
p4618
sg838
F11.3
sg846
F0.0
sg854
F1.0
sg862
F5.0
sg870
F0.002
sg878
F0.3
sssg886
F4.1
sg894
F-1.0
sg902
S'2010AJ....139..329T ;'
p4619
sg911
F0.876
sg919
F1.315
sg927
F-1.0
sg935
F5945.0
sg943
F89.77
sg951
F-1.0
sg959
F0.056
sg967
F0.005
sg975
F166.0
sg983
S'BHMCatPP0017;'
p4620
sg992
F150.0
sg1000
F0.980593607305936
sg1008
S'DEBCat'
p4621
sg1017
S'V69-47 Tuc  A'
p4622
sg1026
F0.38137499999999996
sg1034
F-1.0
sg1042
F-1.0
sg1050
F4418.0
sg1058
F-1.0
sg1066
F-1.0
sg1074
F0.224821648395722
sg1082
F-1.0
sg1090
F16.85
sg1098
g4588
sg1106
F-1.0
sg1114
F0.006
sg1122
F-1.0
sg1130
S'0016'
p4623
sg1139
F-1.0
sg1147
F-1.0
sg1155
F29.53975
sg1163
F-1.0
sg1171
F-1.0
sg1179
F-1.0
sg1187
F-1.0
sg1195
F150.0
ss.