(dp0
S'BHMCatS1004V'
p1
(dp2
cnumpy.core.multiarray
scalar
p3
(cnumpy
dtype
p4
(S'S13'
p5
I0
I1
tp6
Rp7
(I3
S'|'
p8
NNNI13
I1
I0
tp9
bS'binary_FeHfit'
p10
tp11
Rp12
F0.0
sg3
(g4
(S'S16'
p13
I0
I1
tp14
Rp15
(I3
S'|'
p16
NNNI16
I1
I0
tp17
bS'star2_str_StarID'
p18
tp19
Rp20
S'NICHE-004 B'
p21
sg3
(g4
(S'S9'
p22
I0
I1
tp23
Rp24
(I3
S'|'
p25
NNNI9
I1
I0
tp26
bS'binary_BV'
p27
tp28
Rp29
F-2.0
sg3
(g4
(S'S14'
p30
I0
I1
tp31
Rp32
(I3
S'|'
p33
NNNI14
I1
I0
tp34
bS'star2_vsinierr'
p35
tp36
Rp37
F-2.0
sg3
(g4
(S'S2'
p38
I0
I1
tp39
Rp40
(I3
S'|'
p41
NNNI2
I1
I0
tp42
bS'No'
p43
tp44
Rp45
I1004
sg3
(g4
(S'S7'
p46
I0
I1
tp47
Rp48
(I3
S'|'
p49
NNNI7
I1
I0
tp50
bS'star2_T'
p51
tp52
Rp53
F-2.0
sg3
(g4
(S'S13'
p54
I0
I1
tp55
Rp56
(I3
S'|'
p57
NNNI13
I1
I0
tp58
bS'star2_loggerr'
p59
tp60
Rp61
F-2.0
sg3
(g4
(S'S13'
p62
I0
I1
tp63
Rp64
(I3
S'|'
p65
NNNI13
I1
I0
tp66
bS'star2_Proterr'
p67
tp68
Rp69
F-2.0
sg3
(g4
(S'S10'
p70
I0
I1
tp71
Rp72
(I3
S'|'
p73
NNNI10
I1
I0
tp74
bS'star1_Rerr'
p75
tp76
Rp77
F0.0
sg3
(g4
(S'S7'
p78
I0
I1
tp79
Rp80
(I3
S'|'
p81
NNNI7
I1
I0
tp82
bS'star2_R'
p83
tp84
Rp85
F-2.0
sg3
(g4
(S'S13'
p86
I0
I1
tp87
Rp88
(I3
S'|'
p89
NNNI13
I1
I0
tp90
bS'binary_taumax'
p91
tp92
Rp93
F-2.0
sg3
(g4
(S'S7'
p94
I0
I1
tp95
Rp96
(I3
S'|'
p97
NNNI7
I1
I0
tp98
bS'star2_M'
p99
tp100
Rp101
F0.7
sg3
(g4
(S'S16'
p102
I0
I1
tp103
Rp104
(I3
S'|'
p105
NNNI16
I1
I0
tp106
bS'binary_str_SysID'
p107
tp108
Rp109
S'NICHE-004'
p110
sg3
(g4
(S'S11'
p111
I0
I1
tp112
Rp113
(I3
S'|'
p114
NNNI11
I1
I0
tp115
bS'binary_Zfit'
p116
tp117
Rp118
g3
(g4
(S'f8'
p119
I0
I1
tp120
Rp121
(I3
S'<'
p122
NNNI-1
I-1
I0
tp123
bS'0\xa8\x1bgj\x94\x8f?'
p124
tp125
Rp126
sg3
(g4
(S'S3'
p127
I0
I1
tp128
Rp129
(I3
S'|'
p130
NNNI3
I1
I0
tp131
bS'DEC'
p132
tp133
Rp134
F-2.0
sg3
(g4
(S'S4'
p135
I0
I1
tp136
Rp137
(I3
S'|'
p138
NNNI4
I1
I0
tp139
bS'Type'
p140
tp141
Rp142
S'V'
p143
sg3
(g4
(S'S13'
p144
I0
I1
tp145
Rp146
(I3
S'|'
p147
NNNI13
I1
I0
tp148
bS'star1_loggerr'
p149
tp150
Rp151
F-2.0
sg3
(g4
(S'S10'
p152
I0
I1
tp153
Rp154
(I3
S'|'
p155
NNNI10
I1
I0
tp156
bS'star2_Rerr'
p157
tp158
Rp159
F0.0
sg3
(g4
(S'S15'
p160
I0
I1
tp161
Rp162
(I3
S'|'
p163
NNNI15
I1
I0
tp164
bS'star1_str_Stype'
p165
tp166
Rp167
S'-'
p168
sS'PlanetsData'
p169
(lp170
(dp171
g3
(g4
(S'S7'
p172
I0
I1
tp173
Rp174
(I3
S'|'
p175
NNNI7
I1
I0
tp176
bS'BHMCatP'
p177
tp178
Rp179
S'BHMCatPV1004'
p180
sg3
(g4
(S'S11'
p181
I0
I1
tp182
Rp183
(I3
S'|'
p184
NNNI11
I1
I0
tp185
bS'planet_Merr'
p186
tp187
Rp188
F0.0
sg3
(g4
(S'S11'
p189
I0
I1
tp190
Rp191
(I3
S'|'
p192
NNNI11
I1
I0
tp193
bS'planet_eorb'
p194
tp195
Rp196
F0.0
sg3
(g4
(S'S7'
p197
I0
I1
tp198
Rp199
(I3
S'|'
p200
NNNI7
I1
I0
tp201
bS'BHMCatS'
p202
tp203
Rp204
S'BHMCatS1004V'
p205
sg3
(g4
(S'S14'
p206
I0
I1
tp207
Rp208
(I3
S'|'
p209
NNNI14
I1
I0
tp210
bS'planet_eorberr'
p211
tp212
Rp213
F0.0
sg3
(g4
(S'S3'
p214
I0
I1
tp215
Rp216
(I3
S'|'
p217
NNNI3
I1
I0
tp218
bS'Nop'
p219
tp220
Rp221
S'1004'
p222
sg3
(g4
(S'S10'
p223
I0
I1
tp224
Rp225
(I3
S'|'
p226
NNNI10
I1
I0
tp227
bS'planet_ADS'
p228
tp229
Rp230
S';'
p231
sg3
(g4
(S'S8'
p232
I0
I1
tp233
Rp234
(I3
S'|'
p235
NNNI8
I1
I0
tp236
bS'planet_R'
p237
tp238
Rp239
F1.000001
sg3
(g4
(S'S6'
p240
I0
I1
tp241
Rp242
(I3
S'|'
p243
NNNI6
I1
I0
tp244
bS'Nopstr'
p245
tp246
Rp247
S'1004'
p248
sg3
(g4
(S'S11'
p249
I0
I1
tp250
Rp251
(I3
S'|'
p252
NNNI11
I1
I0
tp253
bS'planet_Porb'
p254
tp255
Rp256
F0.0
sg3
(g4
(S'S14'
p257
I0
I1
tp258
Rp259
(I3
S'|'
p260
NNNI14
I1
I0
tp261
bS'planet_aorberr'
p262
tp263
Rp264
F0.0
sg3
(g4
(S'S5'
p265
I0
I1
tp266
Rp267
(I3
S'|'
p268
NNNI5
I1
I0
tp269
bS'SysID'
p270
tp271
Rp272
S'NICHE-004'
p273
sg3
(g4
(S'S8'
p274
I0
I1
tp275
Rp276
(I3
S'|'
p277
NNNI8
I1
I0
tp278
bS'planet_M'
p279
tp280
Rp281
F1.000001
sg3
(g4
(S'S11'
p282
I0
I1
tp283
Rp284
(I3
S'|'
p285
NNNI11
I1
I0
tp286
bS'planet_worb'
p287
tp288
Rp289
F0.0
sg3
(g4
(S'S11'
p290
I0
I1
tp291
Rp292
(I3
S'|'
p293
NNNI11
I1
I0
tp294
bS'planet_aorb'
p295
tp296
Rp297
F1.0
sg3
(g4
(S'S14'
p298
I0
I1
tp299
Rp300
(I3
S'|'
p301
NNNI14
I1
I0
tp302
bS'planet_Porberr'
p303
tp304
Rp305
F0.0
sg3
(g4
(S'S14'
p306
I0
I1
tp307
Rp308
(I3
S'|'
p309
NNNI14
I1
I0
tp310
bS'planet_worberr'
p311
tp312
Rp313
F0.0
sg3
(g4
(S'S11'
p314
I0
I1
tp315
Rp316
(I3
S'|'
p317
NNNI11
I1
I0
tp318
bS'planet_Morb'
p319
tp320
Rp321
F1.0
sg3
(g4
(S'S19'
p322
I0
I1
tp323
Rp324
(I3
S'|'
p325
NNNI19
I1
I0
tp326
bS'planet_str_PlanetID'
p327
tp328
Rp329
S'NICHE-004h'
p330
sg3
(g4
(S'S4'
p331
I0
I1
tp332
Rp333
(I3
S'|'
p334
NNNI4
I1
I0
tp335
bS'Type'
p336
tp337
Rp338
S'h'
p339
sg3
(g4
(S'S11'
p340
I0
I1
tp341
Rp342
(I3
S'|'
p343
NNNI11
I1
I0
tp344
bS'planet_Rerr'
p345
tp346
Rp347
F0.0
sasg3
(g4
(S'S15'
p348
I0
I1
tp349
Rp350
(I3
S'|'
p351
NNNI15
I1
I0
tp352
bS'star2_str_Stype'
p353
tp354
Rp355
g168
sg3
(g4
(S'S9'
p356
I0
I1
tp357
Rp358
(I3
S'|'
p359
NNNI9
I1
I0
tp360
bS'SourceCat'
p361
tp362
Rp363
S'NICHE'
p364
sg3
(g4
(S'S10'
p365
I0
I1
tp366
Rp367
(I3
S'|'
p368
NNNI10
I1
I0
tp369
bS'star2_logg'
p370
tp371
Rp372
F-2.0
sg3
(g4
(S'S11'
p373
I0
I1
tp374
Rp375
(I3
S'|'
p376
NNNI11
I1
I0
tp377
bS'star2_vsini'
p378
tp379
Rp380
F-2.0
sg3
(g4
(S'S8'
p381
I0
I1
tp382
Rp383
(I3
S'|'
p384
NNNI8
I1
I0
tp385
bS'SourceID'
p386
tp387
Rp388
S'4'
p389
sS'PlanetsModel'
p390
(dp391
S'BHMCatPV1004'
p392
(dp393
g3
(g4
(S'S10'
p394
I0
I1
tp395
Rp396
(I3
S'|'
p397
NNNI10
I1
I0
tp398
bS'star2_Pini'
p399
tp400
Rp401
F3.0
sg3
(g4
(S'S11'
p402
I0
I1
tp403
Rp404
(I3
S'|'
p405
NNNI11
I1
I0
tp406
bS'star2_taums'
p407
tp408
Rp409
F0.0
sg3
(g4
(S'S11'
p410
I0
I1
tp411
Rp412
(I3
S'|'
p413
NNNI11
I1
I0
tp414
bS'star1_taums'
p415
tp416
Rp417
F0.0
sg3
(g4
(S'S7'
p418
I0
I1
tp419
Rp420
(I3
S'|'
p421
NNNI7
I1
I0
tp422
bS'star2_Z'
p423
tp424
Rp425
F0.0
sg3
(g4
(S'S10'
p426
I0
I1
tp427
Rp428
(I3
S'|'
p429
NNNI10
I1
I0
tp430
bS'planet_tau'
p431
tp432
Rp433
F1.0
sg3
(g4
(S'S9'
p434
I0
I1
tp435
Rp436
(I3
S'|'
p437
NNNI9
I1
I0
tp438
bS'star1_FeH'
p439
tp440
Rp441
F0.0
sg3
(g4
(S'S8'
p442
I0
I1
tp443
Rp444
(I3
S'|'
p445
NNNI8
I1
I0
tp446
bS'star2_K1'
p447
tp448
Rp449
F11.3
sg3
(g4
(S'S17'
p450
I0
I1
tp451
Rp452
(I3
S'|'
p453
NNNI17
I1
I0
tp454
bS'hz_str_outcrit_wd'
p455
tp456
Rp457
S"'early mars'"
p458
sg3
(g4
(S'S14'
p459
I0
I1
tp460
Rp461
(I3
S'|'
p462
NNNI14
I1
I0
tp463
bS'interaction_nP'
p464
tp465
Rp466
F4.5
sg3
(g4
(S'S7'
p467
I0
I1
tp468
Rp469
(I3
S'|'
p470
NNNI7
I1
I0
tp471
bS'star1_n'
p472
tp473
Rp474
F1.5
sg3
(g4
(S'S8'
p475
I0
I1
tp476
Rp477
(I3
S'|'
p478
NNNI8
I1
I0
tp479
bS'planet_R'
p480
tp481
Rp482
F1.000001
sg3
(g4
(S'S13'
p483
I0
I1
tp484
Rp485
(I3
S'|'
p486
NNNI13
I1
I0
tp487
bS'star1_taudisk'
p488
tp489
Rp490
F0.01
sg3
(g4
(S'S11'
p491
I0
I1
tp492
Rp493
(I3
S'|'
p494
NNNI11
I1
I0
tp495
bS'planet_Prot'
p496
tp497
Rp498
F1.0
sg3
(g4
(S'S14'
p499
I0
I1
tp500
Rp501
(I3
S'|'
p502
NNNI14
I1
I0
tp503
bS'rotation_fdiss'
p504
tp505
Rp506
F1.0
sg3
(g4
(S'S9'
p507
I0
I1
tp508
Rp509
(I3
S'|'
p510
NNNI9
I1
I0
tp511
bS'star2_FeH'
p512
tp513
Rp514
F0.0
sg3
(g4
(S'S18'
p515
I0
I1
tp516
Rp517
(I3
S'|'
p518
NNNI18
I1
I0
tp519
bS'star1_str_rotmodel'
p520
tp521
Rp522
S'Chaboyer'
p523
sg3
(g4
(S'S15'
p524
I0
I1
tp525
Rp526
(I3
S'|'
p527
NNNI15
I1
I0
tp528
bS'rotation_tauint'
p529
tp530
Rp531
F10.0
sg3
(g4
(S'S7'
p532
I0
I1
tp533
Rp534
(I3
S'|'
p535
NNNI7
I1
I0
tp536
bS'star2_A'
p537
tp538
Rp539
F0.95
sg3
(g4
(S'S7'
p540
I0
I1
tp541
Rp542
(I3
S'|'
p543
NNNI7
I1
I0
tp544
bS'star2_Y'
p545
tp546
Rp547
F0.275556
sg3
(g4
(S'S7'
p548
I0
I1
tp549
Rp550
(I3
S'|'
p551
NNNI7
I1
I0
tp552
bS'star1_A'
p553
tp554
Rp555
F0.95
sg3
(g4
(S'S8'
p556
I0
I1
tp557
Rp558
(I3
S'|'
p559
NNNI8
I1
I0
tp560
bS'planet_M'
p561
tp562
Rp563
F1.000001
sg3
(g4
(S'S8'
p564
I0
I1
tp565
Rp566
(I3
S'|'
p567
NNNI8
I1
I0
tp568
bS'star1_Kc'
p569
tp570
Rp571
F4.7e+40
sg3
(g4
(S'S8'
p572
I0
I1
tp573
Rp574
(I3
S'|'
p575
NNNI8
I1
I0
tp576
bS'star1_Kw'
p577
tp578
Rp579
F4.7e+40
sg3
(g4
(S'S7'
p580
I0
I1
tp581
Rp582
(I3
S'|'
p583
NNNI7
I1
I0
tp584
bS'star2_n'
p585
tp586
Rp587
F1.5
sg3
(g4
(S'S17'
p588
I0
I1
tp589
Rp590
(I3
S'|'
p591
NNNI17
I1
I0
tp592
bS'interaction_muatm'
p593
tp594
Rp595
F44.0
sg3
(g4
(S'S7'
p596
I0
I1
tp597
Rp598
(I3
S'|'
p599
NNNI7
I1
I0
tp600
bS'star1_Z'
p601
tp602
Rp603
F0.0
sg3
(g4
(S'S7'
p604
I0
I1
tp605
Rp606
(I3
S'|'
p607
NNNI7
I1
I0
tp608
bS'star1_Y'
p609
tp610
Rp611
F0.275556
sg3
(g4
(S'S10'
p612
I0
I1
tp613
Rp614
(I3
S'|'
p615
NNNI10
I1
I0
tp616
bS'star1_tauc'
p617
tp618
Rp619
F5.0
sg3
(g4
(S'S7'
p620
I0
I1
tp621
Rp622
(I3
S'|'
p623
NNNI7
I1
I0
tp624
bS'star2_a'
p625
tp626
Rp627
F1.0
sg3
(g4
(S'S18'
p628
I0
I1
tp629
Rp630
(I3
S'|'
p631
NNNI18
I1
I0
tp632
bS'star2_str_rotmodel'
p633
tp634
Rp635
S'Chaboyer'
p636
sg3
(g4
(S'S10'
p637
I0
I1
tp638
Rp639
(I3
S'|'
p640
NNNI10
I1
I0
tp641
bS'star1_wsat'
p642
tp643
Rp644
F0.0
sg3
(g4
(S'S11'
p645
I0
I1
tp646
Rp647
(I3
S'|'
p648
NNNI11
I1
I0
tp649
bS'planet_fHHe'
p650
tp651
Rp652
F0.3
sg3
(g4
(S'S17'
p653
I0
I1
tp654
Rp655
(I3
S'|'
p656
NNNI17
I1
I0
tp657
bS'hz_str_outcrit_nr'
p658
tp659
Rp660
S"'maximum greenhouse'"
p661
sg3
(g4
(S'S17'
p662
I0
I1
tp663
Rp664
(I3
S'|'
p665
NNNI17
I1
I0
tp666
bS'interaction_alpha'
p667
tp668
Rp669
F0.3
sg3
(g4
(S'S7'
p670
I0
I1
tp671
Rp672
(I3
S'|'
p673
NNNI7
I1
I0
tp674
bS'star1_a'
p675
tp676
Rp677
F1.0
sg3
(g4
(S'S22'
p678
I0
I1
tp679
Rp680
(I3
S'|'
p681
NNNI22
I1
I0
tp682
bS'interaction_str_refobj'
p683
tp684
Rp685
S"'Earth'"
p686
sg3
(g4
(S'S16'
p687
I0
I1
tp688
Rp689
(I3
S'|'
p690
NNNI16
I1
I0
tp691
bS'interaction_Mmin'
p692
tp693
Rp694
F0.01
sg3
(g4
(S'S16'
p695
I0
I1
tp696
Rp697
(I3
S'|'
p698
NNNI16
I1
I0
tp699
bS'interaction_Mmax'
p700
tp701
Rp702
F10.0
sg3
(g4
(S'S9'
p703
I0
I1
tp704
Rp705
(I3
S'|'
p706
NNNI9
I1
I0
tp707
bS'star1_tau'
p708
tp709
Rp710
F1.0
sg3
(g4
(S'S18'
p711
I0
I1
tp712
Rp713
(I3
S'|'
p714
NNNI18
I1
I0
tp715
bS'interaction_tauref'
p716
tp717
Rp718
F2.0
sg3
(g4
(S'S14'
p719
I0
I1
tp720
Rp721
(I3
S'|'
p722
NNNI14
I1
I0
tp723
bS'interaction_nM'
p724
tp725
Rp726
F3.0
sg3
(g4
(S'S15'
p727
I0
I1
tp728
Rp729
(I3
S'|'
p730
NNNI15
I1
I0
tp731
bS'star2_str_model'
p732
tp733
Rp734
S'PARSEC'
p735
sg3
(g4
(S'S15'
p736
I0
I1
tp737
Rp738
(I3
S'|'
p739
NNNI15
I1
I0
tp740
bS'star1_str_model'
p741
tp742
Rp743
S'PARSEC'
p744
sg3
(g4
(S'S8'
p745
I0
I1
tp746
Rp747
(I3
S'|'
p748
NNNI8
I1
I0
tp749
bS'star2_Kc'
p750
tp751
Rp752
F4.7e+40
sg3
(g4
(S'S8'
p753
I0
I1
tp754
Rp755
(I3
S'|'
p756
NNNI8
I1
I0
tp757
bS'star2_Kw'
p758
tp759
Rp760
F4.7e+40
sg3
(g4
(S'S7'
p761
I0
I1
tp762
Rp763
(I3
S'|'
p764
NNNI7
I1
I0
tp765
bS'BHMCatP'
p766
tp767
Rp768
S'BHMCatPV1004'
p769
sg3
(g4
(S'S18'
p770
I0
I1
tp771
Rp772
(I3
S'|'
p773
NNNI18
I1
I0
tp774
bS'interaction_tauini'
p775
tp776
Rp777
F0.1
sg3
(g4
(S'S7'
p778
I0
I1
tp779
Rp780
(I3
S'|'
p781
NNNI7
I1
I0
tp782
bS'BHMCatS'
p783
tp784
Rp785
S'BHMCatS1004V'
p786
sg3
(g4
(S'S8'
p787
I0
I1
tp788
Rp789
(I3
S'|'
p790
NNNI8
I1
I0
tp791
bS'PlanetID'
p792
tp793
Rp794
S'NICHE-004h'
p795
sg3
(g4
(S'S10'
p796
I0
I1
tp797
Rp798
(I3
S'|'
p799
NNNI10
I1
I0
tp800
bS'star1_Pini'
p801
tp802
Rp803
F3.0
sg3
(g4
(S'S5'
p804
I0
I1
tp805
Rp806
(I3
S'|'
p807
NNNI5
I1
I0
tp808
bS'SysID'
p809
tp810
Rp811
S'NICHE-004'
p812
sg3
(g4
(S'S16'
p813
I0
I1
tp814
Rp815
(I3
S'|'
p816
NNNI16
I1
I0
tp817
bS'hz_str_incrit_wd'
p818
tp819
Rp820
S"'recent venus'"
p821
sg3
(g4
(S'S16'
p822
I0
I1
tp823
Rp824
(I3
S'|'
p825
NNNI16
I1
I0
tp826
bS'hz_str_incrit_nr'
p827
tp828
Rp829
S"'runaway greenhouse'"
p830
sg3
(g4
(S'S8'
p831
I0
I1
tp832
Rp833
(I3
S'|'
p834
NNNI8
I1
I0
tp835
bS'star1_K1'
p836
tp837
Rp838
F11.3
sg3
(g4
(S'S10'
p839
I0
I1
tp840
Rp841
(I3
S'|'
p842
NNNI10
I1
I0
tp843
bS'star2_wsat'
p844
tp845
Rp846
F0.0
sg3
(g4
(S'S9'
p847
I0
I1
tp848
Rp849
(I3
S'|'
p850
NNNI9
I1
I0
tp851
bS'star2_tau'
p852
tp853
Rp854
F1.0
sg3
(g4
(S'S10'
p855
I0
I1
tp856
Rp857
(I3
S'|'
p858
NNNI10
I1
I0
tp859
bS'star2_tauc'
p860
tp861
Rp862
F5.0
sg3
(g4
(S'S13'
p863
I0
I1
tp864
Rp865
(I3
S'|'
p866
NNNI13
I1
I0
tp867
bS'star2_taudisk'
p868
tp869
Rp870
F0.01
sg3
(g4
(S'S10'
p871
I0
I1
tp872
Rp873
(I3
S'|'
p874
NNNI10
I1
I0
tp875
bS'planet_CMF'
p876
tp877
Rp878
F0.3
sssg3
(g4
(S'S10'
p879
I0
I1
tp880
Rp881
(I3
S'|'
p882
NNNI10
I1
I0
tp883
bS'star1_logg'
p884
tp885
Rp886
F-2.0
sg3
(g4
(S'S11'
p887
I0
I1
tp888
Rp889
(I3
S'|'
p890
NNNI11
I1
I0
tp891
bS'star1_Protv'
p892
tp893
Rp894
F-1.0
sg3
(g4
(S'S10'
p895
I0
I1
tp896
Rp897
(I3
S'|'
p898
NNNI10
I1
I0
tp899
bS'binary_ADS'
p900
tp901
Rp902
g168
sg3
(g4
(S'S7'
p903
I0
I1
tp904
Rp905
(I3
S'|'
p906
NNNI7
I1
I0
tp907
bS'star1_M'
p908
tp909
Rp910
F1.0
sg3
(g4
(S'S7'
p911
I0
I1
tp912
Rp913
(I3
S'|'
p914
NNNI7
I1
I0
tp915
bS'star1_R'
p916
tp917
Rp918
F-2.0
sg3
(g4
(S'S13'
p919
I0
I1
tp920
Rp921
(I3
S'|'
p922
NNNI13
I1
I0
tp923
bS'star1_Proterr'
p924
tp925
Rp926
F-2.0
sg3
(g4
(S'S7'
p927
I0
I1
tp928
Rp929
(I3
S'|'
p930
NNNI7
I1
I0
tp931
bS'star1_T'
p932
tp933
Rp934
F-2.0
sg3
(g4
(S'S11'
p935
I0
I1
tp936
Rp937
(I3
S'|'
p938
NNNI11
I1
I0
tp939
bS'binary_ibin'
p940
tp941
Rp942
F-2.0
sg3
(g4
(S'S10'
p943
I0
I1
tp944
Rp945
(I3
S'|'
p946
NNNI10
I1
I0
tp947
bS'star2_Prot'
p948
tp949
Rp950
F-2.0
sg3
(g4
(S'S11'
p951
I0
I1
tp952
Rp953
(I3
S'|'
p954
NNNI11
I1
I0
tp955
bS'binary_ebin'
p956
tp957
Rp958
F0.4
sg3
(g4
(S'S10'
p959
I0
I1
tp960
Rp961
(I3
S'|'
p962
NNNI10
I1
I0
tp963
bS'star1_Merr'
p964
tp965
Rp966
F0.0
sg3
(g4
(S'S11'
p967
I0
I1
tp968
Rp969
(I3
S'|'
p970
NNNI11
I1
I0
tp971
bS'binary_derr'
p972
tp973
Rp974
F-1.0
sg3
(g4
(S'S7'
p975
I0
I1
tp976
Rp977
(I3
S'|'
p978
NNNI7
I1
I0
tp979
bS'Planets'
p980
tp981
Rp982
S'BHMCatPV1004;'
p983
sg3
(g4
(S'S10'
p984
I0
I1
tp985
Rp986
(I3
S'|'
p987
NNNI10
I1
I0
tp988
bS'star2_Terr'
p989
tp990
Rp991
F-2.0
sg3
(g4
(S'S8'
p992
I0
I1
tp993
Rp994
(I3
S'|'
p995
NNNI8
I1
I0
tp996
bS'binary_q'
p997
tp998
Rp999
F0.7
sg3
(g4
(S'S5'
p1000
I0
I1
tp1001
Rp1002
(I3
S'|'
p1003
NNNI5
I1
I0
tp1004
bS'Notes'
p1005
tp1006
Rp1007
S''
p1008
sg3
(g4
(S'S16'
p1009
I0
I1
tp1010
Rp1011
(I3
S'|'
p1012
NNNI16
I1
I0
tp1013
bS'star1_str_StarID'
p1014
tp1015
Rp1016
S'NICHE-004 A'
p1017
sg3
(g4
(S'S2'
p1018
I0
I1
tp1019
Rp1020
(I3
S'|'
p1021
NNNI2
I1
I0
tp1022
bS'RA'
p1023
tp1024
Rp1025
F-2.0
sg3
(g4
(S'S16'
p1026
I0
I1
tp1027
Rp1028
(I3
S'|'
p1029
NNNI16
I1
I0
tp1030
bS'binary_FeHfiterr'
p1031
tp1032
Rp1033
F-1.0
sg3
(g4
(S'S10'
p1034
I0
I1
tp1035
Rp1036
(I3
S'|'
p1037
NNNI10
I1
I0
tp1038
bS'star1_Prot'
p1039
tp1040
Rp1041
F-2.0
sg3
(g4
(S'S8'
p1042
I0
I1
tp1043
Rp1044
(I3
S'|'
p1045
NNNI8
I1
I0
tp1046
bS'binary_d'
p1047
tp1048
Rp1049
F-1.0
sg3
(g4
(S'S11'
p1050
I0
I1
tp1051
Rp1052
(I3
S'|'
p1053
NNNI11
I1
I0
tp1054
bS'binary_wbin'
p1055
tp1056
Rp1057
F-1.0
sg3
(g4
(S'S14'
p1058
I0
I1
tp1059
Rp1060
(I3
S'|'
p1061
NNNI14
I1
I0
tp1062
bS'star2_Protverr'
p1063
tp1064
Rp1065
F-1.0
sg3
(g4
(S'S11'
p1066
I0
I1
tp1067
Rp1068
(I3
S'|'
p1069
NNNI11
I1
I0
tp1070
bS'binary_abin'
p1071
tp1072
Rp1073
F0.142063877260615
sg3
(g4
(S'S11'
p1074
I0
I1
tp1075
Rp1076
(I3
S'|'
p1077
NNNI11
I1
I0
tp1078
bS'star2_Protv'
p1079
tp1080
Rp1081
F-1.0
sg3
(g4
(S'S8'
p1082
I0
I1
tp1083
Rp1084
(I3
S'|'
p1085
NNNI8
I1
I0
tp1086
bS'binary_V'
p1087
tp1088
Rp1089
F-2.0
sg3
(g4
(S'S7'
p1090
I0
I1
tp1091
Rp1092
(I3
S'|'
p1093
NNNI7
I1
I0
tp1094
bS'BHMCatS'
p1095
tp1096
Rp1097
g1
sg3
(g4
(S'S9'
p1098
I0
I1
tp1099
Rp1100
(I3
S'|'
p1101
NNNI9
I1
I0
tp1102
bS'binary_Lx'
p1103
tp1104
Rp1105
F-2.0
sg3
(g4
(S'S10'
p1106
I0
I1
tp1107
Rp1108
(I3
S'|'
p1109
NNNI10
I1
I0
tp1110
bS'star2_Merr'
p1111
tp1112
Rp1113
F0.0
sg3
(g4
(S'S14'
p1114
I0
I1
tp1115
Rp1116
(I3
S'|'
p1117
NNNI14
I1
I0
tp1118
bS'star1_vsinierr'
p1119
tp1120
Rp1121
F-2.0
sg3
(g4
(S'S5'
p1122
I0
I1
tp1123
Rp1124
(I3
S'|'
p1125
NNNI5
I1
I0
tp1126
bS'Nostr'
p1127
tp1128
Rp1129
S'1004'
p1130
sg3
(g4
(S'S13'
p1131
I0
I1
tp1132
Rp1133
(I3
S'|'
p1134
NNNI13
I1
I0
tp1135
bS'binary_FeHobs'
p1136
tp1137
Rp1138
F-1.0
sg3
(g4
(S'S13'
p1139
I0
I1
tp1140
Rp1141
(I3
S'|'
p1142
NNNI13
I1
I0
tp1143
bS'binary_taumin'
p1144
tp1145
Rp1146
F-2.0
sg3
(g4
(S'S11'
p1147
I0
I1
tp1148
Rp1149
(I3
S'|'
p1150
NNNI11
I1
I0
tp1151
bS'binary_Pbin'
p1152
tp1153
Rp1154
F15.0
sg3
(g4
(S'S11'
p1155
I0
I1
tp1156
Rp1157
(I3
S'|'
p1158
NNNI11
I1
I0
tp1159
bS'star1_vsini'
p1160
tp1161
Rp1162
F-2.0
sg3
(g4
(S'S11'
p1163
I0
I1
tp1164
Rp1165
(I3
S'|'
p1166
NNNI11
I1
I0
tp1167
bS'binary_Zobs'
p1168
tp1169
Rp1170
F-1.0
sg3
(g4
(S'S14'
p1171
I0
I1
tp1172
Rp1173
(I3
S'|'
p1174
NNNI14
I1
I0
tp1175
bS'star1_Protverr'
p1176
tp1177
Rp1178
F-1.0
sg3
(g4
(S'S11'
p1179
I0
I1
tp1180
Rp1181
(I3
S'|'
p1182
NNNI11
I1
I0
tp1183
bS'binary_dmod'
p1184
tp1185
Rp1186
F-1.0
sg3
(g4
(S'S10'
p1187
I0
I1
tp1188
Rp1189
(I3
S'|'
p1190
NNNI10
I1
I0
tp1191
bS'star1_Terr'
p1192
tp1193
Rp1194
F-2.0
ssS'BHMCatS0033P'
p1195
(dp1196
g12
F-1.0
sg20
S'V1143 Cyg B'
p1197
sg29
F-1.0
sg37
F3.0
sg45
I33
sg53
F6400.0
sg61
F0.016
sg69
F-1.0
sg77
F0.023
sg85
F1.323
sg93
F-1.0
sg101
F1.347
sg109
S'V1143 Cyg'
p1198
sg118
F-1.0
sg134
F54.973794444444444
sg142
S'P'
p1199
sg151
F0.016
sg159
F0.023
sg167
S'F5V'
p1200
sg169
(lp1201
(dp1202
g179
S'BHMCatP0034'
p1203
sg188
F0.0
sg196
F0.0
sg204
S'BHMCatS0033P'
p1204
sg213
F0.0
sg221
S'34'
p1205
sg230
g231
sg239
F1.000001
sg247
S'0034'
p1206
sg256
F0.0
sg264
F0.0
sg272
S'V1143 Cyg'
p1207
sg281
F1.000001
sg289
F0.0
sg297
F1.0
sg305
F0.0
sg313
F0.0
sg321
F1.0
sg329
S'V1143 Cygh'
p1208
sg338
g339
sg347
F0.0
sasg355
S'F5V'
p1209
sg363
S'EkCat'
p1210
sg372
F4.324
sg380
F28.0
sg388
S'199'
p1211
sg390
(dp1212
S'BHMCatP0034'
p1213
(dp1214
g401
F3.0
sg409
F0.0
sg417
F0.0
sg425
F0.0
sg433
F1.0
sg441
F0.0
sg449
F11.3
sg457
S"'early mars'"
p1215
sg466
F4.5
sg474
F1.5
sg482
F1.000001
sg490
F0.01
sg498
F1.0
sg506
F1.0
sg514
F0.0
sg522
S'Chaboyer'
p1216
sg531
F10.0
sg539
F0.95
sg547
F0.275556
sg555
F0.95
sg563
F1.000001
sg571
F4.7e+40
sg579
F4.7e+40
sg587
F1.5
sg595
F44.0
sg603
F0.0
sg611
F0.275556
sg619
F5.0
sg627
F1.0
sg635
S'Chaboyer'
p1217
sg644
F0.0
sg652
F0.3
sg660
S"'maximum greenhouse'"
p1218
sg669
F0.3
sg677
F1.0
sg685
S"'Saturn'"
p1219
sg694
F0.01
sg702
F10.0
sg710
F1.0
sg718
F2.0
sg726
F3.0
sg734
S'PARSEC'
p1220
sg743
S'PARSEC'
p1221
sg752
F4.7e+40
sg760
F4.7e+40
sg768
S'BHMCatP0034'
p1222
sg777
F0.1
sg785
S'BHMCatS0033P'
p1223
sg794
S'V1143 Cygh'
p1224
sg803
F3.0
sg811
S'V1143 Cyg'
p1225
sg820
S"'recent venus'"
p1226
sg829
S"'runaway greenhouse'"
p1227
sg838
F11.3
sg846
F0.0
sg854
F1.0
sg862
F5.0
sg870
F0.01
sg878
F0.3
sssg886
F4.323
sg894
g3
(g121
S'\x05~\xd0\xef,7\x0e@'
p1228
tp1229
Rp1230
sg902
S'1987A&A...174..107A;'
p1231
sg910
F1.391
sg918
F1.346
sg926
F-1.0
sg934
F6460.0
sg942
F87.0
sg950
F-1.0
sg958
F0.54
sg966
F0.016
sg974
F2.0
sg982
S'BHMCatP0034;'
p1232
sg991
F100.0
sg999
F0.968368080517613
sg1007
g1008
sg1016
S'V1143 Cyg A'
p1233
sg1025
F19.644772222222223
sg1033
F-1.0
sg1041
F-1.0
sg1049
F38.0
sg1057
F-1.0
sg1065
g3
(g121
S'Su\xc7hh]\xd0?'
p1234
tp1235
Rp1236
sg1073
F0.106173536229947
sg1081
g3
(g121
S'\xe1\x08>z\xa4\x17\x03@'
p1237
tp1238
Rp1239
sg1089
F5.887
sg1097
g1195
sg1105
F-1.0
sg1113
F0.013
sg1121
F2.0
sg1129
S'0033'
p1240
sg1138
F-1.0
sg1146
F-1.0
sg1154
F7.64075217
sg1162
F18.0
sg1170
F-1.0
sg1178
g3
(g121
S'\x04p\x80*\xb6\xdb\xda?'
p1241
tp1242
Rp1243
sg1186
F-1.0
sg1194
F100.0
ssS'BHMCatS0034P'
p1244
(dp1245
g12
F-1.0
sg20
S'ASAS J085524-4411.3  B'
p1246
sg29
F-1.0
sg37
F-1.0
sg45
I34
sg53
F-1.0
sg61
F0.009
sg69
F-1.0
sg77
F0.02
sg85
F1.634
sg93
F-1.0
sg101
F1.056
sg109
S'ASAS J085524-4411.3'
p1247
sg118
F-1.0
sg134
F-43.81263055555556
sg142
g1199
sg151
F0.009
sg159
F0.016
sg167
S'F7'
p1248
sg169
(lp1249
(dp1250
g179
S'BHMCatP0035'
p1251
sg188
F0.0
sg196
F0.0
sg204
S'BHMCatS0034P'
p1252
sg213
F0.0
sg221
S'35'
p1253
sg230
g231
sg239
F1.000001
sg247
S'0035'
p1254
sg256
F0.0
sg264
F0.0
sg272
S'ASAS J085524-4411.3'
p1255
sg281
F1.000001
sg289
F0.0
sg297
F1.0
sg305
F0.0
sg313
F0.0
sg321
F1.0
sg329
S'ASAS J085524-4411.3 h'
p1256
sg338
g339
sg347
F0.0
sasg355
g168
sg363
S'EkCat'
p1257
sg372
F4.03509043777324
sg380
F-1.0
sg388
S'95'
p1258
sg390
(dp1259
S'BHMCatP0035'
p1260
(dp1261
g401
F3.0
sg409
F0.0
sg417
F0.0
sg425
F0.0
sg433
F1.0
sg441
F0.0
sg449
F11.3
sg457
S"'early mars'"
p1262
sg466
F4.5
sg474
F1.5
sg482
F1.000001
sg490
F0.01
sg498
F1.0
sg506
F1.0
sg514
F0.0
sg522
S'Chaboyer'
p1263
sg531
F10.0
sg539
F0.95
sg547
F0.275556
sg555
F0.95
sg563
F1.000001
sg571
F4.7e+40
sg579
F4.7e+40
sg587
F1.5
sg595
F44.0
sg603
F0.0
sg611
F0.275556
sg619
F5.0
sg627
F1.0
sg635
S'Chaboyer'
p1264
sg644
F0.0
sg652
F0.3
sg660
S"'maximum greenhouse'"
p1265
sg669
F0.3
sg677
F1.0
sg685
S"'Saturn'"
p1266
sg694
F0.01
sg702
F10.0
sg710
F1.0
sg718
F2.0
sg726
F3.0
sg734
S'PARSEC'
p1267
sg743
S'PARSEC'
p1268
sg752
F4.7e+40
sg760
F4.7e+40
sg768
S'BHMCatP0035'
p1269
sg777
F0.1
sg785
S'BHMCatS0034P'
p1270
sg794
S'ASAS J085524-4411.3 h'
p1271
sg803
F3.0
sg811
S'ASAS J085524-4411.3'
p1272
sg820
S"'recent venus'"
p1273
sg829
S"'runaway greenhouse'"
p1274
sg838
F11.3
sg846
F0.0
sg854
F1.0
sg862
F5.0
sg870
F0.01
sg878
F0.3
sssg886
F3.97479165286237
sg894
F-1.0
sg902
S'2008AN....329..835B;'
p1275
sg910
F1.204
sg918
F1.87
sg926
F-1.0
sg934
F-1.0
sg942
F86.4
sg950
F-1.0
sg958
F0.0
sg966
F0.003
sg974
F27.0
sg982
S'BHMCatP0035;'
p1276
sg991
F-1.0
sg999
F0.877076411960133
sg1007
g1008
sg1016
S'ASAS J085524-4411.3  A'
p1277
sg1025
F8.923344444444444
sg1033
F-1.0
sg1041
F-1.0
sg1049
F271.0
sg1057
F-1.0
sg1065
F-1.0
sg1073
F0.094397164171123
sg1081
F-1.0
sg1089
F9.984
sg1097
g1244
sg1105
F-1.0
sg1113
F0.003
sg1121
F-1.0
sg1129
S'0034'
p1278
sg1138
F-1.0
sg1146
F-1.0
sg1154
F7.040274
sg1162
F-1.0
sg1170
F-1.0
sg1178
F-1.0
sg1186
F-1.0
sg1194
F-1.0
ssS'BHMCatS0008D'
p1279
(dp1280
g12
F-0.34
sg20
S'KIC-9632895 B'
p1281
sg29
F0.055
sg37
F-1.0
sg45
I8
sg53
F3309.0
sg61
F0.005
sg69
F-1.0
sg77
F0.011
sg85
F0.2143
sg93
F2.5
sg101
F0.1938
sg109
S'KIC-9632895'
p1282
sg118
g3
(g121
S'\t\xde\r\x1a\x9e\x07~?'
p1283
tp1284
Rp1285
sg134
F46.37846944444445
sg142
S'D'
p1286
sg151
F0.015
sg159
F0.0014
sg167
g168
sg169
(lp1287
(dp1288
g179
S'BHMCatP0009'
p1289
sg188
F-317.9732761796323
sg196
F0.0379
sg204
S'BHMCatS008D'
p1290
sg213
F0.0088
sg221
S'9'
p1291
sg230
S'2014arXiv1409.1605W'
p1292
sg239
F6.165
sg247
S'0009'
p1293
sg256
F240.503
sg264
F0.0028
sg272
S'KIC-9632895'
p1294
sg281
F26.07380864672985
sg289
F-178.59
sg297
F0.7877
sg305
F0.053
sg313
F0.0
sg321
F1.1278
sg329
S'KIC-9632895b'
p1295
sg338
S'b'
p1296
sg347
F0.035
sasg355
g168
sg363
S'KIC'
p1297
sg372
F5.063
sg380
F-1.0
sg388
S'9632895'
p1298
sg390
(dp1299
S'BHMCatP0009'
p1300
(dp1301
g401
F3.0
sg409
F0.0
sg417
F0.0
sg425
F0.0
sg433
F1.75
sg441
F-0.34
sg449
F11.3
sg457
S"'early mars'"
p1302
sg466
F4.5
sg474
F1.5
sg482
F6.165
sg490
F0.01
sg498
F1.0
sg506
F1.0
sg514
F-0.34
sg522
S'Chaboyer'
p1303
sg531
F10.0
sg539
F0.95
sg547
F0.275556
sg555
F0.95
sg563
F26.0738086467299
sg571
F4.7e+40
sg579
F4.7e+40
sg587
F1.5
sg595
F44.0
sg603
F0.0
sg611
F0.275556
sg619
F5.0
sg627
F1.0
sg635
S'Chaboyer'
p1304
sg644
F0.0
sg652
F0.3
sg660
S"'maximum greenhouse'"
p1305
sg669
F0.3
sg677
F1.0
sg685
S"'Saturn'"
p1306
sg694
F0.01
sg702
F10.0
sg710
F1.75
sg718
F2.0
sg726
F3.0
sg734
S'PARSEC'
p1307
sg743
S'PARSEC'
p1308
sg752
F4.7e+40
sg760
F4.7e+40
sg768
S'BHMCatP0009'
p1309
sg777
F0.1
sg785
S'BHMCatS0008D'
p1310
sg794
S'KIC-9632895b'
p1311
sg803
F3.0
sg811
S'KIC-9632895'
p1312
sg820
S"'recent venus'"
p1313
sg829
S"'runaway greenhouse'"
p1314
sg838
F11.3
sg846
F0.0
sg854
F1.75
sg862
F5.0
sg870
F0.01
sg878
F0.3
sssg886
F4.803
sg894
g3
(g121
S'0\xde\x85\r\x9e,6@'
p1315
tp1316
Rp1317
sg902
S'2014arXiv1409.1605W;'
p1318
sg910
F0.934
sg918
F0.833
sg926
F0.47
sg934
F5527.0
sg942
F90.275
sg950
F-1.0
sg958
F0.05099
sg966
F0.01
sg974
F-1.0
sg982
S'BHMCatP0009;'
p1319
sg991
F100.0
sg999
F0.207494646680942
sg1007
g1008
sg1016
S'KIC-9632895 A'
p1320
sg1025
F18.882753333333334
sg1033
F-1.0
sg1041
F20.31
sg1049
F-1.0
sg1057
F262.86
sg1065
F-1.0
sg1073
F0.18749
sg1081
F-1.0
sg1089
F13.552
sg1097
g1279
sg1105
F-1.0
sg1113
F0.002
sg1121
F1.0
sg1129
S'0008'
p1321
sg1138
F-0.343
sg1146
F1.0
sg1154
F27.322037
sg1162
F1.9
sg1170
g3
(g121
S'R\xb3\x00z^\xd5}?'
p1322
tp1323
Rp1324
sg1178
g3
(g121
S"\xef\xce\xc2\x00cW'@"
p1325
tp1326
Rp1327
sg1186
g3
(g121
S'\x07\x92[\rg\xf9x@'
p1328
tp1329
Rp1330
sg1194
F100.0
ssS'BHMCatS0028P'
p1331
(dp1332
g12
F-1.0
sg20
S'TV Cet B'
p1333
sg29
F-1.0
sg37
F-1.0
sg45
I28
sg53
F6575.0
sg61
F0.019
sg69
F-1.0
sg77
F0.02
sg85
F1.21
sg93
F-1.0
sg101
F1.23
sg109
S'TV Cet'
p1334
sg118
F-1.0
sg134
F2.7545555555555556
sg142
g1199
sg151
F0.02
sg159
F0.01
sg167
S'F2V'
p1335
sg169
(lp1336
(dp1337
g179
S'BHMCatP0029'
p1338
sg188
F0.0
sg196
F0.0
sg204
S'BHMCatS0028P'
p1339
sg213
F0.0
sg221
S'29'
p1340
sg230
g231
sg239
F1.000001
sg247
S'0029'
p1341
sg256
F0.0
sg264
F0.0
sg272
S'TV Cet'
p1342
sg281
F1.000001
sg289
F0.0
sg297
F1.0
sg305
F0.0
sg313
F0.0
sg321
F1.0
sg329
S'TV Ceth'
p1343
sg338
g339
sg347
F0.0
sasg355
S'F5V'
p1344
sg363
S'EkCat'
p1345
sg372
F4.362
sg380
F-1.0
sg388
S'27'
p1346
sg390
(dp1347
S'BHMCatP0029'
p1348
(dp1349
g401
F3.0
sg409
F0.0
sg417
F0.0
sg425
F0.0
sg433
F1.0
sg441
F0.0
sg449
F11.3
sg457
S"'early mars'"
p1350
sg466
F4.5
sg474
F1.5
sg482
F1.000001
sg490
F0.01
sg498
F1.0
sg506
F1.0
sg514
F0.0
sg522
S'Chaboyer'
p1351
sg531
F10.0
sg539
F0.95
sg547
F0.275556
sg555
F0.95
sg563
F1.000001
sg571
F4.7e+40
sg579
F4.7e+40
sg587
F1.5
sg595
F44.0
sg603
F0.0
sg611
F0.275556
sg619
F5.0
sg627
F1.0
sg635
S'Chaboyer'
p1352
sg644
F0.0
sg652
F0.3
sg660
S"'maximum greenhouse'"
p1353
sg669
F0.3
sg677
F1.0
sg685
S"'Saturn'"
p1354
sg694
F0.01
sg702
F10.0
sg710
F1.0
sg718
F2.0
sg726
F3.0
sg734
S'PARSEC'
p1355
sg743
S'PARSEC'
p1356
sg752
F4.7e+40
sg760
F4.7e+40
sg768
S'BHMCatP0029'
p1357
sg777
F0.1
sg785
S'BHMCatS0028P'
p1358
sg794
S'TV Ceth'
p1359
sg803
F3.0
sg811
S'TV Cet'
p1360
sg820
S"'recent venus'"
p1361
sg829
S"'runaway greenhouse'"
p1362
sg838
F11.3
sg846
F0.0
sg854
F1.0
sg862
F5.0
sg870
F0.01
sg878
F0.3
sssg886
F4.231
sg894
F-1.0
sg902
S'2010NewA...15..356B;'
p1363
sg910
F1.34
sg918
F1.47
sg926
F-1.0
sg934
F6902.0
sg942
F90.38
sg950
F-1.0
sg958
F0.04
sg966
F0.05
sg974
F6.0
sg982
S'BHMCatP0029;'
p1364
sg991
F150.0
sg999
F0.917910447761194
sg1007
g1008
sg1016
S'TV Cet A'
p1365
sg1025
F3.243475
sg1033
F-1.0
sg1041
F-1.0
sg1049
F144.0
sg1057
F-1.0
sg1065
F-1.0
sg1073
F0.11706551671123
sg1081
F-1.0
sg1089
F8.6
sg1097
g1331
sg1105
F-1.0
sg1113
F0.05
sg1121
F-1.0
sg1129
S'0028'
p1366
sg1138
F-1.0
sg1146
F-1.0
sg1154
F9.103291
sg1162
F-1.0
sg1170
F-1.0
sg1178
F-1.0
sg1186
F-1.0
sg1194
F150.0
ssS'BHMCatS0018P'
p1367
(dp1368
g12
F-1.0
sg20
S'LL Aqr B'
p1369
sg29
F-1.0
sg37
F-1.0
sg45
I18
sg53
F6200.0
sg61
F0.01
sg69
F-1.0
sg77
F0.02
sg85
F1.005
sg93
F-1.0
sg101
F1.056
sg109
S'LL Aqr'
p1370
sg118
F-1.0
sg134
F-2.4005083333333332
sg142
g1199
sg151
F0.009
sg159
F0.016
sg167
S'F3V'
p1371
sg169
(lp1372
(dp1373
g179
S'BHMCatP0019'
p1374
sg188
F0.0
sg196
F0.0
sg204
S'BHMCatS0018P'
p1375
sg213
F0.0
sg221
S'19'
p1376
sg230
g231
sg239
F1.000001
sg247
S'0019'
p1377
sg256
F0.0
sg264
F0.0
sg272
S'LL Aqr'
p1378
sg281
F1.000001
sg289
F0.0
sg297
F1.0
sg305
F0.0
sg313
F0.0
sg321
F1.0
sg329
S'LL Aqrh'
p1379
sg338
g339
sg347
F0.0
sasg355
S'F6V'
p1380
sg363
S'EkCat'
p1381
sg372
F4.457
sg380
F-1.0
sg388
S'238'
p1382
sg390
(dp1383
S'BHMCatP0019'
p1384
(dp1385
g401
F3.0
sg409
F0.0
sg417
F0.0
sg425
F0.0
sg433
F1.0
sg441
F0.0
sg449
F11.3
sg457
S"'early mars'"
p1386
sg466
F4.5
sg474
F1.5
sg482
F1.000001
sg490
F0.01
sg498
F1.0
sg506
F1.0
sg514
F0.0
sg522
S'Chaboyer'
p1387
sg531
F10.0
sg539
F0.95
sg547
F0.275556
sg555
F0.95
sg563
F1.000001
sg571
F4.7e+40
sg579
F4.7e+40
sg587
F1.5
sg595
F44.0
sg603
F0.0
sg611
F0.275556
sg619
F5.0
sg627
F1.0
sg635
S'Chaboyer'
p1388
sg644
F0.0
sg652
F0.3
sg660
S"'maximum greenhouse'"
p1389
sg669
F0.3
sg677
F1.0
sg685
S"'Saturn'"
p1390
sg694
F0.01
sg702
F10.0
sg710
F1.0
sg718
F2.0
sg726
F3.0
sg734
S'PARSEC'
p1391
sg743
S'PARSEC'
p1392
sg752
F4.7e+40
sg760
F4.7e+40
sg768
S'BHMCatP0019'
p1393
sg777
F0.1
sg785
S'BHMCatS0018P'
p1394
sg794
S'LL Aqrh'
p1395
sg803
F3.0
sg811
S'LL Aqr'
p1396
sg820
S"'recent venus'"
p1397
sg829
S"'runaway greenhouse'"
p1398
sg838
F11.3
sg846
F0.0
sg854
F1.0
sg862
F5.0
sg870
F0.01
sg878
F0.3
sssg886
F4.281
sg894
F-1.0
sg902
S'2008MNRAS.390..958I;'
p1399
sg910
F1.223
sg918
F1.325
sg926
F-1.0
sg934
F6680.0
sg942
F89.51
sg950
F-1.0
sg958
F0.31
sg966
F0.058
sg974
F9.0
sg982
S'BHMCatP0019;'
p1400
sg991
F160.0
sg999
F0.863450531479967
sg1007
S'DEBCat'
p1401
sg1016
S'LL Aqr A'
p1402
sg1025
F22.578375
sg1033
F-1.0
sg1041
F-1.0
sg1049
F123.0
sg1057
F-1.0
sg1065
F-1.0
sg1073
F0.190982033823529
sg1081
F-1.0
sg1089
F9.317
sg1097
g1367
sg1105
F-1.0
sg1113
F0.051
sg1121
F-1.0
sg1129
S'0018'
p1403
sg1138
F-1.0
sg1146
F-1.0
sg1154
F20.178241
sg1162
F-1.0
sg1170
F-1.0
sg1178
F-1.0
sg1186
F-1.0
sg1194
F160.0
ssS'BHMCatS1003V'
p1404
(dp1405
g12
F0.0
sg20
S'NICHE-003 B'
p1406
sg29
F-2.0
sg37
F-2.0
sg45
I1003
sg53
F-2.0
sg61
F-2.0
sg69
F-2.0
sg77
F0.0
sg85
F-2.0
sg93
F-2.0
sg101
F1.0
sg109
S'NICHE-003'
p1407
sg118
g3
(g121
S'0\xa8\x1bgj\x94\x8f?'
p1408
tp1409
Rp1410
sg134
F-2.0
sg142
g143
sg151
F-2.0
sg159
F0.0
sg167
g168
sg169
(lp1411
(dp1412
g179
S'BHMCatPV1003'
p1413
sg188
F0.0
sg196
F0.0
sg204
S'BHMCatS1003V'
p1414
sg213
F0.0
sg221
S'1003'
p1415
sg230
g231
sg239
F1.000001
sg247
S'1003'
p1416
sg256
F0.0
sg264
F0.0
sg272
S'NICHE-003'
p1417
sg281
F1.000001
sg289
F0.0
sg297
F1.0
sg305
F0.0
sg313
F0.0
sg321
F1.0
sg329
S'NICHE-003h'
p1418
sg338
g339
sg347
F0.0
sasg355
g168
sg363
S'NICHE'
p1419
sg372
F-2.0
sg380
F-2.0
sg388
S'3'
p1420
sg390
(dp1421
S'BHMCatPV1003'
p1422
(dp1423
g401
F3.0
sg409
F0.0
sg417
F0.0
sg425
F0.0
sg433
F1.0
sg441
F0.0
sg449
F11.3
sg457
S"'early mars'"
p1424
sg466
F4.5
sg474
F1.5
sg482
F1.000001
sg490
F0.01
sg498
F1.0
sg506
F1.0
sg514
F0.0
sg522
S'Chaboyer'
p1425
sg531
F10.0
sg539
F0.95
sg547
F0.275556
sg555
F0.95
sg563
F1.000001
sg571
F4.7e+40
sg579
F4.7e+40
sg587
F1.5
sg595
F44.0
sg603
F0.0
sg611
F0.275556
sg619
F5.0
sg627
F1.0
sg635
S'Chaboyer'
p1426
sg644
F0.0
sg652
F0.3
sg660
S"'maximum greenhouse'"
p1427
sg669
F0.3
sg677
F1.0
sg685
S"'Earth'"
p1428
sg694
F0.01
sg702
F10.0
sg710
F1.0
sg718
F2.0
sg726
F3.0
sg734
S'PARSEC'
p1429
sg743
S'PARSEC'
p1430
sg752
F4.7e+40
sg760
F4.7e+40
sg768
S'BHMCatPV1003'
p1431
sg777
F0.1
sg785
S'BHMCatS1003V'
p1432
sg794
S'NICHE-003h'
p1433
sg803
F3.0
sg811
S'NICHE-003'
p1434
sg820
S"'recent venus'"
p1435
sg829
S"'runaway greenhouse'"
p1436
sg838
F11.3
sg846
F0.0
sg854
F1.0
sg862
F5.0
sg870
F0.01
sg878
F0.3
sssg886
F-2.0
sg894
F-1.0
sg902
g168
sg910
F1.0
sg918
F-2.0
sg926
F-2.0
sg934
F-2.0
sg942
F-2.0
sg950
F-2.0
sg958
F0.3
sg966
F0.0
sg974
F-1.0
sg982
S'BHMCatPV1003;'
p1437
sg991
F-2.0
sg999
F1.0
sg1007
g1008
sg1016
S'NICHE-003 A'
p1438
sg1025
F-2.0
sg1033
F-1.0
sg1041
F-2.0
sg1049
F-1.0
sg1057
F-1.0
sg1065
F-1.0
sg1073
F0.288396405427895
sg1081
F-1.0
sg1089
F-2.0
sg1097
g1404
sg1105
F-2.0
sg1113
F0.0
sg1121
F-2.0
sg1129
S'1003'
p1439
sg1138
F-1.0
sg1146
F-2.0
sg1154
F40.0
sg1162
F-2.0
sg1170
F-1.0
sg1178
F-1.0
sg1186
F-1.0
sg1194
F-2.0
ssS'BHMCatS0024P'
p1440
(dp1441
g12
F-1.0
sg20
S'BF Dra B'
p1442
sg29
F-1.0
sg37
F1.8
sg45
I24
sg53
F6400.0
sg61
F0.005
sg69
F-1.0
sg77
F0.012
sg85
F1.922
sg93
F-1.0
sg101
F1.375
sg109
S'BF Dra'
p1443
sg118
F-1.0
sg134
F69.88263333333333
sg142
g1199
sg151
F0.005
sg159
F0.012
sg167
S'F6V'
p1444
sg169
(lp1445
(dp1446
g179
S'BHMCatP0025'
p1447
sg188
F0.0
sg196
F0.0
sg204
S'BHMCatS0024P'
p1448
sg213
F0.0
sg221
S'25'
p1449
sg230
g231
sg239
F1.000001
sg247
S'0025'
p1450
sg256
F0.0
sg264
F0.0
sg272
S'BF Dra'
p1451
sg281
F1.000001
sg289
F0.0
sg297
F1.0
sg305
F0.0
sg313
F0.0
sg321
F1.0
sg329
S'BF Drah'
p1452
sg338
g339
sg347
F0.0
sasg355
S'F6V'
p1453
sg363
S'EkCat'
p1454
sg372
F4.008
sg380
F9.0
sg388
S'173'
p1455
sg390
(dp1456
S'BHMCatP0025'
p1457
(dp1458
g401
F3.0
sg409
F0.0
sg417
F0.0
sg425
F0.0
sg433
F1.0
sg441
F0.0
sg449
F11.3
sg457
S"'early mars'"
p1459
sg466
F4.5
sg474
F1.5
sg482
F1.000001
sg490
F0.01
sg498
F1.0
sg506
F1.0
sg514
F0.0
sg522
S'Chaboyer'
p1460
sg531
F10.0
sg539
F0.95
sg547
F0.275556
sg555
F0.95
sg563
F1.000001
sg571
F4.7e+40
sg579
F4.7e+40
sg587
F1.5
sg595
F44.0
sg603
F0.0
sg611
F0.275556
sg619
F5.0
sg627
F1.0
sg635
S'Chaboyer'
p1461
sg644
F0.0
sg652
F0.3
sg660
S"'maximum greenhouse'"
p1462
sg669
F0.3
sg677
F1.0
sg685
S"'Saturn'"
p1463
sg694
F0.01
sg702
F10.0
sg710
F1.0
sg718
F2.0
sg726
F3.0
sg734
S'PARSEC'
p1464
sg743
S'PARSEC'
p1465
sg752
F4.7e+40
sg760
F4.7e+40
sg768
S'BHMCatP0025'
p1466
sg777
F0.1
sg785
S'BHMCatS0024P'
p1467
sg794
S'BF Drah'
p1468
sg803
F3.0
sg811
S'BF Dra'
p1469
sg820
S"'recent venus'"
p1470
sg829
S"'runaway greenhouse'"
p1471
sg838
F11.3
sg846
F0.0
sg854
F1.0
sg862
F5.0
sg870
F0.01
sg878
F0.3
sssg886
F3.95
sg894
g3
(g121
S'\x8f\x91\xba\xea\xb8\x16$@'
p1472
tp1473
Rp1474
sg902
S'2012AJ....143..129S;'
p1475
sg910
F1.414
sg918
F2.086
sg926
F-1.0
sg934
F6360.0
sg942
F88.42
sg950
F-1.0
sg958
F0.387
sg966
F0.003
sg974
F27.0
sg982
S'BHMCatP0025;'
p1476
sg991
F150.0
sg999
F0.972418670438472
sg1007
g1008
sg1016
S'BF Dra A'
p1477
sg1025
F18.849819444444442
sg1033
F-1.0
sg1041
F-1.0
sg1049
F354.0
sg1057
F-1.0
sg1065
g3
(g121
S'\x95\x8e\xd4\xd7\x82F\x01@'
p1478
tp1479
Rp1480
sg1073
F0.0960728534759358
sg1081
g3
(g121
S';\xb2\xc9\x8d#\x98%@'
p1481
tp1482
Rp1483
sg1089
F9.77
sg1097
g1440
sg1105
F-1.0
sg1113
F0.003
sg1121
F1.8
sg1129
S'0024'
p1484
sg1138
F-1.0
sg1146
F-1.0
sg1154
F11.2110047
sg1162
F10.5
sg1170
F-1.0
sg1178
g3
(g121
S'HK\xdbW\xe0\x8c\xfb?'
p1485
tp1486
Rp1487
sg1186
F-1.0
sg1194
F150.0
ssS'BHMCatS0026P'
p1488
(dp1489
g12
F-1.0
sg20
S'RW Lac B'
p1490
sg29
F-1.0
sg37
F-1.0
sg45
I26
sg53
F5560.0
sg61
F0.004
sg69
F-1.0
sg77
F0.004
sg85
F0.964
sg93
F-1.0
sg101
F0.87
sg109
S'RW Lac'
p1491
sg118
F-1.0
sg134
F49.65765833333333
sg142
g1199
sg151
F0.003
sg159
F0.004
sg167
S'G5V'
p1492
sg169
(lp1493
(dp1494
g179
S'BHMCatP0027'
p1495
sg188
F0.0
sg196
F0.0
sg204
S'BHMCatS0026P'
p1496
sg213
F0.0
sg221
S'27'
p1497
sg230
g231
sg239
F1.000001
sg247
S'0027'
p1498
sg256
F0.0
sg264
F0.0
sg272
S'RW Lac'
p1499
sg281
F1.000001
sg289
F0.0
sg297
F1.0
sg305
F0.0
sg313
F0.0
sg321
F1.0
sg329
S'RW Lach'
p1500
sg338
g339
sg347
F0.0
sasg355
S'G7V'
p1501
sg363
S'EkCat'
p1502
sg372
F4.409
sg380
F-1.0
sg388
S'239'
p1503
sg390
(dp1504
S'BHMCatP0027'
p1505
(dp1506
g401
F3.0
sg409
F0.0
sg417
F0.0
sg425
F0.0
sg433
F1.0
sg441
F0.0
sg449
F11.3
sg457
S"'early mars'"
p1507
sg466
F4.5
sg474
F1.5
sg482
F1.000001
sg490
F0.01
sg498
F1.0
sg506
F1.0
sg514
F0.0
sg522
S'Chaboyer'
p1508
sg531
F10.0
sg539
F0.95
sg547
F0.275556
sg555
F0.95
sg563
F1.000001
sg571
F4.7e+40
sg579
F4.7e+40
sg587
F1.5
sg595
F44.0
sg603
F0.0
sg611
F0.275556
sg619
F5.0
sg627
F1.0
sg635
S'Chaboyer'
p1509
sg644
F0.0
sg652
F0.3
sg660
S"'maximum greenhouse'"
p1510
sg669
F0.3
sg677
F1.0
sg685
S"'Saturn'"
p1511
sg694
F0.01
sg702
F10.0
sg710
F1.0
sg718
F2.0
sg726
F3.0
sg734
S'PARSEC'
p1512
sg743
S'PARSEC'
p1513
sg752
F4.7e+40
sg760
F4.7e+40
sg768
S'BHMCatP0027'
p1514
sg777
F0.1
sg785
S'BHMCatS0026P'
p1515
sg794
S'RW Lach'
p1516
sg803
F3.0
sg811
S'RW Lac'
p1517
sg820
S"'recent venus'"
p1518
sg829
S"'runaway greenhouse'"
p1519
sg838
F11.3
sg846
F0.0
sg854
F1.0
sg862
F5.0
sg870
F0.01
sg878
F0.3
sssg886
F4.257
sg894
g3
(g121
S'x\xc1G\x89\xde\xfd=@'
p1520
tp1521
Rp1522
sg902
S'2005AJ....130.2838L;'
p1523
sg910
F0.928
sg918
F1.186
sg926
F-1.0
sg934
F5760.0
sg942
F89.49
sg950
F-1.0
sg958
F0.01
sg966
F0.006
sg974
F10.0
sg982
S'BHMCatP0027;'
p1524
sg991
F150.0
sg999
F0.9375
sg1007
S'DEBCat'
p1525
sg1016
S'RW Lac A'
p1526
sg1025
F22.749194444444445
sg1033
F-1.0
sg1041
F-1.0
sg1049
F190.0
sg1057
F-1.0
sg1065
F-1.0
sg1073
F0.112550464973262
sg1081
F-1.0
sg1089
F10.789
sg1097
g1488
sg1105
F-1.0
sg1113
F0.004
sg1121
F2.0
sg1129
S'0026'
p1527
sg1138
F-1.0
sg1146
F-1.0
sg1154
F10.3692046
sg1162
F2.0
sg1170
F-1.0
sg1178
g3
(g121
S'x\xc1G\x89\xde\xfd=@'
p1528
tp1529
Rp1530
sg1186
F-1.0
sg1194
F100.0
ssS'BHMCatS0030P'
p1531
(dp1532
g12
F-1.0
sg20
S'2MASS J19071662+4639532  B'
p1533
sg29
F-1.0
sg37
F2.3
sg45
I30
sg53
F3700.0
sg61
F0.086
sg69
F-1.0
sg77
F0.043
sg85
F0.525
sg93
F-1.0
sg101
F0.523
sg109
S'2MASS J19071662+4639532'
p1534
sg118
F-1.0
sg134
F46.66478055555555
sg142
g1199
sg151
F0.059
sg159
F0.052
sg167
S'K5V'
p1535
sg169
(lp1536
(dp1537
g179
S'BHMCatP0031'
p1538
sg188
F0.0
sg196
F0.0
sg204
S'BHMCatS0030P'
p1539
sg213
F0.0
sg221
S'31'
p1540
sg230
g231
sg239
F1.000001
sg247
S'0031'
p1541
sg256
F0.0
sg264
F0.0
sg272
S'2MASS J19071662+4639532'
p1542
sg281
F1.000001
sg289
F0.0
sg297
F1.0
sg305
F0.0
sg313
F0.0
sg321
F1.0
sg329
S'2MASS J19071662+4639532 h'
p1543
sg338
g339
sg347
F0.0
sasg355
S'M0V'
p1544
sg363
S'EkCat'
p1545
sg372
F4.718
sg380
F5.1
sg388
S'181'
p1546
sg390
(dp1547
S'BHMCatP0031'
p1548
(dp1549
g401
F3.0
sg409
F0.0
sg417
F0.0
sg425
F0.0
sg433
F1.0
sg441
F0.0
sg449
F11.3
sg457
S"'early mars'"
p1550
sg466
F4.5
sg474
F1.5
sg482
F1.000001
sg490
F0.01
sg498
F1.0
sg506
F1.0
sg514
F0.0
sg522
S'Chaboyer'
p1551
sg531
F10.0
sg539
F0.95
sg547
F0.275556
sg555
F0.95
sg563
F1.000001
sg571
F4.7e+40
sg579
F4.7e+40
sg587
F1.5
sg595
F44.0
sg603
F0.0
sg611
F0.275556
sg619
F5.0
sg627
F1.0
sg635
S'Chaboyer'
p1552
sg644
F0.0
sg652
F0.3
sg660
S"'maximum greenhouse'"
p1553
sg669
F0.3
sg677
F1.0
sg685
S"'Saturn'"
p1554
sg694
F0.01
sg702
F10.0
sg710
F1.0
sg718
F2.0
sg726
F3.0
sg734
S'PARSEC'
p1555
sg743
S'PARSEC'
p1556
sg752
F4.7e+40
sg760
F4.7e+40
sg768
S'BHMCatP0031'
p1557
sg777
F0.1
sg785
S'BHMCatS0030P'
p1558
sg794
S'2MASS J19071662+4639532 h'
p1559
sg803
F3.0
sg811
S'2MASS J19071662+4639532'
p1560
sg820
S"'recent venus'"
p1561
sg829
S"'runaway greenhouse'"
p1562
sg838
F11.3
sg846
F0.0
sg854
F1.0
sg862
F5.0
sg870
F0.01
sg878
F0.3
sssg886
F4.666
sg894
g3
(g121
S'\x06o\xaej\xbe\xe6\x16@'
p1563
tp1564
Rp1565
sg902
S'2008ApJ...687.1253D;'
p1566
sg910
F0.68
sg918
F0.634
sg926
F-1.0
sg934
F4150.0
sg942
F89.02
sg950
F-1.0
sg958
F0.0
sg966
F0.01
sg974
F20.0
sg982
S'BHMCatP0031;'
p1567
sg991
F-1.0
sg999
F0.769117647058823
sg1007
g1008
sg1016
S'2MASS J19071662+4639532  A'
p1568
sg1025
F19.121283333333334
sg1033
F-1.0
sg1041
F-1.0
sg1049
F230.0
sg1057
F-1.0
sg1065
g3
(g121
S'\xfe\xfa\xfe\t"\xc8\x02@'
p1569
tp1570
Rp1571
sg1073
F0.0862514522727273
sg1081
g3
(g121
S'~\xd3\xa5\x90\xc1\xd2\x14@'
p1572
tp1573
Rp1574
sg1089
F14.37
sg1097
g1531
sg1105
F-1.0
sg1113
F0.006
sg1121
F2.0
sg1129
S'0030'
p1575
sg1138
F-1.0
sg1146
F-1.0
sg1154
F8.429441
sg1162
F5.6
sg1170
F-1.0
sg1178
g3
(g121
S')\x06X\x95\xac[\x00@'
p1576
tp1577
Rp1578
sg1186
F-1.0
sg1194
F-1.0
ssS'BHMCatS0036P'
p1579
(dp1580
g12
F-1.0
sg20
S'FM Leo B'
p1581
sg29
F-1.0
sg37
F-1.0
sg45
I36
sg53
F6190.0
sg61
F0.028
sg69
F-1.0
sg77
F0.043
sg85
F1.511
sg93
F-1.0
sg101
F1.287
sg109
S'FM Leo'
p1582
sg118
F-1.0
sg134
F0.3480111111111111
sg142
g1199
sg151
F0.023
sg159
F0.049
sg167
S'F9V'
p1583
sg169
(lp1584
(dp1585
g179
S'BHMCatP0037'
p1586
sg188
F0.0
sg196
F0.0
sg204
S'BHMCatS0036P'
p1587
sg213
F0.0
sg221
S'37'
p1588
sg230
g231
sg239
F1.000001
sg247
S'0037'
p1589
sg256
F0.0
sg264
F0.0
sg272
S'FM Leo'
p1590
sg281
F1.000001
sg289
F0.0
sg297
F1.0
sg305
F0.0
sg313
F0.0
sg321
F1.0
sg329
S'FM Leoh'
p1591
sg338
g339
sg347
F0.0
sasg355
S'F9V'
p1592
sg363
S'EkCat'
p1593
sg372
F4.189
sg380
F-1.0
sg388
S'114'
p1594
sg390
(dp1595
S'BHMCatP0037'
p1596
(dp1597
g401
F3.0
sg409
F0.0
sg417
F0.0
sg425
F0.0
sg433
F1.0
sg441
F0.0
sg449
F11.3
sg457
S"'early mars'"
p1598
sg466
F4.5
sg474
F1.5
sg482
F1.000001
sg490
F0.01
sg498
F1.0
sg506
F1.0
sg514
F0.0
sg522
S'Chaboyer'
p1599
sg531
F10.0
sg539
F0.95
sg547
F0.275556
sg555
F0.95
sg563
F1.000001
sg571
F4.7e+40
sg579
F4.7e+40
sg587
F1.5
sg595
F44.0
sg603
F0.0
sg611
F0.275556
sg619
F5.0
sg627
F1.0
sg635
S'Chaboyer'
p1600
sg644
F0.0
sg652
F0.3
sg660
S"'maximum greenhouse'"
p1601
sg669
F0.3
sg677
F1.0
sg685
S"'Saturn'"
p1602
sg694
F0.01
sg702
F10.0
sg710
F1.0
sg718
F2.0
sg726
F3.0
sg734
S'PARSEC'
p1603
sg743
S'PARSEC'
p1604
sg752
F4.7e+40
sg760
F4.7e+40
sg768
S'BHMCatP0037'
p1605
sg777
F0.1
sg785
S'BHMCatS0036P'
p1606
sg794
S'FM Leoh'
p1607
sg803
F3.0
sg811
S'FM Leo'
p1608
sg820
S"'recent venus'"
p1609
sg829
S"'runaway greenhouse'"
p1610
sg838
F11.3
sg846
F0.0
sg854
F1.0
sg862
F5.0
sg870
F0.01
sg878
F0.3
sssg886
F4.124
sg894
F-1.0
sg902
S'2010MNRAS.402.2424R;'
p1611
sg910
F1.318
sg918
F1.648
sg926
F-1.0
sg934
F6316.0
sg942
F87.98
sg950
F-1.0
sg958
F0.0
sg966
F0.007
sg974
F25.5
sg982
S'BHMCatP0037;'
p1612
sg991
F211.0
sg999
F0.976479514415781
sg1007
g1008
sg1016
S'FM Leo A'
p1613
sg1025
F11.212525
sg1033
F-1.0
sg1041
F-1.0
sg1049
F130.4
sg1057
F-1.0
sg1065
F-1.0
sg1073
F0.0960263065508021
sg1081
F-1.0
sg1089
F8.453
sg1097
g1579
sg1105
F-1.0
sg1113
F0.007
sg1121
F-1.0
sg1129
S'0036'
p1614
sg1138
F-1.0
sg1146
F-1.0
sg1154
F6.728606
sg1162
F-1.0
sg1170
F-1.0
sg1178
F-1.0
sg1186
F-1.0
sg1194
F240.0
ssS'FieldsPriority'
p1615
(dp1616
g12
I2
sg20
I1
sg29
I2
sg37
I4
sg45
I100
sg53
I3
sg61
I4
sg69
I4
sg77
I4
sg85
I3
sg93
I3
sg101
I1
sg109
I1
sg118
I2
sg134
I3
sg142
I100
sg151
I4
sg159
I4
sg167
I2
sg355
I2
sg363
I3
sg372
I3
sg380
I3
sg388
I3
sg886
I3
sg894
I3
sg902
I1
sg910
I1
sg918
I3
sg926
I4
sg934
I3
sg942
I2
sg950
I2
sg958
I1
sg966
I4
sg974
I4
sg982
I1
sg991
I4
sg999
I100
sg1007
I100
sg1016
I1
sg1025
I3
sg1033
I4
sg1041
I2
sg1049
I2
sg1057
I4
sg1065
I4
sg1073
I1
sg1081
I3
sg1089
I2
sg1097
I1
sg1105
I3
sg1113
I4
sg1121
I4
sg1129
I1
sg1138
I2
sg1146
I3
sg1154
I1
sg1162
I3
sg1170
I2
sg1178
I4
sg1186
I2
sg1194
I4
ssS'BHMCatS1001V'
p1617
(dp1618
g12
F0.0
sg20
S'NICHE-001 B'
p1619
sg29
F-2.0
sg37
F-2.0
sg45
I1001
sg53
F-2.0
sg61
F-2.0
sg69
F-2.0
sg77
F0.0
sg85
F-2.0
sg93
F-2.0
sg101
F1.0
sg109
S'NICHE-001'
p1620
sg118
g3
(g121
S'0\xa8\x1bgj\x94\x8f?'
p1621
tp1622
Rp1623
sg134
F-2.0
sg142
g143
sg151
F-2.0
sg159
F0.0
sg167
g168
sg169
(lp1624
(dp1625
g179
S'BHMCatPV1001'
p1626
sg188
F0.0
sg196
F0.0
sg204
S'BHMCatS1001V'
p1627
sg213
F0.0
sg221
S'1001'
p1628
sg230
g231
sg239
F1.000001
sg247
S'1001'
p1629
sg256
F0.0
sg264
F0.0
sg272
S'NICHE-001'
p1630
sg281
F1.000001
sg289
F0.0
sg297
F1.0
sg305
F0.0
sg313
F0.0
sg321
F1.0
sg329
S'NICHE-001h'
p1631
sg338
g339
sg347
F0.0
sasg355
g168
sg363
S'NICHE'
p1632
sg372
F-2.0
sg380
F-2.0
sg388
S'1'
p1633
sg390
(dp1634
S'BHMCatPV1001'
p1635
(dp1636
g401
F3.0
sg409
F0.0
sg417
F0.0
sg425
F0.0
sg433
F1.0
sg441
F0.0
sg449
F11.3
sg457
S"'early mars'"
p1637
sg466
F4.5
sg474
F1.5
sg482
F1.000001
sg490
F0.01
sg498
F1.0
sg506
F1.0
sg514
F0.0
sg522
S'Chaboyer'
p1638
sg531
F10.0
sg539
F0.95
sg547
F0.275556
sg555
F0.95
sg563
F1.000001
sg571
F4.7e+40
sg579
F4.7e+40
sg587
F1.5
sg595
F44.0
sg603
F0.0
sg611
F0.275556
sg619
F5.0
sg627
F1.0
sg635
S'Chaboyer'
p1639
sg644
F0.0
sg652
F0.3
sg660
S"'maximum greenhouse'"
p1640
sg669
F0.3
sg677
F1.0
sg685
S"'Earth'"
p1641
sg694
F0.01
sg702
F10.0
sg710
F1.0
sg718
F2.0
sg726
F3.0
sg734
S'PARSEC'
p1642
sg743
S'PARSEC'
p1643
sg752
F4.7e+40
sg760
F4.7e+40
sg768
S'BHMCatPV1001'
p1644
sg777
F0.1
sg785
S'BHMCatS1001V'
p1645
sg794
S'NICHE-001h'
p1646
sg803
F3.0
sg811
S'NICHE-001'
p1647
sg820
S"'recent venus'"
p1648
sg829
S"'runaway greenhouse'"
p1649
sg838
F11.3
sg846
F0.0
sg854
F1.0
sg862
F5.0
sg870
F0.01
sg878
F0.3
sssg886
F-2.0
sg894
F-1.0
sg902
g168
sg910
F1.0
sg918
F-2.0
sg926
F-2.0
sg934
F-2.0
sg942
F-2.0
sg950
F-2.0
sg958
F0.1
sg966
F0.0
sg974
F-1.0
sg982
S'BHMCatPV1001;'
p1650
sg991
F-2.0
sg999
F1.0
sg1007
g1008
sg1016
S'NICHE-001 A'
p1651
sg1025
F-2.0
sg1033
F-1.0
sg1041
F-2.0
sg1049
F-1.0
sg1057
F-1.0
sg1065
F-1.0
sg1073
F0.149972174389221
sg1081
F-1.0
sg1089
F-2.0
sg1097
g1617
sg1105
F-2.0
sg1113
F0.0
sg1121
F-2.0
sg1129
S'1001'
p1652
sg1138
F-1.0
sg1146
F-2.0
sg1154
F15.0
sg1162
F-2.0
sg1170
F-1.0
sg1178
F-1.0
sg1186
F-1.0
sg1194
F-2.0
ssS'BHMCatS0007D'
p1653
(dp1654
g12
F-0.2
sg20
S'Kepler-413 B'
p1655
sg29
F0.073
sg37
F-1.0
sg45
I7
sg53
F3460.0
sg61
F-1.0
sg69
F-1.0
sg77
F0.008
sg85
F0.484
sg93
F-1.0
sg101
F0.542
sg109
S'Kepler-413'
p1656
sg118
g3
(g121
S'\xff\x07\xf4,5d\x84?'
p1657
tp1658
Rp1659
sg134
F51.16246944444444
sg142
g1286
sg151
F-1.0
sg159
F0.02
sg167
S'K type'
p1660
sg169
(lp1661
(dp1662
g179
S'BHMCatP0008'
p1663
sg188
F20.986236227855734
sg196
F0.1181
sg204
S'BHMCatS007D'
p1664
sg213
F0.002
sg221
S'8'
p1665
sg230
S'2014ApJ...784...14K'
p1666
sg239
F4.351686956521739
sg247
S'0008'
p1667
sg256
F66.262
sg264
F-1.0
sg272
S'Kepler-413'
p1668
sg281
F67.02876661866648
sg289
F-1.0
sg297
F0.3553
sg305
F-1.0
sg313
F0.0
sg321
F1.362
sg329
S'Kepler-413b'
p1669
sg338
g1296
sg347
F0.09874895620781668
sasg355
S'M type'
p1670
sg363
S'KIC'
p1671
sg372
F-1.0
sg380
F-1.0
sg388
S'12351927'
p1672
sg390
(dp1673
S'BHMCatP0008'
p1674
(dp1675
g401
F3.0
sg409
F0.0
sg417
F0.0
sg425
F0.0
sg433
F1.0
sg441
F-0.2
sg449
F11.3
sg457
S"'early mars'"
p1676
sg466
F4.5
sg474
F1.5
sg482
F4.35168695652174
sg490
F0.01
sg498
F1.0
sg506
F1.0
sg514
F-0.2
sg522
S'Chaboyer'
p1677
sg531
F10.0
sg539
F0.95
sg547
F0.275556
sg555
F0.95
sg563
F67.0287666186665
sg571
F4.7e+40
sg579
F4.7e+40
sg587
F1.5
sg595
F44.0
sg603
F0.0
sg611
F0.275556
sg619
F5.0
sg627
F1.0
sg635
S'Chaboyer'
p1678
sg644
F0.0
sg652
F0.8
sg660
S"'maximum greenhouse'"
p1679
sg669
F0.3
sg677
F1.0
sg685
S"'Saturn'"
p1680
sg694
F0.01
sg702
F10.0
sg710
F1.0
sg718
F2.0
sg726
F3.0
sg734
S'PARSEC'
p1681
sg743
S'PARSEC'
p1682
sg752
F4.7e+40
sg760
F4.7e+40
sg768
S'BHMCatP0008'
p1683
sg777
F0.1
sg785
S'BHMCatS0007D'
p1684
sg794
S'Kepler-413b'
p1685
sg803
F3.0
sg811
S'Kepler-413'
p1686
sg820
S"'recent venus'"
p1687
sg829
S"'runaway greenhouse'"
p1688
sg838
F11.3
sg846
F0.0
sg854
F1.0
sg862
F5.0
sg870
F0.01
sg878
F0.3
sssg886
F4.727
sg894
g3
(g121
S'j\xeb\xf4\xf1f]\x1f@'
p1689
tp1690
Rp1691
sg902
S'2014ApJ...784...14K;'
p1692
sg910
F0.82
sg918
F0.776
sg926
F0.15
sg934
F4700.0
sg942
F87.33
sg950
F-1.0
sg958
F0.0372
sg966
F0.015
sg974
F-1.0
sg982
S'BHMCatP0008;'
p1693
sg991
F-1.0
sg999
F0.660975609756098
sg1007
g1008
sg1016
S'Kepler-413 A'
p1694
sg1025
F19.234041666666666
sg1033
F-1.0
sg1041
F13.15
sg1049
F-1.0
sg1057
F279.54
sg1065
F-1.0
sg1073
F0.1015
sg1081
F-1.0
sg1089
F15.52
sg1097
g1653
sg1105
F-1.0
sg1113
F0.008
sg1121
F2.0
sg1129
S'0007'
p1695
sg1138
F-1.431
sg1146
F-1.0
sg1154
F10.116
sg1162
F5.0
sg1170
g3
(g121
S'\xa5"\xf8\xd1\xa4/F?'
p1696
tp1697
Rp1698
sg1178
g3
(g121
S'"\x89]\x8e\x85\x17\t@'
p1699
tp1700
Rp1701
sg1186
g3
(g121
S'R\xcf\x91\x8fZ\xc0\x82@'
p1702
tp1703
Rp1704
sg1194
F-1.0
ssS'BHMCatS0037P'
p1705
(dp1706
g12
F-1.0
sg20
S'BW Aqr B'
p1707
sg29
F-1.0
sg37
F0.8
sg45
I37
sg53
F6450.0
sg61
F0.022
sg69
F-1.0
sg77
F0.04
sg85
F1.79
sg93
F-1.0
sg101
F1.39
sg109
S'BW Aqr'
p1708
sg118
F-1.0
sg134
F-14.667716666666667
sg142
g1199
sg151
F0.019
sg159
F0.04
sg167
S'F7IV'
p1709
sg169
(lp1710
(dp1711
g179
S'BHMCatP0038'
p1712
sg188
F0.0
sg196
F0.0
sg204
S'BHMCatS0037P'
p1713
sg213
F0.0
sg221
S'38'
p1714
sg230
g231
sg239
F1.000001
sg247
S'0038'
p1715
sg256
F0.0
sg264
F0.0
sg272
S'BW Aqr'
p1716
sg281
F1.000001
sg289
F0.0
sg297
F1.0
sg305
F0.0
sg313
F0.0
sg321
F1.0
sg329
S'BW Aqrh'
p1717
sg338
g339
sg347
F0.0
sasg355
S'F8IV'
p1718
sg363
S'EkCat'
p1719
sg372
F4.075
sg380
F13.5
sg388
S'236'
p1720
sg390
(dp1721
S'BHMCatP0038'
p1722
(dp1723
g401
F3.0
sg409
F0.0
sg417
F0.0
sg425
F0.0
sg433
F1.0
sg441
F0.0
sg449
F11.3
sg457
S"'early mars'"
p1724
sg466
F4.5
sg474
F1.5
sg482
F1.000001
sg490
F0.01
sg498
F1.0
sg506
F1.0
sg514
F0.0
sg522
S'Chaboyer'
p1725
sg531
F10.0
sg539
F0.95
sg547
F0.275556
sg555
F0.95
sg563
F1.000001
sg571
F4.7e+40
sg579
F4.7e+40
sg587
F1.5
sg595
F44.0
sg603
F0.0
sg611
F0.275556
sg619
F5.0
sg627
F1.0
sg635
S'Chaboyer'
p1726
sg644
F0.0
sg652
F0.3
sg660
S"'maximum greenhouse'"
p1727
sg669
F0.3
sg677
F1.0
sg685
S"'Saturn'"
p1728
sg694
F0.01
sg702
F10.0
sg710
F1.0
sg718
F2.0
sg726
F3.0
sg734
S'PARSEC'
p1729
sg743
S'PARSEC'
p1730
sg752
F4.7e+40
sg760
F4.7e+40
sg768
S'BHMCatP0038'
p1731
sg777
F0.1
sg785
S'BHMCatS0037P'
p1732
sg794
S'BW Aqrh'
p1733
sg803
F3.0
sg811
S'BW Aqr'
p1734
sg820
S"'recent venus'"
p1735
sg829
S"'runaway greenhouse'"
p1736
sg838
F11.3
sg846
F0.0
sg854
F1.0
sg862
F5.0
sg870
F0.01
sg878
F0.3
sssg886
F3.981
sg894
g3
(g121
S'\xae\xc6\x02\xb8\xb0\xb2%@'
p1737
tp1738
Rp1739
sg902
S'1991A&A...246..397C;'
p1740
sg910
F1.49
sg918
F2.06
sg926
F-1.0
sg934
F6350.0
sg942
F88.4
sg950
F-1.0
sg958
F0.178
sg966
F0.02
sg974
F15.0
sg982
S'BHMCatP0038;'
p1741
sg991
F100.0
sg999
F0.932885906040268
sg1007
g1008
sg1016
S'BW Aqr A'
p1742
sg1025
F22.387758333333334
sg1033
F-1.0
sg1041
F-1.0
sg1049
F420.0
sg1057
F-1.0
sg1065
g3
(g121
S'\xd5\xc4EG\xa0l\xd9?'
p1743
tp1744
Rp1745
sg1073
F0.0990984036096257
sg1081
g3
(g121
S'\x98\x95+\x0b\x91\xd0\x1a@'
p1746
tp1747
Rp1748
sg1089
F10.401
sg1097
g1705
sg1105
F-1.0
sg1113
F0.02
sg1121
F1.3
sg1129
S'0037'
p1749
sg1138
F-1.0
sg1146
F-1.0
sg1154
F6.719712
sg1162
F9.6
sg1170
F-1.0
sg1178
g3
(g121
S'=WX\xc7\x94\x81\xf7?'
p1750
tp1751
Rp1752
sg1186
F-1.0
sg1194
F100.0
ssS'BHMCatS0027P'
p1753
(dp1754
g12
F-1.0
sg20
S'HS Aur B'
p1755
sg29
F-1.0
sg37
F-1.0
sg45
I27
sg53
F5200.0
sg61
F0.03
sg69
F-1.0
sg77
F0.023
sg85
F0.874
sg93
F-1.0
sg101
F0.877
sg109
S'HS Aur'
p1756
sg118
F-1.0
sg134
F47.67337777777777
sg142
g1199
sg151
F0.02
sg159
F0.03
sg167
S'G8V'
p1757
sg169
(lp1758
(dp1759
g179
S'BHMCatP0028'
p1760
sg188
F0.0
sg196
F0.0
sg204
S'BHMCatS0027P'
p1761
sg213
F0.0
sg221
S'28'
p1762
sg230
g231
sg239
F1.000001
sg247
S'0028'
p1763
sg256
F0.0
sg264
F0.0
sg272
S'HS Aur'
p1764
sg281
F1.000001
sg289
F0.0
sg297
F1.0
sg305
F0.0
sg313
F0.0
sg321
F1.0
sg329
S'HS Aurh'
p1765
sg338
g339
sg347
F0.0
sasg355
S'K0V'
p1766
sg363
S'EkCat'
p1767
sg372
F4.5
sg380
F-1.0
sg388
S'68'
p1768
sg390
(dp1769
S'BHMCatP0028'
p1770
(dp1771
g401
F3.0
sg409
F0.0
sg417
F0.0
sg425
F0.0
sg433
F1.0
sg441
F0.0
sg449
F11.3
sg457
S"'early mars'"
p1772
sg466
F4.5
sg474
F1.5
sg482
F1.000001
sg490
F0.01
sg498
F1.0
sg506
F1.0
sg514
F0.0
sg522
S'Chaboyer'
p1773
sg531
F10.0
sg539
F0.95
sg547
F0.275556
sg555
F0.95
sg563
F1.000001
sg571
F4.7e+40
sg579
F4.7e+40
sg587
F1.5
sg595
F44.0
sg603
F0.0
sg611
F0.275556
sg619
F5.0
sg627
F1.0
sg635
S'Chaboyer'
p1774
sg644
F0.0
sg652
F0.3
sg660
S"'maximum greenhouse'"
p1775
sg669
F0.3
sg677
F1.0
sg685
S"'Saturn'"
p1776
sg694
F0.01
sg702
F10.0
sg710
F1.0
sg718
F2.0
sg726
F3.0
sg734
S'PARSEC'
p1777
sg743
S'PARSEC'
p1778
sg752
F4.7e+40
sg760
F4.7e+40
sg768
S'BHMCatP0028'
p1779
sg777
F0.1
sg785
S'BHMCatS0027P'
p1780
sg794
S'HS Aurh'
p1781
sg803
F3.0
sg811
S'HS Aur'
p1782
sg820
S"'recent venus'"
p1783
sg829
S"'runaway greenhouse'"
p1784
sg838
F11.3
sg846
F0.0
sg854
F1.0
sg862
F5.0
sg870
F0.01
sg878
F0.3
sssg886
F4.39
sg894
F-1.0
sg902
S'1986AJ.....91..383P;'
p1785
sg910
F0.898
sg918
F1.005
sg926
F-1.0
sg934
F5350.0
sg942
F90.0
sg950
F-1.0
sg958
F0.0
sg966
F0.019
sg974
F5.0
sg982
S'BHMCatP0028;'
p1786
sg991
F72.0
sg999
F0.976614699331848
sg1007
S'DEBCat'
p1787
sg1016
S'HS Aur A'
p1788
sg1025
F6.855130555555555
sg1033
F-1.0
sg1041
F-1.0
sg1049
F130.0
sg1057
F-1.0
sg1065
F-1.0
sg1073
F0.108780164037433
sg1081
F-1.0
sg1089
F10.036
sg1097
g1753
sg1105
F-1.0
sg1113
F0.017
sg1121
F-1.0
sg1129
S'0027'
p1789
sg1138
F-1.0
sg1146
F-1.0
sg1154
F9.815377
sg1162
F-1.0
sg1170
F-1.0
sg1178
F-1.0
sg1186
F-1.0
sg1194
F70.0
ssS'BHMCatS0035P'
p1790
(dp1791
g12
F-1.0
sg20
S'EW Ori B'
p1792
sg29
F-1.0
sg37
F0.6
sg45
I35
sg53
F5900.0
sg61
F0.005
sg69
F-1.0
sg77
F0.005
sg85
F1.097
sg93
F-1.0
sg101
F1.123
sg109
S'EW Ori'
p1793
sg118
F-1.0
sg134
F2.044436111111111
sg142
g1199
sg151
F0.005
sg159
F0.005
sg167
S'G0V'
p1794
sg169
(lp1795
(dp1796
g179
S'BHMCatP0036'
p1797
sg188
F0.0
sg196
F0.0
sg204
S'BHMCatS0035P'
p1798
sg213
F0.0
sg221
S'36'
p1799
sg230
g231
sg239
F1.000001
sg247
S'0036'
p1800
sg256
F0.0
sg264
F0.0
sg272
S'EW Ori'
p1801
sg281
F1.000001
sg289
F0.0
sg297
F1.0
sg305
F0.0
sg313
F0.0
sg321
F1.0
sg329
S'EW Orih'
p1802
sg338
g339
sg347
F0.0
sasg355
S'G5V'
p1803
sg363
S'EkCat'
p1804
sg372
F4.408
sg380
F8.8
sg388
S'49'
p1805
sg390
(dp1806
S'BHMCatP0036'
p1807
(dp1808
g401
F3.0
sg409
F0.0
sg417
F0.0
sg425
F0.0
sg433
F1.0
sg441
F0.0
sg449
F11.3
sg457
S"'early mars'"
p1809
sg466
F4.5
sg474
F1.5
sg482
F1.000001
sg490
F0.01
sg498
F1.0
sg506
F1.0
sg514
F0.0
sg522
S'Chaboyer'
p1810
sg531
F10.0
sg539
F0.95
sg547
F0.275556
sg555
F0.95
sg563
F1.000001
sg571
F4.7e+40
sg579
F4.7e+40
sg587
F1.5
sg595
F44.0
sg603
F0.0
sg611
F0.275556
sg619
F5.0
sg627
F1.0
sg635
S'Chaboyer'
p1811
sg644
F0.0
sg652
F0.3
sg660
S"'maximum greenhouse'"
p1812
sg669
F0.3
sg677
F1.0
sg685
S"'Saturn'"
p1813
sg694
F0.01
sg702
F10.0
sg710
F1.0
sg718
F2.0
sg726
F3.0
sg734
S'PARSEC'
p1814
sg743
S'PARSEC'
p1815
sg752
F4.7e+40
sg760
F4.7e+40
sg768
S'BHMCatP0036'
p1816
sg777
F0.1
sg785
S'BHMCatS0035P'
p1817
sg794
S'EW Orih'
p1818
sg803
F3.0
sg811
S'EW Ori'
p1819
sg820
S"'recent venus'"
p1820
sg829
S"'runaway greenhouse'"
p1821
sg838
F11.3
sg846
F0.0
sg854
F1.0
sg862
F5.0
sg870
F0.01
sg878
F0.3
sssg886
F4.372
sg894
g3
(g121
S'\x8b\x8aRZpA\x1a@'
p1822
tp1823
Rp1824
sg902
S'2010A&A...511A..22C;'
p1825
sg910
F1.173
sg918
F1.168
sg926
F-1.0
sg934
F6070.0
sg942
F89.86
sg950
F-1.0
sg958
F0.076
sg966
F0.011
sg974
F7.0
sg982
S'BHMCatP0036;'
p1826
sg991
F95.0
sg999
F0.957374254049446
sg1007
g1008
sg1016
S'EW Ori A'
p1827
sg1025
F5.335875
sg1033
F-1.0
sg1041
F-1.0
sg1049
F175.0
sg1057
F-1.0
sg1065
g3
(g121
S'\x83^\x7f\x88E\x83\xdb?'
p1828
tp1829
Rp1830
sg1073
F0.0939316949197861
sg1081
g3
(g121
S'N\xc1t\x12U8\x19@'
p1831
tp1832
Rp1833
sg1089
F9.795
sg1097
g1790
sg1105
F-1.0
sg1113
F0.009
sg1121
F0.7
sg1129
S'0035'
p1834
sg1138
F-1.0
sg1146
F-1.0
sg1154
F6.93684324
sg1162
F9.0
sg1170
F-1.0
sg1178
g3
(g121
S'4V\xd8\x87:V\xe0?'
p1835
tp1836
Rp1837
sg1186
F-1.0
sg1194
F95.0
ssS'BHMCatS0001D'
p1838
(dp1839
g12
F-0.3
sg20
S'Kepler-16 B'
p1840
sg29
F0.012
sg37
F-1.0
sg45
I1
sg53
F-1.0
sg61
F0.0016
sg69
F-1.0
sg77
F0.001
sg85
F0.226
sg93
F4.0
sg101
F0.203
sg109
S'Kepler-16'
p1841
sg118
g3
(g121
S'\xe7C\xb1\xc2\x0bc\x80?'
p1842
tp1843
Rp1844
sg134
F51.75743888888889
sg142
g1286
sg151
F0.0017
sg159
F0.001
sg167
S'K type'
p1845
sg169
(lp1846
(dp1847
g179
S'BHMCatP0001'
p1848
sg188
F5.087572418874117
sg196
F0.0069
sg204
S'BHMCatS001D'
p1849
sg213
F0.001
sg221
g1633
sg230
S'2012Natur.481..475W;2012yCatp038048101W'
p1850
sg239
F8.458745816983205
sg247
S'0001'
p1851
sg256
F228.776
sg264
F0.0011
sg272
S'Kepler-16'
p1852
sg281
F105.88510096781756
sg289
F-1.0
sg297
F0.7048
sg305
F0.028
sg313
F0.0
sg321
F0.893
sg329
S'Kepler-16b'
p1853
sg338
g1296
sg347
F0.02749260712603987
sasg355
S'M type'
p1854
sg363
S'KIC'
p1855
sg372
F5.0358
sg380
F-1.0
sg388
S'12644769'
p1856
sg390
(dp1857
S'BHMCatP0001'
p1858
(dp1859
g401
F3.0
sg409
F0.0
sg417
F0.0
sg425
F0.0
sg433
F3.0
sg441
F-0.3
sg449
F11.3
sg457
S"'early mars'"
p1860
sg466
F4.5
sg474
F1.5
sg482
F8.45874581698321
sg490
F0.01
sg498
F1.0
sg506
F1.0
sg514
F-0.3
sg522
S'Chaboyer'
p1861
sg531
F10.0
sg539
F0.95
sg547
F0.275556
sg555
F0.95
sg563
F105.885100967818
sg571
F4.7e+40
sg579
F4.7e+40
sg587
F1.5
sg595
F44.0
sg603
F0.0
sg611
F0.275556
sg619
F5.0
sg627
F1.0
sg635
S'Chaboyer'
p1862
sg644
F0.0
sg652
F0.8
sg660
S"'maximum greenhouse'"
p1863
sg669
F0.3
sg677
F1.0
sg685
S"'Saturn'"
p1864
sg694
F0.01
sg702
F10.0
sg710
F3.0
sg718
F2.0
sg726
F3.0
sg734
S'PARSEC'
p1865
sg743
S'PARSEC'
p1866
sg752
F4.7e+40
sg760
F4.7e+40
sg768
S'BHMCatP0001'
p1867
sg777
F0.1
sg785
S'BHMCatS0001D'
p1868
sg794
S'Kepler-16b'
p1869
sg803
F3.0
sg811
S'Kepler-16'
p1870
sg820
S"'recent venus'"
p1871
sg829
S"'runaway greenhouse'"
p1872
sg838
F11.3
sg846
F0.0
sg854
F3.0
sg862
F5.0
sg870
F0.01
sg878
F0.3
sssg886
F4.479
sg894
g3
(g121
S'\xa1\xffg\xf2\xe8\xd6A@'
p1873
tp1874
Rp1875
sg902
S'2011Sci...333.1602D; 2011ApJ...741L...1W;'
p1876
sg910
F0.69
sg918
F0.649
sg926
F1.0
sg934
F4337.0
sg942
F90.3401
sg950
F-1.0
sg958
F0.1594
sg966
F0.004
sg974
F-1.0
sg982
S'BHMCatP0001;'
p1877
sg991
F-1.0
sg999
F0.294202898550725
sg1007
g1008
sg1016
S'Kepler-16 A'
p1878
sg1025
F19.27171388888889
sg1033
F0.2
sg1041
F35.1
sg1049
F-1.0
sg1057
F263.464
sg1065
F-1.0
sg1073
F0.2243
sg1081
F-1.0
sg1089
F11.762
sg1097
g1838
sg1105
F-1.0
sg1113
F0.001
sg1121
F0.025
sg1129
S'0001'
p1879
sg1138
F-0.2
sg1146
F2.0
sg1154
F41.079
sg1162
F0.92
sg1170
g3
(g121
S'\xff\x07\xf4,5d\x84?'
p1880
tp1881
Rp1882
sg1178
g3
(g121
S'#B\xd6\xbbs\x06\xef?'
p1883
tp1884
Rp1885
sg1186
F-1.0
sg1194
F80.0
ssS'PlanetFields'
p1886
(lp1887
g221
ag247
ag338
ag179
ag204
ag272
ag329
ag281
ag188
ag239
ag347
ag321
ag297
ag264
ag256
ag305
ag196
ag213
ag289
ag313
ag230
asS'BHMCatS0005D'
p1888
(dp1889
g12
F-0.25
sg20
S'Kepler-47 B'
p1890
sg29
F0.126
sg37
F-1.0
sg45
I5
sg53
F3357.0
sg61
F-1.0
sg69
F-1.0
sg77
F0.017
sg85
F0.35
sg93
F-1.0
sg101
F0.362
sg109
S'Kepler-47'
p1891
sg118
g3
(g121
S'\x17\xc4\xeb\x8f\x9cG\x82?'
p1892
tp1893
Rp1894
sg134
F46.92046666666666
sg142
g1286
sg151
F0.1
sg159
F0.006
sg167
g168
sg169
(lp1895
(dp1896
g179
S'BHMCatP0005'
p1897
sg188
F0.0
sg196
F0.035
sg204
S'BHMCatS005D'
p1898
sg213
F-1.0
sg221
S'5'
p1899
sg230
S'2013ApJ...768..127S;2013ApJ...770...52K'
p1900
sg239
F3.029797520012557
sg247
S'0005'
p1901
sg256
F49.514
sg264
F0.0047
sg272
S'Kepler-47'
p1902
sg281
F7.631358628311175
sg289
F-1.0
sg297
F0.2956
sg305
F0.04
sg313
F0.0
sg321
F1.405
sg329
S'Kepler-47b'
p1903
sg338
g1296
sg347
F0.12343619525977083
sa(dp1904
g179
S'BHMCatP0006'
p1905
sg188
F0.0
sg196
F0.09
sg204
S'BHMCatS005D'
p1906
sg213
F-1.0
sg221
S'6'
p1907
sg230
S'2014ApJ...784...14K'
p1908
sg239
F4.600803641500549
sg247
S'0006'
p1909
sg256
F303.158
sg264
F0.016
sg272
S'Kepler-47'
p1910
sg281
F28.617594856166907
sg289
F-1.0
sg297
F0.989
sg305
F0.072
sg313
F0.0
sg321
F1.405
sg329
S'Kepler-47c'
p1911
sg338
S'c'
p1912
sg347
F0.20198650133417043
sasg355
g168
sg363
S'KIC'
p1913
sg372
F-1.0
sg380
F-1.0
sg388
S'10020423'
p1914
sg390
(dp1915
S'BHMCatP0005'
p1916
(dp1917
g401
F3.0
sg409
F0.0
sg417
F0.0
sg425
F0.0
sg433
F1.0
sg441
F-0.25
sg449
F11.3
sg457
S"'early mars'"
p1918
sg466
F4.5
sg474
F1.5
sg482
F3.02979752001256
sg490
F0.01
sg498
F1.0
sg506
F1.0
sg514
F-0.25
sg522
S'Chaboyer'
p1919
sg531
F10.0
sg539
F0.95
sg547
F0.275556
sg555
F0.95
sg563
F7.63135862831118
sg571
F4.7e+40
sg579
F4.7e+40
sg587
F1.5
sg595
F44.0
sg603
F0.0
sg611
F0.275556
sg619
F5.0
sg627
F1.0
sg635
S'Chaboyer'
p1920
sg644
F0.0
sg652
F0.8
sg660
S"'maximum greenhouse'"
p1921
sg669
F0.3
sg677
F1.0
sg685
S"'Saturn'"
p1922
sg694
F0.01
sg702
F10.0
sg710
F1.0
sg718
F2.0
sg726
F3.0
sg734
S'PARSEC'
p1923
sg743
S'PARSEC'
p1924
sg752
F4.7e+40
sg760
F4.7e+40
sg768
S'BHMCatP0005'
p1925
sg777
F0.1
sg785
S'BHMCatS0005D'
p1926
sg794
S'Kepler-47b'
p1927
sg803
F3.0
sg811
S'Kepler-47'
p1928
sg820
S"'recent venus'"
p1929
sg829
S"'runaway greenhouse'"
p1930
sg838
F11.3
sg846
F0.0
sg854
F1.0
sg862
F5.0
sg870
F0.01
sg878
F0.3
ssS'BHMCatP0006'
p1931
(dp1932
g401
F3.0
sg409
F0.0
sg417
F0.0
sg425
F0.0
sg433
F1.0
sg441
F-0.25
sg449
F11.3
sg457
g1918
sg466
F4.5
sg474
F1.5
sg482
F4.60080364150055
sg490
F0.01
sg498
F1.0
sg506
F1.0
sg514
F-0.25
sg522
g1919
sg531
F10.0
sg539
F0.95
sg547
F0.275556
sg555
F0.95
sg563
F28.6175948561669
sg571
F4.7e+40
sg579
F4.7e+40
sg587
F1.5
sg595
F44.0
sg603
F0.0
sg611
F0.275556
sg619
F5.0
sg627
F1.0
sg635
g1920
sg644
F0.0
sg652
F0.3
sg660
g1921
sg669
F0.3
sg677
F1.0
sg685
S"'Saturn'"
p1933
sg694
F0.01
sg702
F10.0
sg710
F1.0
sg718
F2.0
sg726
F3.0
sg734
g1923
sg743
g1924
sg752
F4.7e+40
sg760
F4.7e+40
sg768
S'BHMCatP0006'
p1934
sg777
F0.1
sg785
g1926
sg794
S'Kepler-47c'
p1935
sg803
F3.0
sg811
g1928
sg820
g1929
sg829
g1930
sg838
F11.3
sg846
F0.0
sg854
F1.0
sg862
F5.0
sg870
F0.01
sg878
F0.3
sssg886
F4.682
sg894
g3
(g121
S"\xca<\xdd\xec\xa2\xc8'@"
p1936
tp1937
Rp1938
sg902
S'2012Sci...337.1511O;'
p1939
sg910
F1.043
sg918
F0.964
sg926
F0.022
sg934
F5636.0
sg942
F89.69
sg950
F-1.0
sg958
F0.0234
sg966
F0.055
sg974
F-1.0
sg982
S'BHMCatP0005;BHMCatP0006;'
p1940
sg991
F100.0
sg999
F0.347075743048897
sg1007
g1008
sg1016
S'Kepler-47 A'
p1941
sg1025
F19.686527777777776
sg1033
F-1.0
sg1041
F7.775
sg1049
F-1.0
sg1057
F212.3
sg1065
F-1.0
sg1073
F0.0836
sg1081
F-1.0
sg1089
F15.178
sg1097
g1888
sg1105
F-1.0
sg1113
F0.013
sg1121
F0.5
sg1129
S'0005'
p1942
sg1138
F-0.252
sg1146
F-1.0
sg1154
F7.448
sg1162
F4.1
sg1170
g3
(g121
S'\xf5aR\xa613\x82?'
p1943
tp1944
Rp1945
sg1178
g3
(g121
S'\x87Z\xcb\x12"4\xf7?'
p1946
tp1947
Rp1948
sg1186
g3
(g121
S'\xb6Y6\x15\x84!\x90@'
p1949
tp1950
Rp1951
sg1194
F100.0
ssS'BHMCatS1011V'
p1952
(dp1953
g12
F0.0
sg20
S'NICHE-011 B'
p1954
sg29
F-2.0
sg37
F-2.0
sg45
I1011
sg53
F-2.0
sg61
F-2.0
sg69
F-2.0
sg77
F0.0
sg85
F-2.0
sg93
F-2.0
sg101
F0.55
sg109
S'NICHE-011'
p1955
sg118
g3
(g121
S'0\xa8\x1bgj\x94\x8f?'
p1956
tp1957
Rp1958
sg134
F-2.0
sg142
g143
sg151
F-2.0
sg159
F0.0
sg167
g168
sg169
(lp1959
(dp1960
g179
S'BHMCatPV1011'
p1961
sg188
F0.0
sg196
F0.0
sg204
S'BHMCatS1011V'
p1962
sg213
F0.0
sg221
S'1011'
p1963
sg230
g231
sg239
F1.000001
sg247
S'1011'
p1964
sg256
F0.0
sg264
F0.0
sg272
S'NICHE-011'
p1965
sg281
F1.000001
sg289
F0.0
sg297
F1.0
sg305
F0.0
sg313
F0.0
sg321
F1.0
sg329
S'NICHE-011h'
p1966
sg338
g339
sg347
F0.0
sasg355
g168
sg363
S'NICHE'
p1967
sg372
F-2.0
sg380
F-2.0
sg388
S'11'
p1968
sg390
(dp1969
S'BHMCatPV1011'
p1970
(dp1971
g401
F3.0
sg409
F0.0
sg417
F0.0
sg425
F0.0
sg433
F1.0
sg441
F0.0
sg449
F11.3
sg457
S"'early mars'"
p1972
sg466
F4.5
sg474
F1.5
sg482
F1.000001
sg490
F0.01
sg498
F1.0
sg506
F1.0
sg514
F0.0
sg522
S'Chaboyer'
p1973
sg531
F10.0
sg539
F0.95
sg547
F0.275556
sg555
F0.95
sg563
F1.000001
sg571
F4.7e+40
sg579
F4.7e+40
sg587
F1.5
sg595
F44.0
sg603
F0.0
sg611
F0.275556
sg619
F5.0
sg627
F1.0
sg635
S'Chaboyer'
p1974
sg644
F0.0
sg652
F0.3
sg660
S"'maximum greenhouse'"
p1975
sg669
F0.3
sg677
F1.0
sg685
S"'Earth'"
p1976
sg694
F0.01
sg702
F10.0
sg710
F1.0
sg718
F2.0
sg726
F3.0
sg734
S'PARSEC'
p1977
sg743
S'PARSEC'
p1978
sg752
F4.7e+40
sg760
F4.7e+40
sg768
S'BHMCatPV1011'
p1979
sg777
F0.1
sg785
S'BHMCatS1011V'
p1980
sg794
S'NICHE-011h'
p1981
sg803
F3.0
sg811
S'NICHE-011'
p1982
sg820
S"'recent venus'"
p1983
sg829
S"'runaway greenhouse'"
p1984
sg838
F11.3
sg846
F0.0
sg854
F1.0
sg862
F5.0
sg870
F0.01
sg878
F0.3
sssg886
F-2.0
sg894
F-1.0
sg902
g168
sg910
F0.7
sg918
F-2.0
sg926
F-2.0
sg934
F-2.0
sg942
F-2.0
sg950
F-2.0
sg958
F0.4
sg966
F0.0
sg974
F-1.0
sg982
S'BHMCatPV1011;'
p1985
sg991
F-2.0
sg999
F0.785714285714286
sg1007
g1008
sg1016
S'NICHE-011 A'
p1986
sg1025
F-2.0
sg1033
F-1.0
sg1041
F-2.0
sg1049
F-1.0
sg1057
F-1.0
sg1065
F-1.0
sg1073
F0.203543556080572
sg1081
F-1.0
sg1089
F-2.0
sg1097
g1952
sg1105
F-2.0
sg1113
F0.0
sg1121
F-2.0
sg1129
S'1011'
p1987
sg1138
F-1.0
sg1146
F-2.0
sg1154
F30.0
sg1162
F-2.0
sg1170
F-1.0
sg1178
F-1.0
sg1186
F-1.0
sg1194
F-2.0
ssS'BHMCatS0011P'
p1988
(dp1989
g12
F-1.0
sg20
S'V66 M4 B'
p1990
sg29
F0.88
sg37
F-1.0
sg45
I11
sg53
F5943.0
sg61
F-1.0
sg69
F-1.0
sg77
F0.005
sg85
F0.83
sg93
F-1.0
sg101
F0.744
sg109
S'V66 M4'
p1991
sg118
F-1.0
sg134
F-25.471861111111114
sg142
g1199
sg151
F-1.0
sg159
F0.005
sg167
S'G type'
p1992
sg169
(lp1993
(dp1994
g179
S'BHMCatP0012'
p1995
sg188
F0.0
sg196
F0.0
sg204
S'BHMCatS0011P'
p1996
sg213
F0.0
sg221
S'12'
p1997
sg230
g231
sg239
F1.000001
sg247
S'0012'
p1998
sg256
F0.0
sg264
F0.0
sg272
S'V66 M4'
p1999
sg281
F1.000001
sg289
F0.0
sg297
F1.0
sg305
F0.0
sg313
F0.0
sg321
F1.0
sg329
S'V66 M4h'
p2000
sg338
g339
sg347
F0.0
sasg355
S'G type'
p2001
sg363
S'DEBCat'
p2002
sg372
F-1.0
sg380
F-1.0
sg388
S'28'
p2003
sg390
(dp2004
S'BHMCatP0012'
p2005
(dp2006
g401
F3.0
sg409
F0.0
sg417
F0.0
sg425
F0.0
sg433
F1.0
sg441
F0.0
sg449
F11.3
sg457
S"'early mars'"
p2007
sg466
F4.5
sg474
F1.5
sg482
F1.000001
sg490
F0.01
sg498
F1.0
sg506
F1.0
sg514
F0.0
sg522
S'Chaboyer'
p2008
sg531
F10.0
sg539
F0.95
sg547
F0.275556
sg555
F0.95
sg563
F1.000001
sg571
F4.7e+40
sg579
F4.7e+40
sg587
F1.5
sg595
F44.0
sg603
F0.0
sg611
F0.275556
sg619
F5.0
sg627
F1.0
sg635
S'Chaboyer'
p2009
sg644
F0.0
sg652
F0.3
sg660
S"'maximum greenhouse'"
p2010
sg669
F0.3
sg677
F1.0
sg685
S"'Saturn'"
p2011
sg694
F0.01
sg702
F10.0
sg710
F1.0
sg718
F2.0
sg726
F3.0
sg734
S'PARSEC'
p2012
sg743
S'PARSEC'
p2013
sg752
F4.7e+40
sg760
F4.7e+40
sg768
S'BHMCatP0012'
p2014
sg777
F0.1
sg785
S'BHMCatS0011P'
p2015
sg794
S'V66 M4h'
p2016
sg803
F3.0
sg811
S'V66 M4'
p2017
sg820
S"'recent venus'"
p2018
sg829
S"'runaway greenhouse'"
p2019
sg838
F11.3
sg846
F0.0
sg854
F1.0
sg862
F5.0
sg870
F0.01
sg878
F0.3
sssg886
F-1.0
sg894
F-1.0
sg902
S'2013AJ....145...43K;'
p2020
sg910
F0.784
sg918
F0.935
sg926
F-1.0
sg934
F6165.0
sg942
F-1.0
sg950
F-1.0
sg958
F0.0
sg966
F0.005
sg974
F-1.0
sg982
S'BHMCatP0012;'
p2021
sg991
F-1.0
sg999
F0.948979591836735
sg1007
g1008
sg1016
S'V66 M4 A'
p2022
sg1025
F16.392286111111112
sg1033
F-1.0
sg1041
F-1.0
sg1049
F-1.0
sg1057
F-1.0
sg1065
F-1.0
sg1073
F0.091
sg1081
F-1.0
sg1089
F16.84
sg1097
g1988
sg1105
F-1.0
sg1113
F0.004
sg1121
F-1.0
sg1129
S'0011'
p2023
sg1138
F-1.0
sg1146
F-1.0
sg1154
F8.111
sg1162
F-1.0
sg1170
F-1.0
sg1178
F-1.0
sg1186
g3
(g121
S'\xae\x1a\xc5y#\xe2\xaa@'
p2024
tp2025
Rp2026
sg1194
F-1.0
ssS'BHMCatS0013P'
p2027
(dp2028
g12
F-1.0
sg20
S'V785 Cep B'
p2029
sg29
F0.6
sg37
F-1.0
sg45
I13
sg53
F5874.0
sg61
F-1.0
sg69
F-1.0
sg77
F0.019
sg85
F1.373
sg93
F-1.0
sg101
F1.081
sg109
S'V785 Cep'
p2030
sg118
F-1.0
sg134
F85.17629166666667
sg142
g1199
sg151
F-1.0
sg159
F0.019
sg167
S'G type'
p2031
sg169
(lp2032
(dp2033
g179
S'BHMCatP0014'
p2034
sg188
F0.0
sg196
F0.0
sg204
S'BHMCatS0013P'
p2035
sg213
F0.0
sg221
S'14'
p2036
sg230
g231
sg239
F1.000001
sg247
S'0014'
p2037
sg256
F0.0
sg264
F0.0
sg272
S'V785 Cep'
p2038
sg281
F1.000001
sg289
F0.0
sg297
F1.0
sg305
F0.0
sg313
F0.0
sg321
F1.0
sg329
S'V785 Ceph'
p2039
sg338
g339
sg347
F0.0
sasg355
S'G type'
p2040
sg363
S'DEBCat'
p2041
sg372
F-1.0
sg380
F-1.0
sg388
S'26'
p2042
sg390
(dp2043
S'BHMCatP0014'
p2044
(dp2045
g401
F3.0
sg409
F0.0
sg417
F0.0
sg425
F0.0
sg433
F1.0
sg441
F0.0
sg449
F11.3
sg457
S"'early mars'"
p2046
sg466
F4.5
sg474
F1.5
sg482
F1.000001
sg490
F0.01
sg498
F1.0
sg506
F1.0
sg514
F0.0
sg522
S'Chaboyer'
p2047
sg531
F10.0
sg539
F0.95
sg547
F0.275556
sg555
F0.95
sg563
F1.000001
sg571
F4.7e+40
sg579
F4.7e+40
sg587
F1.5
sg595
F44.0
sg603
F0.0
sg611
F0.275556
sg619
F5.0
sg627
F1.0
sg635
S'Chaboyer'
p2048
sg644
F0.0
sg652
F0.3
sg660
S"'maximum greenhouse'"
p2049
sg669
F0.3
sg677
F1.0
sg685
S"'Saturn'"
p2050
sg694
F0.01
sg702
F10.0
sg710
F1.0
sg718
F2.0
sg726
F3.0
sg734
S'PARSEC'
p2051
sg743
S'PARSEC'
p2052
sg752
F4.7e+40
sg760
F4.7e+40
sg768
S'BHMCatP0014'
p2053
sg777
F0.1
sg785
S'BHMCatS0013P'
p2054
sg794
S'V785 Ceph'
p2055
sg803
F3.0
sg811
S'V785 Cep'
p2056
sg820
S"'recent venus'"
p2057
sg829
S"'runaway greenhouse'"
p2058
sg838
F11.3
sg846
F0.0
sg854
F1.0
sg862
F5.0
sg870
F0.01
sg878
F0.3
sssg886
F-1.0
sg894
F-1.0
sg902
S'2014AJ....147...42Z; 2012MNRAS.425.3104F;'
p2059
sg910
F1.103
sg918
F1.424
sg926
F-1.0
sg934
F5902.0
sg942
F-1.0
sg950
F-1.0
sg958
F0.0
sg966
F0.007
sg974
F-1.0
sg982
S'BHMCatP0014;'
p2060
sg991
F-1.0
sg999
F0.980054397098821
sg1007
g1008
sg1016
S'V785 Cep A'
p2061
sg1025
F0.8770944444444445
sg1033
F-1.0
sg1041
F-1.0
sg1049
F-1.0
sg1057
F-1.0
sg1065
F-1.0
sg1073
F0.0885
sg1081
F-1.0
sg1089
F14.74
sg1097
g2027
sg1105
F-1.0
sg1113
F0.007
sg1121
F-1.0
sg1129
S'0013'
p2062
sg1138
F-1.0
sg1146
F-1.0
sg1154
F6.504
sg1162
F-1.0
sg1170
F-1.0
sg1178
F-1.0
sg1186
g3
(g121
S'\x03%\xcc\x91\x0b\xf3\x9d@'
p2063
tp2064
Rp2065
sg1194
F-1.0
ssS'BHMCatS1007V'
p2066
(dp2067
g12
F0.0
sg20
S'NICHE-007 B'
p2068
sg29
F-2.0
sg37
F-2.0
sg45
I1007
sg53
F-2.0
sg61
F-2.0
sg69
F-2.0
sg77
F0.0
sg85
F-2.0
sg93
F-2.0
sg101
F0.85
sg109
S'NICHE-007'
p2069
sg118
g3
(g121
S'0\xa8\x1bgj\x94\x8f?'
p2070
tp2071
Rp2072
sg134
F-2.0
sg142
g143
sg151
F-2.0
sg159
F0.0
sg167
g168
sg169
(lp2073
(dp2074
g179
S'BHMCatPV1007'
p2075
sg188
F0.0
sg196
F0.0
sg204
S'BHMCatS1007V'
p2076
sg213
F0.0
sg221
S'1007'
p2077
sg230
g231
sg239
F1.000001
sg247
S'1007'
p2078
sg256
F0.0
sg264
F0.0
sg272
S'NICHE-007'
p2079
sg281
F1.000001
sg289
F0.0
sg297
F1.0
sg305
F0.0
sg313
F0.0
sg321
F1.0
sg329
S'NICHE-007h'
p2080
sg338
g339
sg347
F0.0
sasg355
g168
sg363
S'NICHE'
p2081
sg372
F-2.0
sg380
F-2.0
sg388
S'7'
p2082
sg390
(dp2083
S'BHMCatPV1007'
p2084
(dp2085
g401
F3.0
sg409
F0.0
sg417
F0.0
sg425
F0.0
sg433
F1.0
sg441
F0.0
sg449
F11.3
sg457
S"'early mars'"
p2086
sg466
F4.5
sg474
F1.5
sg482
F1.000001
sg490
F0.01
sg498
F1.0
sg506
F1.0
sg514
F0.0
sg522
S'Chaboyer'
p2087
sg531
F10.0
sg539
F0.95
sg547
F0.275556
sg555
F0.95
sg563
F1.000001
sg571
F4.7e+40
sg579
F4.7e+40
sg587
F1.5
sg595
F44.0
sg603
F0.0
sg611
F0.275556
sg619
F5.0
sg627
F1.0
sg635
S'Chaboyer'
p2088
sg644
F0.0
sg652
F0.3
sg660
S"'maximum greenhouse'"
p2089
sg669
F0.3
sg677
F1.0
sg685
S"'Earth'"
p2090
sg694
F0.01
sg702
F10.0
sg710
F1.0
sg718
F2.0
sg726
F3.0
sg734
S'PARSEC'
p2091
sg743
S'PARSEC'
p2092
sg752
F4.7e+40
sg760
F4.7e+40
sg768
S'BHMCatPV1007'
p2093
sg777
F0.1
sg785
S'BHMCatS1007V'
p2094
sg794
S'NICHE-007h'
p2095
sg803
F3.0
sg811
S'NICHE-007'
p2096
sg820
S"'recent venus'"
p2097
sg829
S"'runaway greenhouse'"
p2098
sg838
F11.3
sg846
F0.0
sg854
F1.0
sg862
F5.0
sg870
F0.01
sg878
F0.3
sssg886
F-2.0
sg894
F-1.0
sg902
g168
sg910
F0.85
sg918
F-2.0
sg926
F-2.0
sg934
F-2.0
sg942
F-2.0
sg950
F-2.0
sg958
F0.2
sg966
F0.0
sg974
F-1.0
sg982
S'BHMCatPV1007;'
p2099
sg991
F-2.0
sg999
F1.0
sg1007
g1008
sg1016
S'NICHE-007 A'
p2100
sg1025
F-2.0
sg1033
F-1.0
sg1041
F-2.0
sg1049
F-1.0
sg1057
F-1.0
sg1065
F-1.0
sg1073
F0.12242693814828
sg1081
F-1.0
sg1089
F-2.0
sg1097
g2066
sg1105
F-2.0
sg1113
F0.0
sg1121
F-2.0
sg1129
S'1007'
p2101
sg1138
F-1.0
sg1146
F-2.0
sg1154
F12.0
sg1162
F-2.0
sg1170
F-1.0
sg1178
F-1.0
sg1186
F-1.0
sg1194
F-2.0
ssS'BHMCatS0038P'
p2102
(dp2103
g12
F-1.0
sg20
S'NGC188 KR V12 B'
p2104
sg29
F-1.0
sg37
F-1.0
sg45
I38
sg53
F5875.0
sg61
F0.013
sg69
F-1.0
sg77
F0.019
sg85
F1.373
sg93
F-1.0
sg101
F1.081
sg109
S'NGC188 KR V12'
p2105
sg118
F-1.0
sg134
F85.17629166666667
sg142
g1199
sg151
F0.012
sg159
F0.019
sg167
S'G type'
p2106
sg169
(lp2107
(dp2108
g179
S'BHMCatP0039'
p2109
sg188
F0.0
sg196
F0.0
sg204
S'BHMCatS0038P'
p2110
sg213
F0.0
sg221
S'39'
p2111
sg230
g231
sg239
F1.000001
sg247
S'0039'
p2112
sg256
F0.0
sg264
F0.0
sg272
S'NGC188 KR V12'
p2113
sg281
F1.000001
sg289
F0.0
sg297
F1.0
sg305
F0.0
sg313
F0.0
sg321
F1.0
sg329
S'NGC188 KR V12h'
p2114
sg338
g339
sg347
F0.0
sasg355
S'G type'
p2115
sg363
S'EkCat'
p2116
sg372
F4.196
sg380
F17.0
sg388
g1899
sg390
(dp2117
S'BHMCatP0039'
p2118
(dp2119
g401
F3.0
sg409
F0.0
sg417
F0.0
sg425
F0.0
sg433
F1.0
sg441
F0.0
sg449
F11.3
sg457
S"'early mars'"
p2120
sg466
F4.5
sg474
F1.5
sg482
F1.000001
sg490
F0.01
sg498
F1.0
sg506
F1.0
sg514
F0.0
sg522
S'Chaboyer'
p2121
sg531
F10.0
sg539
F0.95
sg547
F0.275556
sg555
F0.95
sg563
F1.000001
sg571
F4.7e+40
sg579
F4.7e+40
sg587
F1.5
sg595
F44.0
sg603
F0.0
sg611
F0.275556
sg619
F5.0
sg627
F1.0
sg635
S'Chaboyer'
p2122
sg644
F0.0
sg652
F0.3
sg660
S"'maximum greenhouse'"
p2123
sg669
F0.3
sg677
F1.0
sg685
S"'Saturn'"
p2124
sg694
F0.01
sg702
F10.0
sg710
F1.0
sg718
F2.0
sg726
F3.0
sg734
S'PARSEC'
p2125
sg743
S'PARSEC'
p2126
sg752
F4.7e+40
sg760
F4.7e+40
sg768
S'BHMCatP0039'
p2127
sg777
F0.1
sg785
S'BHMCatS0038P'
p2128
sg794
S'NGC188 KR V12h'
p2129
sg803
F3.0
sg811
S'NGC188 KR V12'
p2130
sg820
S"'recent venus'"
p2131
sg829
S"'runaway greenhouse'"
p2132
sg838
F11.3
sg846
F0.0
sg854
F1.0
sg862
F5.0
sg870
F0.01
sg878
F0.3
sssg886
F4.174
sg894
g3
(g121
S"\xa9\x8d'\xff]3\x13@"
p2133
tp2134
Rp2135
sg902
S'2009AJ....137.5086M;'
p2136
sg910
F1.103
sg918
F1.424
sg926
F-1.0
sg934
F5900.0
sg942
F88.62
sg950
F-1.0
sg958
F0.0
sg966
F0.007
sg974
F75.0
sg982
S'BHMCatP0039;'
p2137
sg991
F100.0
sg999
F0.980054397098821
sg1007
g1008
sg1016
S'NGC188 KR V12 A'
p2138
sg1025
F0.8770944444444445
sg1033
F-1.0
sg1041
F-1.0
sg1049
F1770.0
sg1057
F-1.0
sg1065
F-1.0
sg1073
F0.0884857046791444
sg1081
g3
(g121
S'\xaf\xfaO\xef\xc1U\x10@'
p2139
tp2140
Rp2141
sg1089
F14.64
sg1097
g2102
sg1105
F-1.0
sg1113
F0.007
sg1121
F-1.0
sg1129
S'0038'
p2142
sg1138
F-1.0
sg1146
F-1.0
sg1154
F6.5042969
sg1162
F15.0
sg1170
F-1.0
sg1178
F-1.0
sg1186
F-1.0
sg1194
F100.0
ssS'BHMCatS1005V'
p2143
(dp2144
g12
F0.0
sg20
S'NICHE-005 B'
p2145
sg29
F-2.0
sg37
F-2.0
sg45
I1005
sg53
F-2.0
sg61
F-2.0
sg69
F-2.0
sg77
F0.0
sg85
F-2.0
sg93
F-2.0
sg101
F1.0
sg109
S'NICHE-005'
p2146
sg118
g3
(g121
S'0\xa8\x1bgj\x94\x8f?'
p2147
tp2148
Rp2149
sg134
F-2.0
sg142
g143
sg151
F-2.0
sg159
F0.0
sg167
g168
sg169
(lp2150
(dp2151
g179
S'BHMCatPV1005'
p2152
sg188
F0.0
sg196
F0.0
sg204
S'BHMCatS1005V'
p2153
sg213
F0.0
sg221
S'1005'
p2154
sg230
g231
sg239
F1.000001
sg247
S'1005'
p2155
sg256
F0.0
sg264
F0.0
sg272
S'NICHE-005'
p2156
sg281
F1.000001
sg289
F0.0
sg297
F1.0
sg305
F0.0
sg313
F0.0
sg321
F1.0
sg329
S'NICHE-005h'
p2157
sg338
g339
sg347
F0.0
sasg355
g168
sg363
S'NICHE'
p2158
sg372
F-2.0
sg380
F-2.0
sg388
g1899
sg390
(dp2159
S'BHMCatPV1005'
p2160
(dp2161
g401
F3.0
sg409
F0.0
sg417
F0.0
sg425
F0.0
sg433
F1.0
sg441
F0.0
sg449
F11.3
sg457
S"'early mars'"
p2162
sg466
F4.5
sg474
F1.5
sg482
F1.000001
sg490
F0.01
sg498
F1.0
sg506
F1.0
sg514
F0.0
sg522
S'Chaboyer'
p2163
sg531
F10.0
sg539
F0.95
sg547
F0.275556
sg555
F0.95
sg563
F1.000001
sg571
F4.7e+40
sg579
F4.7e+40
sg587
F1.5
sg595
F44.0
sg603
F0.0
sg611
F0.275556
sg619
F5.0
sg627
F1.0
sg635
S'Chaboyer'
p2164
sg644
F0.0
sg652
F0.3
sg660
S"'maximum greenhouse'"
p2165
sg669
F0.3
sg677
F1.0
sg685
S"'Earth'"
p2166
sg694
F0.01
sg702
F10.0
sg710
F1.0
sg718
F2.0
sg726
F3.0
sg734
S'PARSEC'
p2167
sg743
S'PARSEC'
p2168
sg752
F4.7e+40
sg760
F4.7e+40
sg768
S'BHMCatPV1005'
p2169
sg777
F0.1
sg785
S'BHMCatS1005V'
p2170
sg794
S'NICHE-005h'
p2171
sg803
F3.0
sg811
S'NICHE-005'
p2172
sg820
S"'recent venus'"
p2173
sg829
S"'runaway greenhouse'"
p2174
sg838
F11.3
sg846
F0.0
sg854
F1.0
sg862
F5.0
sg870
F0.01
sg878
F0.3
sssg886
F-2.0
sg894
F-1.0
sg902
g168
sg910
F1.0
sg918
F-2.0
sg926
F-2.0
sg934
F-2.0
sg942
F-2.0
sg950
F-2.0
sg958
F0.5
sg966
F0.0
sg974
F-1.0
sg982
S'BHMCatPV1005;'
p2175
sg991
F-2.0
sg999
F1.0
sg1007
g1008
sg1016
S'NICHE-005 A'
p2176
sg1025
F-2.0
sg1033
F-1.0
sg1041
F-2.0
sg1049
F-1.0
sg1057
F-1.0
sg1065
F-1.0
sg1073
F0.377906198822968
sg1081
F-1.0
sg1089
F-2.0
sg1097
g2143
sg1105
F-2.0
sg1113
F0.0
sg1121
F-2.0
sg1129
S'1005'
p2177
sg1138
F-1.0
sg1146
F-2.0
sg1154
F60.0
sg1162
F-2.0
sg1170
F-1.0
sg1178
F-1.0
sg1186
F-1.0
sg1194
F-2.0
ssS'BHMCatS0029P'
p2178
(dp2179
g12
F-1.0
sg20
S'ASAS J162637-5042.8  B'
p2180
sg29
F-1.0
sg37
F-1.0
sg45
I29
sg53
F-1.0
sg61
F0.151
sg69
F-1.0
sg77
F0.33
sg85
F2.25
sg93
F-1.0
sg101
F1.246
sg109
S'ASAS J162637-5042.8'
p2181
sg118
F-1.0
sg134
F-49.2863
sg142
g1199
sg151
F0.13
sg159
F0.33
sg167
S'G1'
p2182
sg169
(lp2183
(dp2184
g179
S'BHMCatP0030'
p2185
sg188
F0.0
sg196
F0.0
sg204
S'BHMCatS0029P'
p2186
sg213
F0.0
sg221
S'30'
p2187
sg230
g231
sg239
F1.000001
sg247
S'0030'
p2188
sg256
F0.0
sg264
F0.0
sg272
S'ASAS J162637-5042.8'
p2189
sg281
F1.000001
sg289
F0.0
sg297
F1.0
sg305
F0.0
sg313
F0.0
sg321
F1.0
sg329
S'ASAS J162637-5042.8 h'
p2190
sg338
g339
sg347
F0.0
sasg355
g168
sg363
S'EkCat'
p2191
sg372
F3.82900138511398
sg380
F-1.0
sg388
S'143'
p2192
sg390
(dp2193
S'BHMCatP0030'
p2194
(dp2195
g401
F3.0
sg409
F0.0
sg417
F0.0
sg425
F0.0
sg433
F1.0
sg441
F0.0
sg449
F11.3
sg457
S"'early mars'"
p2196
sg466
F4.5
sg474
F1.5
sg482
F1.000001
sg490
F0.01
sg498
F1.0
sg506
F1.0
sg514
F0.0
sg522
S'Chaboyer'
p2197
sg531
F10.0
sg539
F0.95
sg547
F0.275556
sg555
F0.95
sg563
F1.000001
sg571
F4.7e+40
sg579
F4.7e+40
sg587
F1.5
sg595
F44.0
sg603
F0.0
sg611
F0.275556
sg619
F5.0
sg627
F1.0
sg635
S'Chaboyer'
p2198
sg644
F0.0
sg652
F0.3
sg660
S"'maximum greenhouse'"
p2199
sg669
F0.3
sg677
F1.0
sg685
S"'Saturn'"
p2200
sg694
F0.01
sg702
F10.0
sg710
F1.0
sg718
F2.0
sg726
F3.0
sg734
S'PARSEC'
p2201
sg743
S'PARSEC'
p2202
sg752
F4.7e+40
sg760
F4.7e+40
sg768
S'BHMCatP0030'
p2203
sg777
F0.1
sg785
S'BHMCatS0029P'
p2204
sg794
S'ASAS J162637-5042.8 h'
p2205
sg803
F3.0
sg811
S'ASAS J162637-5042.8'
p2206
sg820
S"'recent venus'"
p2207
sg829
S"'runaway greenhouse'"
p2208
sg838
F11.3
sg846
F0.0
sg854
F1.0
sg862
F5.0
sg870
F0.01
sg878
F0.3
sssg886
F3.7917898139359
sg894
F-1.0
sg902
S'2008AN....329..835B;'
p2209
sg910
F1.469
sg918
F2.55
sg926
F-1.0
sg934
F-1.0
sg942
F85.6
sg950
F-1.0
sg958
F0.019
sg966
F0.008
sg974
F19.0
sg982
S'BHMCatP0030;'
p2210
sg991
F-1.0
sg999
F0.848196051735875
sg1007
g1008
sg1016
S'ASAS J162637-5042.8  A'
p2211
sg1025
F16.443722222222224
sg1033
F-1.0
sg1041
F-1.0
sg1049
F200.0
sg1057
F-1.0
sg1065
F-1.0
sg1073
F0.117112063636364
sg1081
F-1.0
sg1089
F9.868
sg1097
g2178
sg1105
F-1.0
sg1113
F0.007
sg1121
F-1.0
sg1129
S'0029'
p2212
sg1138
F-1.0
sg1146
F-1.0
sg1154
F8.87621
sg1162
F-1.0
sg1170
F-1.0
sg1178
F-1.0
sg1186
F-1.0
sg1194
F-1.0
ssS'BHMCatS0039P'
p2213
(dp2214
g12
F-1.0
sg20
S'BD-02 873 B'
p2215
sg29
F-1.0
sg37
F-1.0
sg45
I39
sg53
F-1.0
sg61
F0.196
sg69
F-1.0
sg77
F0.29
sg85
F1.43
sg93
F-1.0
sg101
F1.179
sg109
S'BD-02 873'
p2216
sg118
F-1.0
sg134
F-0.26017500000000005
sg142
g1199
sg151
F0.197
sg159
F0.26
sg167
S'G3.5'
p2217
sg169
(lp2218
(dp2219
g179
S'BHMCatP0040'
p2220
sg188
F0.0
sg196
F0.0
sg204
S'BHMCatS0039P'
p2221
sg213
F0.0
sg221
S'40'
p2222
sg230
g231
sg239
F1.000001
sg247
S'0040'
p2223
sg256
F0.0
sg264
F0.0
sg272
S'BD-02 873'
p2224
sg281
F1.000001
sg289
F0.0
sg297
F1.0
sg305
F0.0
sg313
F0.0
sg321
F1.0
sg329
S'BD-02 873h'
p2225
sg338
g339
sg347
F0.0
sasg355
g168
sg363
S'EkCat'
p2226
sg372
F4.19869010917852
sg380
F-1.0
sg388
S'40'
p2227
sg390
(dp2228
S'BHMCatP0040'
p2229
(dp2230
g401
F3.0
sg409
F0.0
sg417
F0.0
sg425
F0.0
sg433
F1.0
sg441
F0.0
sg449
F11.3
sg457
S"'early mars'"
p2231
sg466
F4.5
sg474
F1.5
sg482
F1.000001
sg490
F0.01
sg498
F1.0
sg506
F1.0
sg514
F0.0
sg522
S'Chaboyer'
p2232
sg531
F10.0
sg539
F0.95
sg547
F0.275556
sg555
F0.95
sg563
F1.000001
sg571
F4.7e+40
sg579
F4.7e+40
sg587
F1.5
sg595
F44.0
sg603
F0.0
sg611
F0.275556
sg619
F5.0
sg627
F1.0
sg635
S'Chaboyer'
p2233
sg644
F0.0
sg652
F0.3
sg660
S"'maximum greenhouse'"
p2234
sg669
F0.3
sg677
F1.0
sg685
S"'Saturn'"
p2235
sg694
F0.01
sg702
F10.0
sg710
F1.0
sg718
F2.0
sg726
F3.0
sg734
S'PARSEC'
p2236
sg743
S'PARSEC'
p2237
sg752
F4.7e+40
sg760
F4.7e+40
sg768
S'BHMCatP0040'
p2238
sg777
F0.1
sg785
S'BHMCatS0039P'
p2239
sg794
S'BD-02 873h'
p2240
sg803
F3.0
sg811
S'BD-02 873'
p2241
sg820
S"'recent venus'"
p2242
sg829
S"'runaway greenhouse'"
p2243
sg838
F11.3
sg846
F0.0
sg854
F1.0
sg862
F5.0
sg870
F0.01
sg878
F0.3
sssg886
F4.14665265525305
sg894
F-1.0
sg902
S'2007A&A...474..653V;'
p2244
sg910
F1.293
sg918
F1.59
sg926
F-1.0
sg934
F-1.0
sg942
F88.5
sg950
F-1.0
sg958
F0.132
sg966
F0.009
sg974
F17.0
sg982
S'BHMCatP0040;'
p2245
sg991
F-1.0
sg999
F0.911832946635731
sg1007
g1008
sg1016
S'BD-02 873 A'
p2246
sg1025
F4.344713888888888
sg1033
F-1.0
sg1041
F-1.0
sg1049
F129.0
sg1057
F-1.0
sg1065
F-1.0
sg1073
F0.0919767240641711
sg1081
F-1.0
sg1089
F8.621
sg1097
g2213
sg1105
F-1.0
sg1113
F0.009
sg1121
F-1.0
sg1129
S'0039'
p2247
sg1138
F-1.0
sg1146
F-1.0
sg1154
F6.47649
sg1162
F-1.0
sg1170
F-1.0
sg1178
F-1.0
sg1186
F-1.0
sg1194
F-1.0
ssS'BHMCatS1009V'
p2248
(dp2249
g12
F0.0
sg20
S'NICHE-009 B'
p2250
sg29
F-2.0
sg37
F-2.0
sg45
I1009
sg53
F-2.0
sg61
F-2.0
sg69
F-2.0
sg77
F0.0
sg85
F-2.0
sg93
F-2.0
sg101
F0.55
sg109
S'NICHE-009'
p2251
sg118
g3
(g121
S'0\xa8\x1bgj\x94\x8f?'
p2252
tp2253
Rp2254
sg134
F-2.0
sg142
g143
sg151
F-2.0
sg159
F0.0
sg167
g168
sg169
(lp2255
(dp2256
g179
S'BHMCatPV1009'
p2257
sg188
F0.0
sg196
F0.0
sg204
S'BHMCatS1009V'
p2258
sg213
F0.0
sg221
S'1009'
p2259
sg230
g231
sg239
F1.000001
sg247
S'1009'
p2260
sg256
F0.0
sg264
F0.0
sg272
S'NICHE-009'
p2261
sg281
F1.000001
sg289
F0.0
sg297
F1.0
sg305
F0.0
sg313
F0.0
sg321
F1.0
sg329
S'NICHE-009h'
p2262
sg338
g339
sg347
F0.0
sasg355
g168
sg363
S'NICHE'
p2263
sg372
F-2.0
sg380
F-2.0
sg388
g1291
sg390
(dp2264
S'BHMCatPV1009'
p2265
(dp2266
g401
F3.0
sg409
F0.0
sg417
F0.0
sg425
F0.0
sg433
F1.0
sg441
F0.0
sg449
F11.3
sg457
S"'early mars'"
p2267
sg466
F4.5
sg474
F1.5
sg482
F1.000001
sg490
F0.01
sg498
F1.0
sg506
F1.0
sg514
F0.0
sg522
S'Chaboyer'
p2268
sg531
F10.0
sg539
F0.95
sg547
F0.275556
sg555
F0.95
sg563
F1.000001
sg571
F4.7e+40
sg579
F4.7e+40
sg587
F1.5
sg595
F44.0
sg603
F0.0
sg611
F0.275556
sg619
F5.0
sg627
F1.0
sg635
S'Chaboyer'
p2269
sg644
F0.0
sg652
F0.3
sg660
S"'maximum greenhouse'"
p2270
sg669
F0.3
sg677
F1.0
sg685
S"'Earth'"
p2271
sg694
F0.01
sg702
F10.0
sg710
F1.0
sg718
F2.0
sg726
F3.0
sg734
S'PARSEC'
p2272
sg743
S'PARSEC'
p2273
sg752
F4.7e+40
sg760
F4.7e+40
sg768
S'BHMCatPV1009'
p2274
sg777
F0.1
sg785
S'BHMCatS1009V'
p2275
sg794
S'NICHE-009h'
p2276
sg803
F3.0
sg811
S'NICHE-009'
p2277
sg820
S"'recent venus'"
p2278
sg829
S"'runaway greenhouse'"
p2279
sg838
F11.3
sg846
F0.0
sg854
F1.0
sg862
F5.0
sg870
F0.01
sg878
F0.3
sssg886
F-2.0
sg894
F-1.0
sg902
g168
sg910
F0.85
sg918
F-2.0
sg926
F-2.0
sg934
F-2.0
sg942
F-2.0
sg950
F-2.0
sg958
F0.3
sg966
F0.0
sg974
F-1.0
sg982
S'BHMCatPV1009;'
p2280
sg991
F-2.0
sg999
F0.647058823529412
sg1007
g1008
sg1016
S'NICHE-009 A'
p2281
sg1025
F-2.0
sg1033
F-1.0
sg1041
F-2.0
sg1049
F-1.0
sg1057
F-1.0
sg1065
F-1.0
sg1073
F0.133160893790228
sg1081
F-1.0
sg1089
F-2.0
sg1097
g2248
sg1105
F-2.0
sg1113
F0.0
sg1121
F-2.0
sg1129
S'1009'
p2282
sg1138
F-1.0
sg1146
F-2.0
sg1154
F15.0
sg1162
F-2.0
sg1170
F-1.0
sg1178
F-1.0
sg1186
F-1.0
sg1194
F-2.0
ssS'BHMCatS0015P'
p2283
(dp2284
g12
F-1.0
sg20
S'LSPM J1112+7626 B'
p2285
sg29
F-1.0
sg37
F-1.0
sg45
I15
sg53
F2952.0
sg61
F0.014
sg69
F-1.0
sg77
F0.005
sg85
F0.3
sg93
F-1.0
sg101
F0.275
sg109
S'LSPM J1112+7626'
p2286
sg118
F-1.0
sg134
F76.449
sg142
g1199
sg151
F0.012
sg159
F0.005
sg167
S'M4V'
p2287
sg169
(lp2288
(dp2289
g179
S'BHMCatP0016'
p2290
sg188
F0.0
sg196
F0.0
sg204
S'BHMCatS0015P'
p2291
sg213
F0.0
sg221
S'16'
p2292
sg230
g231
sg239
F1.000001
sg247
S'0016'
p2293
sg256
F0.0
sg264
F0.0
sg272
S'LSPM J1112+7626'
p2294
sg281
F1.000001
sg289
F0.0
sg297
F1.0
sg305
F0.0
sg313
F0.0
sg321
F1.0
sg329
S'LSPM J1112+7626h'
p2295
sg338
g339
sg347
F0.0
sasg355
S'M type'
p2296
sg363
S'EkCat'
p2297
sg372
F4.929
sg380
F-1.0
sg388
S'113'
p2298
sg390
(dp2299
S'BHMCatP0016'
p2300
(dp2301
g401
F3.0
sg409
F0.0
sg417
F0.0
sg425
F0.0
sg433
F1.0
sg441
F0.0
sg449
F11.3
sg457
S"'early mars'"
p2302
sg466
F4.5
sg474
F1.5
sg482
F1.000001
sg490
F0.01
sg498
F1.0
sg506
F1.0
sg514
F0.0
sg522
S'Chaboyer'
p2303
sg531
F10.0
sg539
F0.95
sg547
F0.275556
sg555
F0.95
sg563
F1.000001
sg571
F4.7e+40
sg579
F4.7e+40
sg587
F1.5
sg595
F44.0
sg603
F0.0
sg611
F0.275556
sg619
F5.0
sg627
F1.0
sg635
S'Chaboyer'
p2304
sg644
F0.0
sg652
F0.3
sg660
S"'maximum greenhouse'"
p2305
sg669
F0.3
sg677
F1.0
sg685
S"'Saturn'"
p2306
sg694
F0.01
sg702
F10.0
sg710
F1.0
sg718
F2.0
sg726
F3.0
sg734
S'PARSEC'
p2307
sg743
S'PARSEC'
p2308
sg752
F4.7e+40
sg760
F4.7e+40
sg768
S'BHMCatP0016'
p2309
sg777
F0.1
sg785
S'BHMCatS0015P'
p2310
sg794
S'LSPM J1112+7626h'
p2311
sg803
F3.0
sg811
S'LSPM J1112+7626'
p2312
sg820
S"'recent venus'"
p2313
sg829
S"'runaway greenhouse'"
p2314
sg838
F11.3
sg846
F0.0
sg854
F1.0
sg862
F5.0
sg870
F0.01
sg878
F0.3
sssg886
F4.861
sg894
F-1.0
sg902
S'2011ApJ...742..123I;'
p2315
sg910
F0.395
sg918
F0.381
sg926
F-1.0
sg934
F3061.0
sg942
F89.71
sg950
F-1.0
sg958
F0.239
sg966
F0.002
sg974
F5.0
sg982
S'BHMCatP0016;'
p2316
sg991
F163.0
sg999
F0.69620253164557
sg1007
S'DEBCat'
p2317
sg1016
S'LSPM J1112+7626 A'
p2318
sg1025
F11.211755555555555
sg1033
F-1.0
sg1041
F-1.0
sg1049
F48.1
sg1057
F-1.0
sg1065
F-1.0
sg1073
F0.203875532085561
sg1081
F-1.0
sg1089
F12.015
sg1097
g2283
sg1105
F-1.0
sg1113
F0.001
sg1121
F-1.0
sg1129
S'0015'
p2319
sg1138
F-1.0
sg1146
F-1.0
sg1154
F41.032336
sg1162
F-1.0
sg1170
F-1.0
sg1178
F-1.0
sg1186
F-1.0
sg1194
F162.0
ssS'BHMCatS0017P'
p2320
(dp2321
g12
F-1.0
sg20
S'AI Phe B'
p2322
sg29
F-1.0
sg37
F1.0
sg45
I17
sg53
F5010.0
sg61
F0.012
sg69
F-1.0
sg77
F0.048
sg85
F1.816
sg93
F-1.0
sg101
F1.195
sg109
S'AI Phe'
p2323
sg118
F-1.0
sg134
F-45.73441944444444
sg142
g1199
sg151
F0.014
sg159
F0.024
sg167
S'F7V'
p2324
sg169
(lp2325
(dp2326
g179
S'BHMCatP0018'
p2327
sg188
F0.0
sg196
F0.0
sg204
S'BHMCatS0017P'
p2328
sg213
F0.0
sg221
S'18'
p2329
sg230
g231
sg239
F1.000001
sg247
S'0018'
p2330
sg256
F0.0
sg264
F0.0
sg272
S'AI Phe'
p2331
sg281
F1.000001
sg289
F0.0
sg297
F1.0
sg305
F0.0
sg313
F0.0
sg321
F1.0
sg329
S'AI Pheh'
p2332
sg338
g339
sg347
F0.0
sasg355
S'K0IV'
p2333
sg363
S'EkCat'
p2334
sg372
F3.997
sg380
F4.0
sg388
g1291
sg390
(dp2335
S'BHMCatP0018'
p2336
(dp2337
g401
F3.0
sg409
F0.0
sg417
F0.0
sg425
F0.0
sg433
F1.0
sg441
F0.0
sg449
F11.3
sg457
S"'early mars'"
p2338
sg466
F4.5
sg474
F1.5
sg482
F1.000001
sg490
F0.01
sg498
F1.0
sg506
F1.0
sg514
F0.0
sg522
S'Chaboyer'
p2339
sg531
F10.0
sg539
F0.95
sg547
F0.275556
sg555
F0.95
sg563
F1.000001
sg571
F4.7e+40
sg579
F4.7e+40
sg587
F1.5
sg595
F44.0
sg603
F0.0
sg611
F0.275556
sg619
F5.0
sg627
F1.0
sg635
S'Chaboyer'
p2340
sg644
F0.0
sg652
F0.3
sg660
S"'maximum greenhouse'"
p2341
sg669
F0.3
sg677
F1.0
sg685
S"'Saturn'"
p2342
sg694
F0.01
sg702
F10.0
sg710
F1.0
sg718
F2.0
sg726
F3.0
sg734
S'PARSEC'
p2343
sg743
S'PARSEC'
p2344
sg752
F4.7e+40
sg760
F4.7e+40
sg768
S'BHMCatP0018'
p2345
sg777
F0.1
sg785
S'BHMCatS0017P'
p2346
sg794
S'AI Pheh'
p2347
sg803
F3.0
sg811
S'AI Phe'
p2348
sg820
S"'recent venus'"
p2349
sg829
S"'runaway greenhouse'"
p2350
sg838
F11.3
sg846
F0.0
sg854
F1.0
sg862
F5.0
sg870
F0.01
sg878
F0.3
sssg886
F3.596
sg894
g3
(g121
S'\x8e\xb6x\\\xa2\xb08@'
p2351
tp2352
Rp2353
sg902
S'1988A&A...196..128A;'
p2354
sg910
F1.236
sg918
F2.93
sg926
F-1.0
sg934
F6310.0
sg942
F88.45
sg950
F-1.0
sg958
F0.186
sg966
F0.005
sg974
F6.0
sg982
S'BHMCatP0018;'
p2355
sg991
F120.0
sg999
F0.966828478964401
sg1007
g1008
sg1016
S'AI Phe A'
p2356
sg1025
F1.1594972222222222
sg1033
F-1.0
sg1041
F-1.0
sg1049
F162.0
sg1057
F-1.0
sg1065
g3
(g121
S'\x9c\xae\xf4\x92?\xf4\x16@'
p2357
tp2358
Rp2359
sg1073
F0.222494302139037
sg1081
g3
(g121
S'\x9c\xae\xf4\x92?\xf46@'
p2360
tp2361
Rp2362
sg1089
F8.607
sg1097
g2320
sg1105
F-1.0
sg1113
F0.004
sg1121
F1.0
sg1129
S'0017'
p2363
sg1138
F-1.0
sg1146
F-1.0
sg1154
F24.592325
sg1162
F6.0
sg1170
F-1.0
sg1178
g3
(g121
S'_$\xfb\x92\xc1u\x10@'
p2364
tp2365
Rp2366
sg1186
F-1.0
sg1194
F150.0
ssS'BHMCatS0003D'
p2367
(dp2368
g12
F-0.603
sg20
S'Kepler-35 B'
p2369
sg29
F0.123
sg37
F-1.0
sg45
I3
sg53
F5202.0
sg61
F-1.0
sg69
F-1.0
sg77
F0.002
sg85
F0.786
sg93
F12.0
sg101
F0.809
sg109
S'Kepler-35'
p2370
sg118
g3
(g121
S'0ts\xcf\xf9\xe6p?'
p2371
tp2372
Rp2373
sg134
F46.68976111111111
sg142
g1286
sg151
F-1.0
sg159
F0.002
sg167
S'G type'
p2374
sg169
(lp2375
(dp2376
g179
S'BHMCatP0003'
p2377
sg188
F6.359465523592647
sg196
F0.042
sg204
S'BHMCatS003D'
p2378
sg213
F0.005
sg221
g1420
sg230
S'2012ApJ...758...87O'
p2379
sg239
F8.16923183173756
sg247
S'0003'
p2380
sg256
F131.458
sg264
F0.00102
sg272
S'Kepler-35'
p2381
sg281
F40.3826060748133
sg289
F-1.0
sg297
F0.60347
sg305
F0.085
sg313
F0.0
sg321
F1.697
sg329
S'Kepler-35b'
p2382
sg338
g1296
sg347
F0.15710061214879925
sasg355
S'G type'
p2383
sg363
S'KIC'
p2384
sg372
F-1.0
sg380
F-1.0
sg388
S'9837578'
p2385
sg390
(dp2386
S'BHMCatP0003'
p2387
(dp2388
g401
F3.0
sg409
F0.0
sg417
F0.0
sg425
F0.0
sg433
F10.0
sg441
F-0.603
sg449
F11.3
sg457
S"'early mars'"
p2389
sg466
F4.5
sg474
F1.5
sg482
F8.16923183173756
sg490
F0.01
sg498
F1.0
sg506
F1.0
sg514
F-0.603
sg522
S'Chaboyer'
p2390
sg531
F10.0
sg539
F0.95
sg547
F0.275556
sg555
F0.95
sg563
F40.3826060748133
sg571
F4.7e+40
sg579
F4.7e+40
sg587
F1.5
sg595
F44.0
sg603
F0.0
sg611
F0.275556
sg619
F5.0
sg627
F1.0
sg635
S'Chaboyer'
p2391
sg644
F0.0
sg652
F0.8
sg660
S"'maximum greenhouse'"
p2392
sg669
F0.3
sg677
F1.0
sg685
S"'Saturn'"
p2393
sg694
F0.01
sg702
F10.0
sg710
F10.0
sg718
F2.0
sg726
F3.0
sg734
S'PARSEC'
p2394
sg743
S'PARSEC'
p2395
sg752
F4.7e+40
sg760
F4.7e+40
sg768
S'BHMCatP0003'
p2396
sg777
F0.1
sg785
S'BHMCatS0003D'
p2397
sg794
S'Kepler-35b'
p2398
sg803
F3.0
sg811
S'Kepler-35'
p2399
sg820
S"'recent venus'"
p2400
sg829
S"'runaway greenhouse'"
p2401
sg838
F11.3
sg846
F0.0
sg854
F10.0
sg862
F5.0
sg870
F0.01
sg878
F0.3
sssg886
F4.756
sg894
F-1.0
sg902
S'2012Natur.481..475W; 2012yCatp038048101W;'
p2402
sg910
F0.888
sg918
F1.028
sg926
F0.1
sg934
F5606.0
sg942
F90.4238
sg950
F-1.0
sg958
F0.1421
sg966
F0.005
sg974
F-1.0
sg982
S'BHMCatP0003;'
p2403
sg991
F100.0
sg999
F0.911036036036036
sg1007
g1008
sg1016
S'Kepler-35 A'
p2404
sg1025
F19.633131944444443
sg1033
F-1.0
sg1041
F20.8
sg1049
F-1.0
sg1057
F86.276
sg1065
F-1.0
sg1073
F0.1762
sg1081
F-1.0
sg1089
F15.726
sg1097
g2367
sg1105
F-1.0
sg1113
F0.004
sg1121
F-1.0
sg1129
S'0003'
p2405
sg1138
F-0.603
sg1146
F8.0
sg1154
F20.734
sg1162
F-1.0
sg1170
g3
(g121
S'0ts\xcf\xf9\xe6p?'
p2406
tp2407
Rp2408
sg1178
F-1.0
sg1186
g3
(g121
S'\x9d{Ss\x17\xef\x99@'
p2409
tp2410
Rp2411
sg1194
F150.0
ssS'BHMCatS1010V'
p2412
(dp2413
g12
F0.0
sg20
S'NICHE-010 B'
p2414
sg29
F-2.0
sg37
F-2.0
sg45
I1010
sg53
F-2.0
sg61
F-2.0
sg69
F-2.0
sg77
F0.0
sg85
F-2.0
sg93
F-2.0
sg101
F0.7
sg109
S'NICHE-010'
p2415
sg118
g3
(g121
S'0\xa8\x1bgj\x94\x8f?'
p2416
tp2417
Rp2418
sg134
F-2.0
sg142
g143
sg151
F-2.0
sg159
F0.0
sg167
g168
sg169
(lp2419
(dp2420
g179
S'BHMCatPV1010'
p2421
sg188
F0.0
sg196
F0.0
sg204
S'BHMCatS1010V'
p2422
sg213
F0.0
sg221
S'1010'
p2423
sg230
g231
sg239
F1.000001
sg247
S'1010'
p2424
sg256
F0.0
sg264
F0.0
sg272
S'NICHE-010'
p2425
sg281
F1.000001
sg289
F0.0
sg297
F1.0
sg305
F0.0
sg313
F0.0
sg321
F1.0
sg329
S'NICHE-010h'
p2426
sg338
g339
sg347
F0.0
sasg355
g168
sg363
S'NICHE'
p2427
sg372
F-2.0
sg380
F-2.0
sg388
S'10'
p2428
sg390
(dp2429
S'BHMCatPV1010'
p2430
(dp2431
g401
F3.0
sg409
F0.0
sg417
F0.0
sg425
F0.0
sg433
F1.0
sg441
F0.0
sg449
F11.3
sg457
S"'early mars'"
p2432
sg466
F4.5
sg474
F1.5
sg482
F1.000001
sg490
F0.01
sg498
F1.0
sg506
F1.0
sg514
F0.0
sg522
S'Chaboyer'
p2433
sg531
F10.0
sg539
F0.95
sg547
F0.275556
sg555
F0.95
sg563
F1.000001
sg571
F4.7e+40
sg579
F4.7e+40
sg587
F1.5
sg595
F44.0
sg603
F0.0
sg611
F0.275556
sg619
F5.0
sg627
F1.0
sg635
S'Chaboyer'
p2434
sg644
F0.0
sg652
F0.3
sg660
S"'maximum greenhouse'"
p2435
sg669
F0.3
sg677
F1.0
sg685
S"'Earth'"
p2436
sg694
F0.01
sg702
F10.0
sg710
F1.0
sg718
F2.0
sg726
F3.0
sg734
S'PARSEC'
p2437
sg743
S'PARSEC'
p2438
sg752
F4.7e+40
sg760
F4.7e+40
sg768
S'BHMCatPV1010'
p2439
sg777
F0.1
sg785
S'BHMCatS1010V'
p2440
sg794
S'NICHE-010h'
p2441
sg803
F3.0
sg811
S'NICHE-010'
p2442
sg820
S"'recent venus'"
p2443
sg829
S"'runaway greenhouse'"
p2444
sg838
F11.3
sg846
F0.0
sg854
F1.0
sg862
F5.0
sg870
F0.01
sg878
F0.3
sssg886
F-2.0
sg894
F-1.0
sg902
g168
sg910
F0.7
sg918
F-2.0
sg926
F-2.0
sg934
F-2.0
sg942
F-2.0
sg950
F-2.0
sg958
F0.4
sg966
F0.0
sg974
F-1.0
sg982
S'BHMCatPV1010;'
p2445
sg991
F-2.0
sg999
F1.0
sg1007
g1008
sg1016
S'NICHE-010 A'
p2446
sg1025
F-2.0
sg1033
F-1.0
sg1041
F-2.0
sg1049
F-1.0
sg1057
F-1.0
sg1065
F-1.0
sg1073
F0.150371038433526
sg1081
F-1.0
sg1089
F-2.0
sg1097
g2412
sg1105
F-2.0
sg1113
F0.0
sg1121
F-2.0
sg1129
S'1010'
p2447
sg1138
F-1.0
sg1146
F-2.0
sg1154
F18.0
sg1162
F-2.0
sg1170
F-1.0
sg1178
F-1.0
sg1186
F-1.0
sg1194
F-2.0
ssS'FieldsText'
p2448
(dp2449
g12
g3
(g4
(S'S10'
p2450
I0
I1
tp2451
Rp2452
(I3
S'|'
p2453
NNNI10
I1
I0
tp2454
bS'[Fe/H]_fit'
p2455
tp2456
Rp2457
sg20
g3
(g4
(S'S10'
p2458
I0
I1
tp2459
Rp2460
(I3
S'|'
p2461
NNNI10
I1
I0
tp2462
bS'Star 2 Id.'
p2463
tp2464
Rp2465
sg29
g3
(g4
(S'S3'
p2466
I0
I1
tp2467
Rp2468
(I3
S'|'
p2469
NNNI3
I1
I0
tp2470
bS'B-V'
p2471
tp2472
Rp2473
sg37
g3
(g4
(S'S15'
p2474
I0
I1
tp2475
Rp2476
(I3
S'|'
p2477
NNNI15
I1
I0
tp2478
bS'v_2 sin i_2,err'
p2479
tp2480
Rp2481
sg45
g3
(g4
(S'S3'
p2482
I0
I1
tp2483
Rp2484
(I3
S'|'
p2485
NNNI3
I1
I0
tp2486
bS'No.'
p2487
tp2488
Rp2489
sg53
g3
(g4
(S'S3'
p2490
I0
I1
tp2491
Rp2492
(I3
S'|'
p2493
NNNI3
I1
I0
tp2494
bS'T_2'
p2495
tp2496
Rp2497
sg61
g3
(g4
(S'S11'
p2498
I0
I1
tp2499
Rp2500
(I3
S'|'
p2501
NNNI11
I1
I0
tp2502
bS'log g_2,err'
p2503
tp2504
Rp2505
sg69
g3
(g4
(S'S11'
p2506
I0
I1
tp2507
Rp2508
(I3
S'|'
p2509
NNNI11
I1
I0
tp2510
bS'P_rot,2,err'
p2511
tp2512
Rp2513
sg77
g3
(g4
(S'S7'
p2514
I0
I1
tp2515
Rp2516
(I3
S'|'
p2517
NNNI7
I1
I0
tp2518
bS'R_1,err'
p2519
tp2520
Rp2521
sg85
g3
(g4
(S'S3'
p2522
I0
I1
tp2523
Rp2524
(I3
S'|'
p2525
NNNI3
I1
I0
tp2526
bS'R_2'
p2527
tp2528
Rp2529
sg93
g3
(g4
(S'S8'
p2530
I0
I1
tp2531
Rp2532
(I3
S'|'
p2533
NNNI8
I1
I0
tp2534
bS'\\tau_max'
p2535
tp2536
Rp2537
sg101
g3
(g4
(S'S3'
p2538
I0
I1
tp2539
Rp2540
(I3
S'|'
p2541
NNNI3
I1
I0
tp2542
bS'M_2'
p2543
tp2544
Rp2545
sg109
g3
(g4
(S'S10'
p2546
I0
I1
tp2547
Rp2548
(I3
S'|'
p2549
NNNI10
I1
I0
tp2550
bS'System Id.'
p2551
tp2552
Rp2553
sg118
g3
(g4
(S'S5'
p2554
I0
I1
tp2555
Rp2556
(I3
S'|'
p2557
NNNI5
I1
I0
tp2558
bS'Z_fit'
p2559
tp2560
Rp2561
sg134
g3
(g4
(S'S3'
p2562
I0
I1
tp2563
Rp2564
(I3
S'|'
p2565
NNNI3
I1
I0
tp2566
bS'DEC'
p2567
tp2568
Rp2569
sg142
g3
(g4
(S'S4'
p2570
I0
I1
tp2571
Rp2572
(I3
S'|'
p2573
NNNI4
I1
I0
tp2574
bS'Type'
p2575
tp2576
Rp2577
sg151
g3
(g4
(S'S11'
p2578
I0
I1
tp2579
Rp2580
(I3
S'|'
p2581
NNNI11
I1
I0
tp2582
bS'log g_2,err'
p2583
tp2584
Rp2585
sg159
g3
(g4
(S'S7'
p2586
I0
I1
tp2587
Rp2588
(I3
S'|'
p2589
NNNI7
I1
I0
tp2590
bS'R_2,err'
p2591
tp2592
Rp2593
sg167
g3
(g4
(S'S10'
p2594
I0
I1
tp2595
Rp2596
(I3
S'|'
p2597
NNNI10
I1
I0
tp2598
bS'Sp. Type 1'
p2599
tp2600
Rp2601
sg355
g3
(g4
(S'S10'
p2602
I0
I1
tp2603
Rp2604
(I3
S'|'
p2605
NNNI10
I1
I0
tp2606
bS'Sp. Type 2'
p2607
tp2608
Rp2609
sg363
g3
(g4
(S'S11'
p2610
I0
I1
tp2611
Rp2612
(I3
S'|'
p2613
NNNI11
I1
I0
tp2614
bS'Source Cat.'
p2615
tp2616
Rp2617
sg372
g3
(g4
(S'S8'
p2618
I0
I1
tp2619
Rp2620
(I3
S'|'
p2621
NNNI8
I1
I0
tp2622
bS'log g_2 '
p2623
tp2624
Rp2625
sg380
g3
(g4
(S'S11'
p2626
I0
I1
tp2627
Rp2628
(I3
S'|'
p2629
NNNI11
I1
I0
tp2630
bS'v_2 sin i_2'
p2631
tp2632
Rp2633
sg388
g3
(g4
(S'S10'
p2634
I0
I1
tp2635
Rp2636
(I3
S'|'
p2637
NNNI10
I1
I0
tp2638
bS'Source Id.'
p2639
tp2640
Rp2641
sg886
g3
(g4
(S'S7'
p2642
I0
I1
tp2643
Rp2644
(I3
S'|'
p2645
NNNI7
I1
I0
tp2646
bS'log g_1'
p2647
tp2648
Rp2649
sg894
g3
(g4
(S'S9'
p2650
I0
I1
tp2651
Rp2652
(I3
S'|'
p2653
NNNI9
I1
I0
tp2654
bS'P_rot,v,1'
p2655
tp2656
Rp2657
sg902
g3
(g4
(S'S8'
p2658
I0
I1
tp2659
Rp2660
(I3
S'|'
p2661
NNNI8
I1
I0
tp2662
bS'ADS Link'
p2663
tp2664
Rp2665
sg910
g3
(g4
(S'S3'
p2666
I0
I1
tp2667
Rp2668
(I3
S'|'
p2669
NNNI3
I1
I0
tp2670
bS'M_1'
p2671
tp2672
Rp2673
sg918
g3
(g4
(S'S3'
p2674
I0
I1
tp2675
Rp2676
(I3
S'|'
p2677
NNNI3
I1
I0
tp2678
bS'R_1'
p2679
tp2680
Rp2681
sg926
g3
(g4
(S'S11'
p2682
I0
I1
tp2683
Rp2684
(I3
S'|'
p2685
NNNI11
I1
I0
tp2686
bS'P_rot,1,err'
p2687
tp2688
Rp2689
sg934
g3
(g4
(S'S3'
p2690
I0
I1
tp2691
Rp2692
(I3
S'|'
p2693
NNNI3
I1
I0
tp2694
bS'T_1'
p2695
tp2696
Rp2697
sg942
g3
(g4
(S'S5'
p2698
I0
I1
tp2699
Rp2700
(I3
S'|'
p2701
NNNI5
I1
I0
tp2702
bS'i_bin'
p2703
tp2704
Rp2705
sg950
g3
(g4
(S'S7'
p2706
I0
I1
tp2707
Rp2708
(I3
S'|'
p2709
NNNI7
I1
I0
tp2710
bS'P_rot,2'
p2711
tp2712
Rp2713
sg958
g3
(g4
(S'S5'
p2714
I0
I1
tp2715
Rp2716
(I3
S'|'
p2717
NNNI5
I1
I0
tp2718
bS'e_bin'
p2719
tp2720
Rp2721
sg966
g3
(g4
(S'S7'
p2722
I0
I1
tp2723
Rp2724
(I3
S'|'
p2725
NNNI7
I1
I0
tp2726
bS'M_1,err'
p2727
tp2728
Rp2729
sg974
g3
(g4
(S'S5'
p2730
I0
I1
tp2731
Rp2732
(I3
S'|'
p2733
NNNI5
I1
I0
tp2734
bS'd,err'
p2735
tp2736
Rp2737
sg982
g3
(g4
(S'S7'
p2738
I0
I1
tp2739
Rp2740
(I3
S'|'
p2741
NNNI7
I1
I0
tp2742
bS'Planets'
p2743
tp2744
Rp2745
sg991
g3
(g4
(S'S7'
p2746
I0
I1
tp2747
Rp2748
(I3
S'|'
p2749
NNNI7
I1
I0
tp2750
bS'T_2,err'
p2751
tp2752
Rp2753
sg999
g3
(g4
(S'S1'
p2754
I0
I1
tp2755
Rp2756
(I3
S'|'
p2757
NNNI1
I1
I0
tp2758
bS'q'
p2759
tp2760
Rp2761
sg1007
g3
(g4
(S'S5'
p2762
I0
I1
tp2763
Rp2764
(I3
S'|'
p2765
NNNI5
I1
I0
tp2766
bS'Notes'
p2767
tp2768
Rp2769
sg1016
g3
(g4
(S'S10'
p2770
I0
I1
tp2771
Rp2772
(I3
S'|'
p2773
NNNI10
I1
I0
tp2774
bS'Star 1 Id.'
p2775
tp2776
Rp2777
sg1025
g3
(g4
(S'S2'
p2778
I0
I1
tp2779
Rp2780
(I3
S'|'
p2781
NNNI2
I1
I0
tp2782
bS'RA'
p2783
tp2784
Rp2785
sg1033
g3
(g4
(S'S14'
p2786
I0
I1
tp2787
Rp2788
(I3
S'|'
p2789
NNNI14
I1
I0
tp2790
bS'[Fe/H]_fit,err'
p2791
tp2792
Rp2793
sg1041
g3
(g4
(S'S7'
p2794
I0
I1
tp2795
Rp2796
(I3
S'|'
p2797
NNNI7
I1
I0
tp2798
bS'P_rot,1'
p2799
tp2800
Rp2801
sg1049
g3
(g4
(S'S1'
p2802
I0
I1
tp2803
Rp2804
(I3
S'|'
p2805
NNNI1
I1
I0
tp2806
bS'd'
p2807
tp2808
Rp2809
sg1057
g3
(g4
(S'S10'
p2810
I0
I1
tp2811
Rp2812
(I3
S'|'
p2813
NNNI10
I1
I0
tp2814
bS'\\omega_bin'
p2815
tp2816
Rp2817
sg1065
g3
(g4
(S'S13'
p2818
I0
I1
tp2819
Rp2820
(I3
S'|'
p2821
NNNI13
I1
I0
tp2822
bS'P_rot,v,2,err'
p2823
tp2824
Rp2825
sg1073
g3
(g4
(S'S5'
p2826
I0
I1
tp2827
Rp2828
(I3
S'|'
p2829
NNNI5
I1
I0
tp2830
bS'a_bin'
p2831
tp2832
Rp2833
sg1081
g3
(g4
(S'S9'
p2834
I0
I1
tp2835
Rp2836
(I3
S'|'
p2837
NNNI9
I1
I0
tp2838
bS'P_rot,v,2'
p2839
tp2840
Rp2841
sg1089
g3
(g4
(S'S1'
p2842
I0
I1
tp2843
Rp2844
(I3
S'|'
p2845
NNNI1
I1
I0
tp2846
bg143
tp2847
Rp2848
sg1097
g3
(g4
(S'S7'
p2849
I0
I1
tp2850
Rp2851
(I3
S'|'
p2852
NNNI7
I1
I0
tp2853
bS'Cat.Id.'
p2854
tp2855
Rp2856
sg1105
g3
(g4
(S'S3'
p2857
I0
I1
tp2858
Rp2859
(I3
S'|'
p2860
NNNI3
I1
I0
tp2861
bS'L_x'
p2862
tp2863
Rp2864
sg1113
g3
(g4
(S'S7'
p2865
I0
I1
tp2866
Rp2867
(I3
S'|'
p2868
NNNI7
I1
I0
tp2869
bS'M_2,err'
p2870
tp2871
Rp2872
sg1121
g3
(g4
(S'S15'
p2873
I0
I1
tp2874
Rp2875
(I3
S'|'
p2876
NNNI15
I1
I0
tp2877
bS'v_1 sin i_1,err'
p2878
tp2879
Rp2880
sg1129
g3
(g4
(S'S3'
p2881
I0
I1
tp2882
Rp2883
(I3
S'|'
p2884
NNNI3
I1
I0
tp2885
bS'No.'
p2886
tp2887
Rp2888
sg1138
g3
(g4
(S'S10'
p2889
I0
I1
tp2890
Rp2891
(I3
S'|'
p2892
NNNI10
I1
I0
tp2893
bS'[Fe/H]_obs'
p2894
tp2895
Rp2896
sg1146
g3
(g4
(S'S8'
p2897
I0
I1
tp2898
Rp2899
(I3
S'|'
p2900
NNNI8
I1
I0
tp2901
bS'\\tau_min'
p2902
tp2903
Rp2904
sg1154
g3
(g4
(S'S5'
p2905
I0
I1
tp2906
Rp2907
(I3
S'|'
p2908
NNNI5
I1
I0
tp2909
bS'P_bin'
p2910
tp2911
Rp2912
sg1162
g3
(g4
(S'S11'
p2913
I0
I1
tp2914
Rp2915
(I3
S'|'
p2916
NNNI11
I1
I0
tp2917
bS'v_1 sin i,1'
p2918
tp2919
Rp2920
sg1170
g3
(g4
(S'S5'
p2921
I0
I1
tp2922
Rp2923
(I3
S'|'
p2924
NNNI5
I1
I0
tp2925
bS'Z_obs'
p2926
tp2927
Rp2928
sg1178
g3
(g4
(S'S13'
p2929
I0
I1
tp2930
Rp2931
(I3
S'|'
p2932
NNNI13
I1
I0
tp2933
bS'P_rot,v,1,err'
p2934
tp2935
Rp2936
sg1186
g3
(g4
(S'S5'
p2937
I0
I1
tp2938
Rp2939
(I3
S'|'
p2940
NNNI5
I1
I0
tp2941
bS'd_mod'
p2942
tp2943
Rp2944
sg1194
g3
(g4
(S'S7'
p2945
I0
I1
tp2946
Rp2947
(I3
S'|'
p2948
NNNI7
I1
I0
tp2949
bS'T_1,err'
p2950
tp2951
Rp2952
ssS'Fields'
p2953
(lp2954
g45
ag1129
ag142
ag1097
ag363
ag388
ag109
ag1016
ag910
ag966
ag918
ag77
ag934
ag1194
ag886
ag151
ag1162
ag1121
ag894
ag1178
ag1041
ag926
ag167
ag20
ag101
ag1113
ag85
ag159
ag53
ag991
ag372
ag61
ag380
ag37
ag1081
ag1065
ag950
ag69
ag355
ag999
ag1154
ag1073
ag958
ag1057
ag118
ag12
ag1033
ag1170
ag1138
ag942
ag1146
ag93
ag1089
ag29
ag1049
ag974
ag1186
ag1105
ag1025
ag134
ag982
ag1007
ag902
asS'PlanetFieldsType'
p2955
(dp2956
g179
g3
(g4
(S'S3'
p2957
I0
I1
tp2958
Rp2959
(I3
S'|'
p2960
NNNI3
I1
I0
tp2961
bS'str'
p2962
tp2963
Rp2964
sg188
g3
(g4
(S'S5'
p2965
I0
I1
tp2966
Rp2967
(I3
S'|'
p2968
NNNI5
I1
I0
tp2969
bS'float'
p2970
tp2971
Rp2972
sg196
g3
(g4
(S'S5'
p2973
I0
I1
tp2974
Rp2975
(I3
S'|'
p2976
NNNI5
I1
I0
tp2977
bS'float'
p2978
tp2979
Rp2980
sg204
g3
(g4
(S'S3'
p2981
I0
I1
tp2982
Rp2983
(I3
S'|'
p2984
NNNI3
I1
I0
tp2985
bS'str'
p2986
tp2987
Rp2988
sg213
g3
(g4
(S'S5'
p2989
I0
I1
tp2990
Rp2991
(I3
S'|'
p2992
NNNI5
I1
I0
tp2993
bS'float'
p2994
tp2995
Rp2996
sg221
g3
(g4
(S'S3'
p2997
I0
I1
tp2998
Rp2999
(I3
S'|'
p3000
NNNI3
I1
I0
tp3001
bS'str'
p3002
tp3003
Rp3004
sg230
g3
(g4
(S'S3'
p3005
I0
I1
tp3006
Rp3007
(I3
S'|'
p3008
NNNI3
I1
I0
tp3009
bS'str'
p3010
tp3011
Rp3012
sg239
g3
(g4
(S'S5'
p3013
I0
I1
tp3014
Rp3015
(I3
S'|'
p3016
NNNI5
I1
I0
tp3017
bS'float'
p3018
tp3019
Rp3020
sg247
g3
(g4
(S'S3'
p3021
I0
I1
tp3022
Rp3023
(I3
S'|'
p3024
NNNI3
I1
I0
tp3025
bS'str'
p3026
tp3027
Rp3028
sg256
g3
(g4
(S'S5'
p3029
I0
I1
tp3030
Rp3031
(I3
S'|'
p3032
NNNI5
I1
I0
tp3033
bS'float'
p3034
tp3035
Rp3036
sg264
g3
(g4
(S'S5'
p3037
I0
I1
tp3038
Rp3039
(I3
S'|'
p3040
NNNI5
I1
I0
tp3041
bS'float'
p3042
tp3043
Rp3044
sg272
g3
(g4
(S'S3'
p3045
I0
I1
tp3046
Rp3047
(I3
S'|'
p3048
NNNI3
I1
I0
tp3049
bS'str'
p3050
tp3051
Rp3052
sg281
g3
(g4
(S'S5'
p3053
I0
I1
tp3054
Rp3055
(I3
S'|'
p3056
NNNI5
I1
I0
tp3057
bS'float'
p3058
tp3059
Rp3060
sg289
g3
(g4
(S'S5'
p3061
I0
I1
tp3062
Rp3063
(I3
S'|'
p3064
NNNI5
I1
I0
tp3065
bS'float'
p3066
tp3067
Rp3068
sg297
g3
(g4
(S'S5'
p3069
I0
I1
tp3070
Rp3071
(I3
S'|'
p3072
NNNI5
I1
I0
tp3073
bS'float'
p3074
tp3075
Rp3076
sg305
g3
(g4
(S'S5'
p3077
I0
I1
tp3078
Rp3079
(I3
S'|'
p3080
NNNI5
I1
I0
tp3081
bS'float'
p3082
tp3083
Rp3084
sg313
g3
(g4
(S'S5'
p3085
I0
I1
tp3086
Rp3087
(I3
S'|'
p3088
NNNI5
I1
I0
tp3089
bS'float'
p3090
tp3091
Rp3092
sg321
g3
(g4
(S'S5'
p3093
I0
I1
tp3094
Rp3095
(I3
S'|'
p3096
NNNI5
I1
I0
tp3097
bS'float'
p3098
tp3099
Rp3100
sg329
g3
(g4
(S'S3'
p3101
I0
I1
tp3102
Rp3103
(I3
S'|'
p3104
NNNI3
I1
I0
tp3105
bS'str'
p3106
tp3107
Rp3108
sg338
g3
(g4
(S'S3'
p3109
I0
I1
tp3110
Rp3111
(I3
S'|'
p3112
NNNI3
I1
I0
tp3113
bS'str'
p3114
tp3115
Rp3116
sg347
g3
(g4
(S'S5'
p3117
I0
I1
tp3118
Rp3119
(I3
S'|'
p3120
NNNI5
I1
I0
tp3121
bS'float'
p3122
tp3123
Rp3124
ssS'BHMCatS0025P'
p3125
(dp3126
g12
F-1.0
sg20
S'HP Dra B'
p3127
sg29
F-1.0
sg37
F0.01
sg45
I25
sg53
F5895.0
sg61
F0.011
sg69
F-1.0
sg77
F0.012
sg85
F1.052
sg93
F-1.0
sg101
F1.094
sg109
S'HP Dra'
p3128
sg118
F-1.0
sg134
F51.308274999999995
sg142
g1199
sg151
F0.01
sg159
F0.01
sg167
S'F9V'
p3129
sg169
(lp3130
(dp3131
g179
S'BHMCatP0026'
p3132
sg188
F0.0
sg196
F0.0
sg204
S'BHMCatS0025P'
p3133
sg213
F0.0
sg221
S'26'
p3134
sg230
g231
sg239
F1.000001
sg247
S'0026'
p3135
sg256
F0.0
sg264
F0.0
sg272
S'HP Dra'
p3136
sg281
F1.000001
sg289
F0.0
sg297
F1.0
sg305
F0.0
sg313
F0.0
sg321
F1.0
sg329
S'HP Drah'
p3137
sg338
g339
sg347
F0.0
sasg355
S'F9V'
p3138
sg363
S'EkCat'
p3139
sg372
F4.433
sg380
F4.43
sg388
S'176'
p3140
sg390
(dp3141
S'BHMCatP0026'
p3142
(dp3143
g401
F3.0
sg409
F0.0
sg417
F0.0
sg425
F0.0
sg433
F1.0
sg441
F0.0
sg449
F11.3
sg457
S"'early mars'"
p3144
sg466
F4.5
sg474
F1.5
sg482
F1.000001
sg490
F0.01
sg498
F1.0
sg506
F1.0
sg514
F0.0
sg522
S'Chaboyer'
p3145
sg531
F10.0
sg539
F0.95
sg547
F0.275556
sg555
F0.95
sg563
F1.000001
sg571
F4.7e+40
sg579
F4.7e+40
sg587
F1.5
sg595
F44.0
sg603
F0.0
sg611
F0.275556
sg619
F5.0
sg627
F1.0
sg635
S'Chaboyer'
p3146
sg644
F0.0
sg652
F0.3
sg660
S"'maximum greenhouse'"
p3147
sg669
F0.3
sg677
F1.0
sg685
S"'Saturn'"
p3148
sg694
F0.01
sg702
F10.0
sg710
F1.0
sg718
F2.0
sg726
F3.0
sg734
S'PARSEC'
p3149
sg743
S'PARSEC'
p3150
sg752
F4.7e+40
sg760
F4.7e+40
sg768
S'BHMCatP0026'
p3151
sg777
F0.1
sg785
S'BHMCatS0025P'
p3152
sg794
S'HP Drah'
p3153
sg803
F3.0
sg811
S'HP Dra'
p3154
sg820
S"'recent venus'"
p3155
sg829
S"'runaway greenhouse'"
p3156
sg838
F11.3
sg846
F0.0
sg854
F1.0
sg862
F5.0
sg870
F0.01
sg878
F0.3
sssg886
F4.218
sg894
g3
(g121
S'V\x1a\x88\xcd\x86k0@'
p3157
tp3158
Rp3159
sg902
S'2010AJ....140..129M;'
p3160
sg910
F1.133
sg918
F1.371
sg926
F-1.0
sg934
F6000.0
sg942
F87.82
sg950
F-1.0
sg958
F0.037
sg966
F0.005
sg974
F3.0
sg982
S'BHMCatP0026;'
p3161
sg991
F150.0
sg999
F0.965578111209179
sg1007
S'DEBCat'
p3162
sg1016
S'HP Dra A'
p3163
sg1025
F18.914855555555555
sg1033
F-1.0
sg1041
F-1.0
sg1049
F77.0
sg1057
F-1.0
sg1065
g3
(g121
S'\xb3\t\xa1\x87D\xbe\x9b?'
p3164
tp3165
Rp3166
sg1073
F0.124699212433155
sg1081
g3
(g121
S'\xe4\xd5YK \x01(@'
p3167
tp3168
Rp3169
sg1089
F7.951
sg1097
g3125
sg1105
F-1.0
sg1113
F0.007
sg1121
F0.01
sg1129
S'0025'
p3170
sg1138
F-1.0
sg1146
F-1.0
sg1154
F10.76152
sg1162
F4.22
sg1170
F-1.0
sg1178
g3
(g121
S'kJ\x8ff\x03\xec\xa3?'
p3171
tp3172
Rp3173
sg1186
F-1.0
sg1194
F150.0
ssS'BHMCatS0019P'
p3174
(dp3175
g12
F-1.0
sg20
S'V565 Lyr B'
p3176
sg29
F-1.0
sg37
F1.0
sg45
I19
sg53
F5430.0
sg61
F0.008
sg69
F-1.0
sg77
F0.007
sg85
F0.971
sg93
F-1.0
sg101
F0.929
sg109
S'V565 Lyr'
p3177
sg118
F-1.0
sg134
F37.76925
sg142
g1199
sg151
F0.0053
sg159
F0.009
sg167
S'G type'
p3178
sg169
(lp3179
(dp3180
g179
S'BHMCatP0020'
p3181
sg188
F0.0
sg196
F0.0
sg204
S'BHMCatS0019P'
p3182
sg213
F0.0
sg221
S'20'
p3183
sg230
g231
sg239
F1.000001
sg247
S'0020'
p3184
sg256
F0.0
sg264
F0.0
sg272
S'V565 Lyr'
p3185
sg281
F1.000001
sg289
F0.0
sg297
F1.0
sg305
F0.0
sg313
F0.0
sg321
F1.0
sg329
S'V565 Lyrh'
p3186
sg338
g339
sg347
F0.0
sasg355
S'G type'
p3187
sg363
S'EkCat'
p3188
sg372
F4.4319
sg380
F3.5
sg388
S'187'
p3189
sg390
(dp3190
S'BHMCatP0020'
p3191
(dp3192
g401
F3.0
sg409
F0.0
sg417
F0.0
sg425
F0.0
sg433
F1.0
sg441
F0.0
sg449
F11.3
sg457
S"'early mars'"
p3193
sg466
F4.5
sg474
F1.5
sg482
F1.000001
sg490
F0.01
sg498
F1.0
sg506
F1.0
sg514
F0.0
sg522
S'Chaboyer'
p3194
sg531
F10.0
sg539
F0.95
sg547
F0.275556
sg555
F0.95
sg563
F1.000001
sg571
F4.7e+40
sg579
F4.7e+40
sg587
F1.5
sg595
F44.0
sg603
F0.0
sg611
F0.275556
sg619
F5.0
sg627
F1.0
sg635
S'Chaboyer'
p3195
sg644
F0.0
sg652
F0.3
sg660
S"'maximum greenhouse'"
p3196
sg669
F0.3
sg677
F1.0
sg685
S"'Saturn'"
p3197
sg694
F0.01
sg702
F10.0
sg710
F1.0
sg718
F2.0
sg726
F3.0
sg734
S'PARSEC'
p3198
sg743
S'PARSEC'
p3199
sg752
F4.7e+40
sg760
F4.7e+40
sg768
S'BHMCatP0020'
p3200
sg777
F0.1
sg785
S'BHMCatS0019P'
p3201
sg794
S'V565 Lyrh'
p3202
sg803
F3.0
sg811
S'V565 Lyr'
p3203
sg820
S"'recent venus'"
p3204
sg829
S"'runaway greenhouse'"
p3205
sg838
F11.3
sg846
F0.0
sg854
F1.0
sg862
F5.0
sg870
F0.01
sg878
F0.3
sssg886
F4.3524
sg894
g3
(g121
S'@\x96\x81(w\xd7+@'
p3206
tp3207
Rp3208
sg902
S'2011A&A...525A...2B;'
p3209
sg910
F0.996
sg918
F1.101
sg926
F-1.0
sg934
F5600.0
sg942
F89.38
sg950
F-1.0
sg958
F0.02
sg966
F0.003
sg974
F250.0
sg982
S'BHMCatP0020;'
p3210
sg991
F125.0
sg999
F0.932730923694779
sg1007
S'DEBCat'
p3211
sg1016
S'V565 Lyr A'
p3212
sg1025
F19.34697222222222
sg1033
F-1.0
sg1041
F-1.0
sg1049
F4010.0
sg1057
F-1.0
sg1065
g3
(g121
S'\x9fL\xbd\xcc\x12\t\x10@'
p3213
tp3214
Rp3215
sg1073
F0.172270169919786
sg1081
g3
(g121
S'\x16FK\xe6\xe0\x0f,@'
p3216
tp3217
Rp3218
sg1089
F17.73
sg1097
g3174
sg1105
F-1.0
sg1113
F0.003
sg1121
F1.0
sg1129
S'0019'
p3219
sg1138
F-1.0
sg1146
F-1.0
sg1154
F18.798638
sg1162
F4.0
sg1170
F-1.0
sg1178
g3
(g121
S'@\x96\x81(w\xd7\x0b@'
p3220
tp3221
Rp3222
sg1186
F-1.0
sg1194
F95.0
ssS'BHMCatS0031P'
p3223
(dp3224
g12
F-1.0
sg20
S'M4-V66 B'
p3225
sg29
F-1.0
sg37
F-1.0
sg45
I31
sg53
F5938.0
sg61
F0.085
sg69
F-1.0
sg77
F0.005
sg85
F0.83
sg93
F-1.0
sg101
F0.744
sg109
S'M4-V66'
p3226
sg118
F-1.0
sg134
F-25.471861111111114
sg142
g1199
sg151
F0.077
sg159
F0.005
sg167
S'F type'
p3227
sg169
(lp3228
(dp3229
g179
S'BHMCatP0032'
p3230
sg188
F0.0
sg196
F0.0
sg204
S'BHMCatS0031P'
p3231
sg213
F0.0
sg221
S'32'
p3232
sg230
g231
sg239
F1.000001
sg247
S'0032'
p3233
sg256
F0.0
sg264
F0.0
sg272
S'M4-V66'
p3234
sg281
F1.000001
sg289
F0.0
sg297
F1.0
sg305
F0.0
sg313
F0.0
sg321
F1.0
sg329
S'M4-V66h'
p3235
sg338
g339
sg347
F0.0
sasg355
S'G type'
p3236
sg363
S'EkCat'
p3237
sg372
F4.469
sg380
F-1.0
sg388
S'140'
p3238
sg390
(dp3239
S'BHMCatP0032'
p3240
(dp3241
g401
F3.0
sg409
F0.0
sg417
F0.0
sg425
F0.0
sg433
F1.0
sg441
F0.0
sg449
F11.3
sg457
S"'early mars'"
p3242
sg466
F4.5
sg474
F1.5
sg482
F1.000001
sg490
F0.01
sg498
F1.0
sg506
F1.0
sg514
F0.0
sg522
S'Chaboyer'
p3243
sg531
F10.0
sg539
F0.95
sg547
F0.275556
sg555
F0.95
sg563
F1.000001
sg571
F4.7e+40
sg579
F4.7e+40
sg587
F1.5
sg595
F44.0
sg603
F0.0
sg611
F0.275556
sg619
F5.0
sg627
F1.0
sg635
S'Chaboyer'
p3244
sg644
F0.0
sg652
F0.3
sg660
S"'maximum greenhouse'"
p3245
sg669
F0.3
sg677
F1.0
sg685
S"'Saturn'"
p3246
sg694
F0.01
sg702
F10.0
sg710
F1.0
sg718
F2.0
sg726
F3.0
sg734
S'PARSEC'
p3247
sg743
S'PARSEC'
p3248
sg752
F4.7e+40
sg760
F4.7e+40
sg768
S'BHMCatP0032'
p3249
sg777
F0.1
sg785
S'BHMCatS0031P'
p3250
sg794
S'M4-V66h'
p3251
sg803
F3.0
sg811
S'M4-V66'
p3252
sg820
S"'recent venus'"
p3253
sg829
S"'runaway greenhouse'"
p3254
sg838
F11.3
sg846
F0.0
sg854
F1.0
sg862
F5.0
sg870
F0.01
sg878
F0.3
sssg886
F4.388
sg894
F-1.0
sg902
S'2013AJ....145...43K;'
p3255
sg910
F0.784
sg918
F0.934
sg926
F-1.0
sg934
F6162.0
sg942
F89.44
sg950
F-1.0
sg958
F0.0
sg966
F0.004
sg974
F30.0
sg982
S'BHMCatP0032;'
p3256
sg991
F105.0
sg999
F0.948979591836735
sg1007
g1008
sg1016
S'M4-V66 A'
p3257
sg1025
F16.392286111111112
sg1033
F-1.0
sg1041
F-1.0
sg1049
F1850.0
sg1057
F-1.0
sg1065
F-1.0
sg1073
F0.0910457855614973
sg1081
F-1.0
sg1089
F16.84
sg1097
g3223
sg1105
F-1.0
sg1113
F0.004
sg1121
F-1.0
sg1129
S'0031'
p3258
sg1138
F-1.0
sg1146
F-1.0
sg1154
F8.11130346
sg1162
F-1.0
sg1170
F-1.0
sg1178
F-1.0
sg1186
F-1.0
sg1194
F98.0
ssS'BHMCatS0009P'
p3259
(dp3260
g12
F-1.0
sg20
S'KX Cnc B'
p3261
sg29
F0.56
sg37
F-1.0
sg45
I9
sg53
F5847.0
sg61
F-1.0
sg69
F-1.0
sg77
F0.002
sg85
F1.049
sg93
F-1.0
sg101
F1.131
sg109
S'KX Cnc'
p3262
sg118
F-1.0
sg134
F31.86138888888889
sg142
g1199
sg151
F-1.0
sg159
F0.002
sg167
S'G0V'
p3263
sg169
(lp3264
(dp3265
g179
S'BHMCatP0010'
p3266
sg188
F0.0
sg196
F0.0
sg204
S'BHMCatS0009P'
p3267
sg213
F0.0
sg221
S'10'
p3268
sg230
g231
sg239
F1.000001
sg247
S'0010'
p3269
sg256
F0.0
sg264
F0.0
sg272
S'KX Cnc'
p3270
sg281
F1.000001
sg289
F0.0
sg297
F1.0
sg305
F0.0
sg313
F0.0
sg321
F1.0
sg329
S'KX Cnch'
p3271
sg338
g339
sg347
F0.0
sasg355
S'G0V'
p3272
sg363
S'DEBCat'
p3273
sg372
F-1.0
sg380
F-1.0
sg388
S'39'
p3274
sg390
(dp3275
S'BHMCatP0010'
p3276
(dp3277
g401
F3.0
sg409
F0.0
sg417
F0.0
sg425
F0.0
sg433
F1.0
sg441
F0.0
sg449
F11.3
sg457
S"'early mars'"
p3278
sg466
F4.5
sg474
F1.5
sg482
F1.000001
sg490
F0.01
sg498
F1.0
sg506
F1.0
sg514
F0.0
sg522
S'Chaboyer'
p3279
sg531
F10.0
sg539
F0.95
sg547
F0.275556
sg555
F0.95
sg563
F1.000001
sg571
F4.7e+40
sg579
F4.7e+40
sg587
F1.5
sg595
F44.0
sg603
F0.0
sg611
F0.275556
sg619
F5.0
sg627
F1.0
sg635
S'Chaboyer'
p3280
sg644
F0.0
sg652
F0.3
sg660
S"'maximum greenhouse'"
p3281
sg669
F0.3
sg677
F1.0
sg685
S"'Saturn'"
p3282
sg694
F0.01
sg702
F10.0
sg710
F1.0
sg718
F2.0
sg726
F3.0
sg734
S'PARSEC'
p3283
sg743
S'PARSEC'
p3284
sg752
F4.7e+40
sg760
F4.7e+40
sg768
S'BHMCatP0010'
p3285
sg777
F0.1
sg785
S'BHMCatS0009P'
p3286
sg794
S'KX Cnch'
p3287
sg803
F3.0
sg811
S'KX Cnc'
p3288
sg820
S"'recent venus'"
p3289
sg829
S"'runaway greenhouse'"
p3290
sg838
F11.3
sg846
F0.0
sg854
F1.0
sg862
F5.0
sg870
F0.01
sg878
F0.3
sssg886
F-1.0
sg894
F-1.0
sg902
S'2006PZP.....6...14D;'
p3291
sg910
F1.138
sg918
F1.064
sg926
F-1.0
sg934
F5902.0
sg942
F-1.0
sg950
F-1.0
sg958
F0.4666
sg966
F0.003
sg974
F-1.0
sg982
S'BHMCatP0010;'
p3292
sg991
F-1.0
sg999
F0.993848857644991
sg1007
g1008
sg1016
S'KX Cnc A'
p3293
sg1025
F8.71275
sg1033
F-1.0
sg1041
F-1.0
sg1049
F-1.0
sg1057
F-1.0
sg1065
F-1.0
sg1073
F0.2553
sg1081
F-1.0
sg1089
F7.19
sg1097
g3259
sg1105
F-1.0
sg1113
F0.003
sg1121
F-1.0
sg1129
S'0009'
p3294
sg1138
F-1.0
sg1146
F-1.0
sg1154
F31.22
sg1162
F-1.0
sg1170
F-1.0
sg1178
F-1.0
sg1186
g3
(g121
S'\x91\xac\xf7z\xc5DF@'
p3295
tp3296
Rp3297
sg1194
F-1.0
ssS'BHMCatS0021P'
p3298
(dp3299
g12
F-1.0
sg20
S'KIC 6131659 B'
p3300
sg29
F-1.0
sg37
F-1.0
sg45
I21
sg53
F4780.0
sg61
F0.009
sg69
F-1.0
sg77
F0.003
sg85
F0.64
sg93
F-1.0
sg101
F0.685
sg109
S'KIC 6131659'
p3301
sg118
F-1.0
sg134
F41.436905555555555
sg142
g1199
sg151
F0.004
sg159
F0.006
sg167
S'G5V'
p3302
sg169
(lp3303
(dp3304
g179
S'BHMCatP0022'
p3305
sg188
F0.0
sg196
F0.0
sg204
S'BHMCatS0021P'
p3306
sg213
F0.0
sg221
S'22'
p3307
sg230
g231
sg239
F1.000001
sg247
S'0022'
p3308
sg256
F0.0
sg264
F0.0
sg272
S'KIC 6131659'
p3309
sg281
F1.000001
sg289
F0.0
sg297
F1.0
sg305
F0.0
sg313
F0.0
sg321
F1.0
sg329
S'KIC 6131659h'
p3310
sg338
g339
sg347
F0.0
sasg355
g168
sg363
S'EkCat'
p3311
sg372
F4.66185785287664
sg380
F-1.0
sg388
S'198'
p3312
sg390
(dp3313
S'BHMCatP0022'
p3314
(dp3315
g401
F3.0
sg409
F0.0
sg417
F0.0
sg425
F0.0
sg433
F1.0
sg441
F0.0
sg449
F11.3
sg457
S"'early mars'"
p3316
sg466
F4.5
sg474
F1.5
sg482
F1.000001
sg490
F0.01
sg498
F1.0
sg506
F1.0
sg514
F0.0
sg522
S'Chaboyer'
p3317
sg531
F10.0
sg539
F0.95
sg547
F0.275556
sg555
F0.95
sg563
F1.000001
sg571
F4.7e+40
sg579
F4.7e+40
sg587
F1.5
sg595
F44.0
sg603
F0.0
sg611
F0.275556
sg619
F5.0
sg627
F1.0
sg635
S'Chaboyer'
p3318
sg644
F0.0
sg652
F0.3
sg660
S"'maximum greenhouse'"
p3319
sg669
F0.3
sg677
F1.0
sg685
S"'Saturn'"
p3320
sg694
F0.01
sg702
F10.0
sg710
F1.0
sg718
F2.0
sg726
F3.0
sg734
S'PARSEC'
p3321
sg743
S'PARSEC'
p3322
sg752
F4.7e+40
sg760
F4.7e+40
sg768
S'BHMCatP0022'
p3323
sg777
F0.1
sg785
S'BHMCatS0021P'
p3324
sg794
S'KIC 6131659h'
p3325
sg803
F3.0
sg811
S'KIC 6131659'
p3326
sg820
S"'recent venus'"
p3327
sg829
S"'runaway greenhouse'"
p3328
sg838
F11.3
sg846
F0.0
sg854
F1.0
sg862
F5.0
sg870
F0.01
sg878
F0.3
sssg886
F4.51361395576685
sg894
F-1.0
sg902
S'2008AN....329..835B;'
p3329
sg910
F0.922
sg918
F0.88
sg926
F-1.0
sg934
F5660.0
sg942
F89.19
sg950
F-1.0
sg958
F0.0
sg966
F0.007
sg974
F31.0
sg982
S'BHMCatP0022;'
p3330
sg991
F105.0
sg999
F0.74295010845987
sg1007
S'DEBCat'
p3331
sg1016
S'KIC 6131659 A'
p3332
sg1025
F19.618605555555558
sg1033
F-1.0
sg1041
F-1.0
sg1049
F322.0
sg1057
F-1.0
sg1065
F-1.0
sg1073
F0.154768526069519
sg1081
F-1.0
sg1089
F17.85
sg1097
g3298
sg1105
F-1.0
sg1113
F0.005
sg1121
F-1.0
sg1129
S'0021'
p3333
sg1138
F-1.0
sg1146
F-1.0
sg1154
F17.52782716
sg1162
F-1.0
sg1170
F-1.0
sg1178
F-1.0
sg1186
F-1.0
sg1194
F140.0
ssS'BHMCatS1012V'
p3334
(dp3335
g12
F0.0
sg20
S'NICHE-012 B'
p3336
sg29
F-2.0
sg37
F-2.0
sg45
I1012
sg53
F-2.0
sg61
F-2.0
sg69
F-2.0
sg77
F0.0
sg85
F-2.0
sg93
F-2.0
sg101
F0.55
sg109
S'NICHE-012'
p3337
sg118
g3
(g121
S'0\xa8\x1bgj\x94\x8f?'
p3338
tp3339
Rp3340
sg134
F-2.0
sg142
g143
sg151
F-2.0
sg159
F0.0
sg167
g168
sg169
(lp3341
(dp3342
g179
S'BHMCatPV1012'
p3343
sg188
F0.0
sg196
F0.0
sg204
S'BHMCatS1012V'
p3344
sg213
F0.0
sg221
S'1012'
p3345
sg230
g231
sg239
F1.000001
sg247
S'1012'
p3346
sg256
F0.0
sg264
F0.0
sg272
S'NICHE-012'
p3347
sg281
F1.000001
sg289
F0.0
sg297
F1.0
sg305
F0.0
sg313
F0.0
sg321
F1.0
sg329
S'NICHE-012h'
p3348
sg338
g339
sg347
F0.0
sasg355
g168
sg363
S'NICHE'
p3349
sg372
F-2.0
sg380
F-2.0
sg388
S'12'
p3350
sg390
(dp3351
S'BHMCatPV1012'
p3352
(dp3353
g401
F3.0
sg409
F0.0
sg417
F0.0
sg425
F0.0
sg433
F1.0
sg441
F0.0
sg449
F11.3
sg457
S"'early mars'"
p3354
sg466
F4.5
sg474
F1.5
sg482
F1.000001
sg490
F0.01
sg498
F1.0
sg506
F1.0
sg514
F0.0
sg522
S'Chaboyer'
p3355
sg531
F10.0
sg539
F0.95
sg547
F0.275556
sg555
F0.95
sg563
F1.000001
sg571
F4.7e+40
sg579
F4.7e+40
sg587
F1.5
sg595
F44.0
sg603
F0.0
sg611
F0.275556
sg619
F5.0
sg627
F1.0
sg635
S'Chaboyer'
p3356
sg644
F0.0
sg652
F0.3
sg660
S"'maximum greenhouse'"
p3357
sg669
F0.3
sg677
F1.0
sg685
S"'Earth'"
p3358
sg694
F0.01
sg702
F10.0
sg710
F1.0
sg718
F2.0
sg726
F3.0
sg734
S'PARSEC'
p3359
sg743
S'PARSEC'
p3360
sg752
F4.7e+40
sg760
F4.7e+40
sg768
S'BHMCatPV1012'
p3361
sg777
F0.1
sg785
S'BHMCatS1012V'
p3362
sg794
S'NICHE-012h'
p3363
sg803
F3.0
sg811
S'NICHE-012'
p3364
sg820
S"'recent venus'"
p3365
sg829
S"'runaway greenhouse'"
p3366
sg838
F11.3
sg846
F0.0
sg854
F1.0
sg862
F5.0
sg870
F0.01
sg878
F0.3
sssg886
F-2.0
sg894
F-1.0
sg902
g168
sg910
F0.55
sg918
F-2.0
sg926
F-2.0
sg934
F-2.0
sg942
F-2.0
sg950
F-2.0
sg958
F0.3
sg966
F0.0
sg974
F-1.0
sg982
S'BHMCatPV1012;'
p3367
sg991
F-2.0
sg999
F1.0
sg1007
g1008
sg1016
S'NICHE-012 A'
p3368
sg1025
F-2.0
sg1033
F-1.0
sg1041
F-2.0
sg1049
F-1.0
sg1057
F-1.0
sg1065
F-1.0
sg1073
F0.148852937346155
sg1081
F-1.0
sg1089
F-2.0
sg1097
g3334
sg1105
F-2.0
sg1113
F0.0
sg1121
F-2.0
sg1129
S'1012'
p3369
sg1138
F-1.0
sg1146
F-2.0
sg1154
F20.0
sg1162
F-2.0
sg1170
F-1.0
sg1178
F-1.0
sg1186
F-1.0
sg1194
F-2.0
ssS'PlanetFieldsText'
p3370
(dp3371
g179
g3
(g4
(S'S12'
p3372
I0
I1
tp3373
Rp3374
(I3
S'|'
p3375
NNNI12
I1
I0
tp3376
bS'Plan.Cat.Id.'
p3377
tp3378
Rp3379
sg188
g3
(g4
(S'S7'
p3380
I0
I1
tp3381
Rp3382
(I3
S'|'
p3383
NNNI7
I1
I0
tp3384
bS'M_p,err'
p3385
tp3386
Rp3387
sg196
g3
(g4
(S'S5'
p3388
I0
I1
tp3389
Rp3390
(I3
S'|'
p3391
NNNI5
I1
I0
tp3392
bS'e_orb'
p3393
tp3394
Rp3395
sg204
g3
(g4
(S'S11'
p3396
I0
I1
tp3397
Rp3398
(I3
S'|'
p3399
NNNI11
I1
I0
tp3400
bS'Sys.Cat.Id.'
p3401
tp3402
Rp3403
sg213
g3
(g4
(S'S9'
p3404
I0
I1
tp3405
Rp3406
(I3
S'|'
p3407
NNNI9
I1
I0
tp3408
bS'e_orb,err'
p3409
tp3410
Rp3411
sg221
g3
(g4
(S'S3'
p3412
I0
I1
tp3413
Rp3414
(I3
S'|'
p3415
NNNI3
I1
I0
tp3416
bS'No.'
p3417
tp3418
Rp3419
sg230
g3
(g4
(S'S8'
p3420
I0
I1
tp3421
Rp3422
(I3
S'|'
p3423
NNNI8
I1
I0
tp3424
bS'ADS Link'
p3425
tp3426
Rp3427
sg239
g3
(g4
(S'S3'
p3428
I0
I1
tp3429
Rp3430
(I3
S'|'
p3431
NNNI3
I1
I0
tp3432
bS'R_p'
p3433
tp3434
Rp3435
sg247
g3
(g4
(S'S3'
p3436
I0
I1
tp3437
Rp3438
(I3
S'|'
p3439
NNNI3
I1
I0
tp3440
bS'No.'
p3441
tp3442
Rp3443
sg256
g3
(g4
(S'S5'
p3444
I0
I1
tp3445
Rp3446
(I3
S'|'
p3447
NNNI5
I1
I0
tp3448
bS'P_orb'
p3449
tp3450
Rp3451
sg264
g3
(g4
(S'S9'
p3452
I0
I1
tp3453
Rp3454
(I3
S'|'
p3455
NNNI9
I1
I0
tp3456
bS'a_orb,err'
p3457
tp3458
Rp3459
sg272
g3
(g4
(S'S10'
p3460
I0
I1
tp3461
Rp3462
(I3
S'|'
p3463
NNNI10
I1
I0
tp3464
bS'System Id.'
p3465
tp3466
Rp3467
sg281
g3
(g4
(S'S3'
p3468
I0
I1
tp3469
Rp3470
(I3
S'|'
p3471
NNNI3
I1
I0
tp3472
bS'M_p'
p3473
tp3474
Rp3475
sg289
g3
(g4
(S'S10'
p3476
I0
I1
tp3477
Rp3478
(I3
S'|'
p3479
NNNI10
I1
I0
tp3480
bS'\\omega_orb'
p3481
tp3482
Rp3483
sg297
g3
(g4
(S'S5'
p3484
I0
I1
tp3485
Rp3486
(I3
S'|'
p3487
NNNI5
I1
I0
tp3488
bS'a_orb'
p3489
tp3490
Rp3491
sg305
g3
(g4
(S'S9'
p3492
I0
I1
tp3493
Rp3494
(I3
S'|'
p3495
NNNI9
I1
I0
tp3496
bS'P_orb,err'
p3497
tp3498
Rp3499
sg313
g3
(g4
(S'S14'
p3500
I0
I1
tp3501
Rp3502
(I3
S'|'
p3503
NNNI14
I1
I0
tp3504
bS'\\omega_orb,err'
p3505
tp3506
Rp3507
sg321
g3
(g4
(S'S5'
p3508
I0
I1
tp3509
Rp3510
(I3
S'|'
p3511
NNNI5
I1
I0
tp3512
bS'M_orb'
p3513
tp3514
Rp3515
sg329
g3
(g4
(S'S10'
p3516
I0
I1
tp3517
Rp3518
(I3
S'|'
p3519
NNNI10
I1
I0
tp3520
bS'Planet Id.'
p3521
tp3522
Rp3523
sg338
g3
(g4
(S'S4'
p3524
I0
I1
tp3525
Rp3526
(I3
S'|'
p3527
NNNI4
I1
I0
tp3528
bS'Type'
p3529
tp3530
Rp3531
sg347
g3
(g4
(S'S7'
p3532
I0
I1
tp3533
Rp3534
(I3
S'|'
p3535
NNNI7
I1
I0
tp3536
bS'R_p,err'
p3537
tp3538
Rp3539
ssS'BHMCatS0020P'
p3540
(dp3541
g12
F-1.0
sg20
S'LV Her B'
p3542
sg29
F-1.0
sg37
F1.0
sg45
I20
sg53
F6030.0
sg61
F0.008
sg69
F-1.0
sg77
F0.012
sg85
F1.313
sg93
F-1.0
sg101
F1.17
sg109
S'LV Her'
p3543
sg118
F-1.0
sg134
F23.17516666666667
sg142
g1199
sg151
F0.008
sg159
F0.011
sg167
S'F9V'
p3544
sg169
(lp3545
(dp3546
g179
S'BHMCatP0021'
p3547
sg188
F0.0
sg196
F0.0
sg204
S'BHMCatS0020P'
p3548
sg213
F0.0
sg221
S'21'
p3549
sg230
g231
sg239
F1.000001
sg247
S'0021'
p3550
sg256
F0.0
sg264
F0.0
sg272
S'LV Her'
p3551
sg281
F1.000001
sg289
F0.0
sg297
F1.0
sg305
F0.0
sg313
F0.0
sg321
F1.0
sg329
S'LV Herh'
p3552
sg338
g339
sg347
F0.0
sasg355
S'F9V'
p3553
sg363
S'EkCat'
p3554
sg372
F4.27
sg380
F13.0
sg388
S'154'
p3555
sg390
(dp3556
S'BHMCatP0021'
p3557
(dp3558
g401
F3.0
sg409
F0.0
sg417
F0.0
sg425
F0.0
sg433
F1.0
sg441
F0.0
sg449
F11.3
sg457
S"'early mars'"
p3559
sg466
F4.5
sg474
F1.5
sg482
F1.000001
sg490
F0.01
sg498
F1.0
sg506
F1.0
sg514
F0.0
sg522
S'Chaboyer'
p3560
sg531
F10.0
sg539
F0.95
sg547
F0.275556
sg555
F0.95
sg563
F1.000001
sg571
F4.7e+40
sg579
F4.7e+40
sg587
F1.5
sg595
F44.0
sg603
F0.0
sg611
F0.275556
sg619
F5.0
sg627
F1.0
sg635
S'Chaboyer'
p3561
sg644
F0.0
sg652
F0.3
sg660
S"'maximum greenhouse'"
p3562
sg669
F0.3
sg677
F1.0
sg685
S"'Saturn'"
p3563
sg694
F0.01
sg702
F10.0
sg710
F1.0
sg718
F2.0
sg726
F3.0
sg734
S'PARSEC'
p3564
sg743
S'PARSEC'
p3565
sg752
F4.7e+40
sg760
F4.7e+40
sg768
S'BHMCatP0021'
p3566
sg777
F0.1
sg785
S'BHMCatS0020P'
p3567
sg794
S'LV Herh'
p3568
sg803
F3.0
sg811
S'LV Her'
p3569
sg820
S"'recent venus'"
p3570
sg829
S"'runaway greenhouse'"
p3571
sg838
F11.3
sg846
F0.0
sg854
F1.0
sg862
F5.0
sg870
F0.01
sg878
F0.3
sssg886
F4.249
sg894
g3
(g121
S'\x96L\xb1\x9e\x1c"\x15@'
p3572
tp3573
Rp3574
sg902
S'2009AJ....138.1622T;'
p3575
sg910
F1.193
sg918
F1.358
sg926
F-1.0
sg934
F6060.0
sg942
F89.55
sg950
F-1.0
sg958
F0.613
sg966
F0.01
sg974
F24.0
sg982
S'BHMCatP0021;'
p3576
sg991
F150.0
sg999
F0.980720871751886
sg1007
S'DEBCat'
p3577
sg1016
S'LV Her A'
p3578
sg1025
F17.592333333333332
sg1033
F-1.0
sg1041
F-1.0
sg1049
F352.0
sg1057
F-1.0
sg1065
g3
(g121
S'\x14\ni\x0f\xf4%\xd9?'
p3579
tp3580
Rp3581
sg1073
F0.182091571122995
sg1081
g3
(g121
S'0X\x85L\xd6n\x14@'
p3582
tp3583
Rp3584
sg1089
F10.984
sg1097
g3540
sg1105
F-1.0
sg1113
F0.008
sg1121
F1.0
sg1129
S'0020'
p3585
sg1138
F-1.0
sg1146
F-1.0
sg1154
F18.4359535
sg1162
F13.0
sg1170
F-1.0
sg1178
g3
(g121
S'\xe06\xda`\x99\x02\xda?'
p3586
tp3587
Rp3588
sg1186
F-1.0
sg1194
F150.0
ssS'BHMCatS0022P'
p3589
(dp3590
g12
F-1.0
sg20
S'V568 Lyr  B'
p3591
sg29
F-1.0
sg37
F-1.0
sg45
I22
sg53
F4900.0
sg61
F0.008
sg69
F-1.0
sg77
F0.016
sg85
F0.768
sg93
F-1.0
sg101
F0.827
sg109
S'V568 Lyr'
p3592
sg118
F-1.0
sg134
F37.75963888888889
sg142
g1199
sg151
F0.01
sg159
F0.006
sg167
S'G type'
p3593
sg169
(lp3594
(dp3595
g179
S'BHMCatP0023'
p3596
sg188
F0.0
sg196
F0.0
sg204
S'BHMCatS0022P'
p3597
sg213
F0.0
sg221
S'23'
p3598
sg230
g231
sg239
F1.000001
sg247
S'0023'
p3599
sg256
F0.0
sg264
F0.0
sg272
S'V568 Lyr'
p3600
sg281
F1.000001
sg289
F0.0
sg297
F1.0
sg305
F0.0
sg313
F0.0
sg321
F1.0
sg329
S'V568 Lyr h'
p3601
sg338
g339
sg347
F0.0
sasg355
S'K type'
p3602
sg363
S'EkCat'
p3603
sg372
F4.586
sg380
F-1.0
sg388
S'188'
p3604
sg390
(dp3605
S'BHMCatP0023'
p3606
(dp3607
g401
F3.0
sg409
F0.0
sg417
F0.0
sg425
F0.0
sg433
F1.0
sg441
F0.0
sg449
F11.3
sg457
S"'early mars'"
p3608
sg466
F4.5
sg474
F1.5
sg482
F1.000001
sg490
F0.01
sg498
F1.0
sg506
F1.0
sg514
F0.0
sg522
S'Chaboyer'
p3609
sg531
F10.0
sg539
F0.95
sg547
F0.275556
sg555
F0.95
sg563
F1.000001
sg571
F4.7e+40
sg579
F4.7e+40
sg587
F1.5
sg595
F44.0
sg603
F0.0
sg611
F0.275556
sg619
F5.0
sg627
F1.0
sg635
S'Chaboyer'
p3610
sg644
F0.0
sg652
F0.3
sg660
S"'maximum greenhouse'"
p3611
sg669
F0.3
sg677
F1.0
sg685
S"'Saturn'"
p3612
sg694
F0.01
sg702
F10.0
sg710
F1.0
sg718
F2.0
sg726
F3.0
sg734
S'PARSEC'
p3613
sg743
S'PARSEC'
p3614
sg752
F4.7e+40
sg760
F4.7e+40
sg768
S'BHMCatP0023'
p3615
sg777
F0.1
sg785
S'BHMCatS0022P'
p3616
sg794
S'V568 Lyr h'
p3617
sg803
F3.0
sg811
S'V568 Lyr'
p3618
sg820
S"'recent venus'"
p3619
sg829
S"'runaway greenhouse'"
p3620
sg838
F11.3
sg846
F0.0
sg854
F1.0
sg862
F5.0
sg870
F0.01
sg878
F0.3
sssg886
F4.178
sg894
F-1.0
sg902
S'2008A&A...492..171G;'
p3621
sg910
F1.074
sg918
F1.399
sg926
F-1.0
sg934
F5665.0
sg942
F89.76
sg950
F-1.0
sg958
F0.0
sg966
F0.008
sg974
F187.0
sg982
S'BHMCatP0023;'
p3622
sg991
F100.0
sg999
F0.770018621973929
sg1007
S'DEBCat'
p3623
sg1016
S'V568 Lyr  A'
p3624
sg1025
F19.348416666666665
sg1033
F-1.0
sg1041
F-1.0
sg1049
F3972.0
sg1057
F-1.0
sg1065
F-1.0
sg1073
F0.14406273328877
sg1081
F-1.0
sg1089
F16.91
sg1097
g3589
sg1105
F-1.0
sg1113
F0.004
sg1121
F-1.0
sg1129
S'0022'
p3625
sg1138
F-1.0
sg1146
F-1.0
sg1154
F14.469918
sg1162
F-1.0
sg1170
F-1.0
sg1178
F-1.0
sg1186
F-1.0
sg1194
F100.0
ssS'BHMCatS0032P'
p3626
(dp3627
g12
F-1.0
sg20
S'CD-80 28 B'
p3628
sg29
F-1.0
sg37
F-1.0
sg45
I32
sg53
F-1.0
sg61
F0.1
sg69
F-1.0
sg77
F0.33
sg85
F4.06
sg93
F-1.0
sg101
F1.384
sg109
S'CD-80 28'
p3629
sg118
F-1.0
sg134
F-79.93870555555556
sg142
g1199
sg151
F0.104
sg159
F0.41
sg167
S'K2'
p3630
sg169
(lp3631
(dp3632
g179
S'BHMCatP0033'
p3633
sg188
F0.0
sg196
F0.0
sg204
S'BHMCatS0032P'
p3634
sg213
F0.0
sg221
S'33'
p3635
sg230
g231
sg239
F1.000001
sg247
S'0033'
p3636
sg256
F0.0
sg264
F0.0
sg272
S'CD-80 28'
p3637
sg281
F1.000001
sg289
F0.0
sg297
F1.0
sg305
F0.0
sg313
F0.0
sg321
F1.0
sg329
S'CD-80 28h'
p3638
sg338
g339
sg347
F0.0
sasg355
g168
sg363
S'EkCat'
p3639
sg372
F3.36193240197991
sg380
F-1.0
sg388
g2082
sg390
(dp3640
S'BHMCatP0033'
p3641
(dp3642
g401
F3.0
sg409
F0.0
sg417
F0.0
sg425
F0.0
sg433
F1.0
sg441
F0.0
sg449
F11.3
sg457
S"'early mars'"
p3643
sg466
F4.5
sg474
F1.5
sg482
F1.000001
sg490
F0.01
sg498
F1.0
sg506
F1.0
sg514
F0.0
sg522
S'Chaboyer'
p3644
sg531
F10.0
sg539
F0.95
sg547
F0.275556
sg555
F0.95
sg563
F1.000001
sg571
F4.7e+40
sg579
F4.7e+40
sg587
F1.5
sg595
F44.0
sg603
F0.0
sg611
F0.275556
sg619
F5.0
sg627
F1.0
sg635
S'Chaboyer'
p3645
sg644
F0.0
sg652
F0.3
sg660
S"'maximum greenhouse'"
p3646
sg669
F0.3
sg677
F1.0
sg685
S"'Saturn'"
p3647
sg694
F0.01
sg702
F10.0
sg710
F1.0
sg718
F2.0
sg726
F3.0
sg734
S'PARSEC'
p3648
sg743
S'PARSEC'
p3649
sg752
F4.7e+40
sg760
F4.7e+40
sg768
S'BHMCatP0033'
p3650
sg777
F0.1
sg785
S'BHMCatS0032P'
p3651
sg794
S'CD-80 28h'
p3652
sg803
F3.0
sg811
S'CD-80 28'
p3653
sg820
S"'recent venus'"
p3654
sg829
S"'runaway greenhouse'"
p3655
sg838
F11.3
sg846
F0.0
sg854
F1.0
sg862
F5.0
sg870
F0.01
sg878
F0.3
sssg886
F3.57835330017799
sg894
F-1.0
sg902
S'2008AN....329..835B;'
p3656
sg910
F1.38
sg918
F3.16
sg926
F-1.0
sg934
F-1.0
sg942
F80.4
sg950
F-1.0
sg958
F0.0
sg966
F0.055
sg974
F7.0
sg982
S'BHMCatP0033;'
p3657
sg991
F-1.0
sg999
F1.00289855072464
sg1007
g1008
sg1016
S'CD-80 28 A'
p3658
sg1025
F1.0939444444444444
sg1033
F-1.0
sg1041
F-1.0
sg1049
F71.0
sg1057
F-1.0
sg1065
F-1.0
sg1073
F0.108919804812834
sg1081
F-1.0
sg1089
F10.177
sg1097
g3626
sg1105
F-1.0
sg1113
F0.055
sg1121
F-1.0
sg1129
S'0032'
p3659
sg1138
F-1.0
sg1146
F-1.0
sg1154
F8.069406
sg1162
F-1.0
sg1170
F-1.0
sg1178
F-1.0
sg1186
F-1.0
sg1194
F-1.0
ssS'BHMCatS0004D'
p3660
(dp3661
g12
F-0.11
sg20
S'Kepler-38 B'
p3662
sg29
F0.096
sg37
F-1.0
sg45
I4
sg53
F3325.0
sg61
F-1.0
sg69
F-1.0
sg77
F0.003
sg85
F0.272
sg93
F13.0
sg101
F0.249
sg109
S'Kepler-38'
p3663
sg118
g3
(g121
S'\xf0\xd5|I\xa8\xd3\x88?'
p3664
tp3665
Rp3666
sg134
F42.279205555555556
sg142
g1286
sg151
F0.011
sg159
F0.005
sg167
S'G type'
p3667
sg169
(lp3668
(dp3669
g179
S'BHMCatP0004'
p3670
sg188
F0.0
sg196
F0.032
sg204
S'BHMCatS004D'
p3671
sg213
F-1.0
sg221
g389
sg230
S'2012Sci...337.1511O'
p3672
sg239
F4.3763741955736934
sg247
S'0004'
p3673
sg256
F105.595
sg264
F0.0082
sg272
S'Kepler-38'
p3674
sg281
F120.82984494826027
sg289
F-1.0
sg297
F0.4644
sg305
F0.038
sg313
F0.0
sg321
F1.198
sg329
S'Kepler-38b'
p3675
sg338
g1296
sg347
F0.11221472296342803
sasg355
S'M type'
p3676
sg363
S'KIC'
p3677
sg372
F4.964
sg380
F-1.0
sg388
S'6762829'
p3678
sg390
(dp3679
S'BHMCatP0004'
p3680
(dp3681
g401
F3.0
sg409
F0.0
sg417
F0.0
sg425
F0.0
sg433
F10.0
sg441
F-0.11
sg449
F11.3
sg457
S"'early mars'"
p3682
sg466
F4.5
sg474
F1.5
sg482
F4.37637419557369
sg490
F0.01
sg498
F1.0
sg506
F1.0
sg514
F-0.11
sg522
S'Chaboyer'
p3683
sg531
F10.0
sg539
F0.95
sg547
F0.275556
sg555
F0.95
sg563
F120.82984494826
sg571
F4.7e+40
sg579
F4.7e+40
sg587
F1.5
sg595
F44.0
sg603
F0.0
sg611
F0.275556
sg619
F5.0
sg627
F1.0
sg635
S'Chaboyer'
p3684
sg644
F0.0
sg652
F0.8
sg660
S"'maximum greenhouse'"
p3685
sg669
F0.3
sg677
F1.0
sg685
S"'Saturn'"
p3686
sg694
F0.01
sg702
F10.0
sg710
F10.0
sg718
F2.0
sg726
F3.0
sg734
S'PARSEC'
p3687
sg743
S'PARSEC'
p3688
sg752
F4.7e+40
sg760
F4.7e+40
sg768
S'BHMCatP0004'
p3689
sg777
F0.1
sg785
S'BHMCatS0004D'
p3690
sg794
S'Kepler-38b'
p3691
sg803
F3.0
sg811
S'Kepler-38'
p3692
sg820
S"'recent venus'"
p3693
sg829
S"'runaway greenhouse'"
p3694
sg838
F11.3
sg846
F0.0
sg854
F10.0
sg862
F5.0
sg870
F0.01
sg878
F0.3
sssg886
F4.47
sg894
g3
(g121
S'\xc3W\x8b\x85C\x83B@'
p3695
tp3696
Rp3697
sg902
S'2012ApJ...758...87O;'
p3698
sg910
F0.949
sg918
F1.757
sg926
F-1.0
sg934
F5623.0
sg942
F89.412
sg950
F-1.0
sg958
F0.1032
sg966
F0.055
sg974
F-1.0
sg982
S'BHMCatP0004;'
p3699
sg991
F-1.0
sg999
F0.262381454162276
sg1007
g1008
sg1016
S'Kepler-38 A'
p3700
sg1025
F19.122025
sg1033
F-1.0
sg1041
F-1.0
sg1049
F-1.0
sg1057
F268.68
sg1065
F-1.0
sg1073
F0.1469
sg1081
F-1.0
sg1089
F13.941
sg1097
g3660
sg1105
F-1.0
sg1113
F0.007
sg1121
F0.5
sg1129
S'0004'
p3701
sg1138
F-0.158
sg1146
F7.0
sg1154
F18.795
sg1162
F2.4
sg1170
g3
(g121
S'\x95\x00#\x0cUZ\x86?'
p3702
tp3703
Rp3704
sg1178
g3
(g121
S'\x9b\xe7\x92\xde\xc5\xda\x1e@'
p3705
tp3706
Rp3707
sg1186
g3
(g121
S'\x84pS\xf9Vl\x90@'
p3708
tp3709
Rp3710
sg1194
F50.0
ssS'BHMCatS0010P'
p3711
(dp3712
g12
F-1.0
sg20
S'V54 M55 B'
p3713
sg29
F0.56
sg37
F-1.0
sg45
I10
sg53
F5023.0
sg61
F-1.0
sg69
F-1.0
sg77
F0.009
sg85
F0.528
sg93
F-1.0
sg101
F0.555
sg109
S'V54 M55'
p3714
sg118
F-1.0
sg134
F-1.0
sg142
g1199
sg151
F-1.0
sg159
F0.005
sg167
S'F type'
p3715
sg169
(lp3716
(dp3717
g179
S'BHMCatP0011'
p3718
sg188
F0.0
sg196
F0.0
sg204
S'BHMCatS0010P'
p3719
sg213
F0.0
sg221
S'11'
p3720
sg230
g231
sg239
F1.000001
sg247
S'0011'
p3721
sg256
F0.0
sg264
F0.0
sg272
S'V54 M55'
p3722
sg281
F1.000001
sg289
F0.0
sg297
F1.0
sg305
F0.0
sg313
F0.0
sg321
F1.0
sg329
S'V54 M55h'
p3723
sg338
g339
sg347
F0.0
sasg355
S'K type'
p3724
sg363
S'DEBCat'
p3725
sg372
F-1.0
sg380
F-1.0
sg388
S'29'
p3726
sg390
(dp3727
S'BHMCatP0011'
p3728
(dp3729
g401
F3.0
sg409
F0.0
sg417
F0.0
sg425
F0.0
sg433
F1.0
sg441
F0.0
sg449
F11.3
sg457
S"'early mars'"
p3730
sg466
F4.5
sg474
F1.5
sg482
F1.000001
sg490
F0.01
sg498
F1.0
sg506
F1.0
sg514
F0.0
sg522
S'Chaboyer'
p3731
sg531
F10.0
sg539
F0.95
sg547
F0.275556
sg555
F0.95
sg563
F1.000001
sg571
F4.7e+40
sg579
F4.7e+40
sg587
F1.5
sg595
F44.0
sg603
F0.0
sg611
F0.275556
sg619
F5.0
sg627
F1.0
sg635
S'Chaboyer'
p3732
sg644
F0.0
sg652
F0.3
sg660
S"'maximum greenhouse'"
p3733
sg669
F0.3
sg677
F1.0
sg685
S"'Saturn'"
p3734
sg694
F0.01
sg702
F10.0
sg710
F1.0
sg718
F2.0
sg726
F3.0
sg734
S'PARSEC'
p3735
sg743
S'PARSEC'
p3736
sg752
F4.7e+40
sg760
F4.7e+40
sg768
S'BHMCatP0011'
p3737
sg777
F0.1
sg785
S'BHMCatS0010P'
p3738
sg794
S'V54 M55h'
p3739
sg803
F3.0
sg811
S'V54 M55'
p3740
sg820
S"'recent venus'"
p3741
sg829
S"'runaway greenhouse'"
p3742
sg838
F11.3
sg846
F0.0
sg854
F1.0
sg862
F5.0
sg870
F0.01
sg878
F0.3
sssg886
F-1.0
sg894
F-1.0
sg902
S'2014AcA....64...11K;'
p3743
sg910
F0.726
sg918
F1.006
sg926
F-1.0
sg934
F6251.0
sg942
F-1.0
sg950
F-1.0
sg958
F0.133
sg966
F0.015
sg974
F-1.0
sg982
S'BHMCatP0011;'
p3744
sg991
F-1.0
sg999
F0.764462809917356
sg1007
g1008
sg1016
S'V54 M55 A'
p3745
sg1025
F-1.0
sg1033
F-1.0
sg1041
F-1.0
sg1049
F-1.0
sg1057
F-1.0
sg1065
F-1.0
sg1073
F0.0938
sg1081
F-1.0
sg1089
F18.3
sg1097
g3711
sg1105
F-1.0
sg1113
F0.008
sg1121
F-1.0
sg1129
S'0010'
p3746
sg1138
F-1.0
sg1146
F-1.0
sg1154
F9.269
sg1162
F-1.0
sg1170
F-1.0
sg1178
F-1.0
sg1186
g3
(g121
S'\x83\xc9\x05\x13\xd2\xd2\xb7@'
p3747
tp3748
Rp3749
sg1194
F-1.0
ssS'BHMCatS0023P'
p3750
(dp3751
g12
F-1.0
sg20
S'TYC 176-2950-1 B'
p3752
sg29
F-1.0
sg37
F-1.0
sg45
I23
sg53
F-1.0
sg61
F0.015
sg69
F-1.0
sg77
F0.03
sg85
F1.18
sg93
F-1.0
sg101
F1.041
sg109
S'TYC 176-2950-1'
p3753
sg118
F-1.0
sg134
F5.814813888888889
sg142
g1199
sg151
F0.016
sg159
F0.02
sg167
S'G6'
p3754
sg169
(lp3755
(dp3756
g179
S'BHMCatP0024'
p3757
sg188
F0.0
sg196
F0.0
sg204
S'BHMCatS0023P'
p3758
sg213
F0.0
sg221
S'24'
p3759
sg230
g231
sg239
F1.000001
sg247
S'0024'
p3760
sg256
F0.0
sg264
F0.0
sg272
S'TYC 176-2950-1'
p3761
sg281
F1.000001
sg289
F0.0
sg297
F1.0
sg305
F0.0
sg313
F0.0
sg321
F1.0
sg329
S'TYC 176-2950-1h'
p3762
sg338
g339
sg347
F0.0
sasg355
g168
sg363
S'EkCat'
p3763
sg372
F4.31153509391184
sg380
F-1.0
sg388
S'74'
p3764
sg390
(dp3765
S'BHMCatP0024'
p3766
(dp3767
g401
F3.0
sg409
F0.0
sg417
F0.0
sg425
F0.0
sg433
F1.0
sg441
F0.0
sg449
F11.3
sg457
S"'early mars'"
p3768
sg466
F4.5
sg474
F1.5
sg482
F1.000001
sg490
F0.01
sg498
F1.0
sg506
F1.0
sg514
F0.0
sg522
S'Chaboyer'
p3769
sg531
F10.0
sg539
F0.95
sg547
F0.275556
sg555
F0.95
sg563
F1.000001
sg571
F4.7e+40
sg579
F4.7e+40
sg587
F1.5
sg595
F44.0
sg603
F0.0
sg611
F0.275556
sg619
F5.0
sg627
F1.0
sg635
S'Chaboyer'
p3770
sg644
F0.0
sg652
F0.3
sg660
S"'maximum greenhouse'"
p3771
sg669
F0.3
sg677
F1.0
sg685
S"'Saturn'"
p3772
sg694
F0.01
sg702
F10.0
sg710
F1.0
sg718
F2.0
sg726
F3.0
sg734
S'PARSEC'
p3773
sg743
S'PARSEC'
p3774
sg752
F4.7e+40
sg760
F4.7e+40
sg768
S'BHMCatP0024'
p3775
sg777
F0.1
sg785
S'BHMCatS0023P'
p3776
sg794
S'TYC 176-2950-1h'
p3777
sg803
F3.0
sg811
S'TYC 176-2950-1'
p3778
sg820
S"'recent venus'"
p3779
sg829
S"'runaway greenhouse'"
p3780
sg838
F11.3
sg846
F0.0
sg854
F1.0
sg862
F5.0
sg870
F0.01
sg878
F0.3
sssg886
F4.02613295021946
sg894
F-1.0
sg902
S'2008AN....329..835B;'
p3781
sg910
F1.055
sg918
F1.65
sg926
F-1.0
sg934
F-1.0
sg942
F88.2
sg950
F-1.0
sg958
F0.21
sg966
F0.008
sg974
F17.0
sg982
S'BHMCatP0024;'
p3782
sg991
F-1.0
sg999
F0.986729857819905
sg1007
g1008
sg1016
S'TYC 176-2950-1 A'
p3783
sg1025
F7.273766666666667
sg1033
F-1.0
sg1041
F-1.0
sg1049
F177.0
sg1057
F-1.0
sg1065
F-1.0
sg1073
F0.128004044117647
sg1081
F-1.0
sg1089
F10.215
sg1097
g3750
sg1105
F-1.0
sg1113
F0.008
sg1121
F-1.0
sg1129
S'0023'
p3784
sg1138
F-1.0
sg1146
F-1.0
sg1154
F11.55478
sg1162
F-1.0
sg1170
F-1.0
sg1178
F-1.0
sg1186
F-1.0
sg1194
F-1.0
ssS'BHMCatS1002V'
p3785
(dp3786
g12
F0.0
sg20
S'NICHE-002 B'
p3787
sg29
F-2.0
sg37
F-2.0
sg45
I1002
sg53
F-2.0
sg61
F-2.0
sg69
F-2.0
sg77
F0.0
sg85
F-2.0
sg93
F-2.0
sg101
F0.85
sg109
S'NICHE-002'
p3788
sg118
g3
(g121
S'0\xa8\x1bgj\x94\x8f?'
p3789
tp3790
Rp3791
sg134
F-2.0
sg142
g143
sg151
F-2.0
sg159
F0.0
sg167
g168
sg169
(lp3792
(dp3793
g179
S'BHMCatPV1002'
p3794
sg188
F0.0
sg196
F0.0
sg204
S'BHMCatS1002V'
p3795
sg213
F0.0
sg221
S'1002'
p3796
sg230
g231
sg239
F1.000001
sg247
S'1002'
p3797
sg256
F0.0
sg264
F0.0
sg272
S'NICHE-002'
p3798
sg281
F1.000001
sg289
F0.0
sg297
F1.0
sg305
F0.0
sg313
F0.0
sg321
F1.0
sg329
S'NICHE-002h'
p3799
sg338
g339
sg347
F0.0
sasg355
g168
sg363
S'NICHE'
p3800
sg372
F-2.0
sg380
F-2.0
sg388
S'2'
p3801
sg390
(dp3802
S'BHMCatPV1002'
p3803
(dp3804
g401
F3.0
sg409
F0.0
sg417
F0.0
sg425
F0.0
sg433
F1.0
sg441
F0.0
sg449
F11.3
sg457
S"'early mars'"
p3805
sg466
F4.5
sg474
F1.5
sg482
F1.000001
sg490
F0.01
sg498
F1.0
sg506
F1.0
sg514
F0.0
sg522
S'Chaboyer'
p3806
sg531
F10.0
sg539
F0.95
sg547
F0.275556
sg555
F0.95
sg563
F1.000001
sg571
F4.7e+40
sg579
F4.7e+40
sg587
F1.5
sg595
F44.0
sg603
F0.0
sg611
F0.275556
sg619
F5.0
sg627
F1.0
sg635
S'Chaboyer'
p3807
sg644
F0.0
sg652
F0.3
sg660
S"'maximum greenhouse'"
p3808
sg669
F0.3
sg677
F1.0
sg685
S"'Earth'"
p3809
sg694
F0.01
sg702
F10.0
sg710
F1.0
sg718
F2.0
sg726
F3.0
sg734
S'PARSEC'
p3810
sg743
S'PARSEC'
p3811
sg752
F4.7e+40
sg760
F4.7e+40
sg768
S'BHMCatPV1002'
p3812
sg777
F0.1
sg785
S'BHMCatS1002V'
p3813
sg794
S'NICHE-002h'
p3814
sg803
F3.0
sg811
S'NICHE-002'
p3815
sg820
S"'recent venus'"
p3816
sg829
S"'runaway greenhouse'"
p3817
sg838
F11.3
sg846
F0.0
sg854
F1.0
sg862
F5.0
sg870
F0.01
sg878
F0.3
sssg886
F-2.0
sg894
F-1.0
sg902
g168
sg910
F1.0
sg918
F-2.0
sg926
F-2.0
sg934
F-2.0
sg942
F-2.0
sg950
F-2.0
sg958
F0.5
sg966
F0.0
sg974
F-1.0
sg982
S'BHMCatPV1002;'
p3818
sg991
F-2.0
sg999
F0.85
sg1007
g1008
sg1016
S'NICHE-002 A'
p3819
sg1025
F-2.0
sg1033
F-1.0
sg1041
F-2.0
sg1049
F-1.0
sg1057
F-1.0
sg1065
F-1.0
sg1073
F0.177017861626706
sg1081
F-1.0
sg1089
F-2.0
sg1097
g3785
sg1105
F-2.0
sg1113
F0.0
sg1121
F-2.0
sg1129
S'1002'
p3820
sg1138
F-1.0
sg1146
F-2.0
sg1154
F20.0
sg1162
F-2.0
sg1170
F-1.0
sg1178
F-1.0
sg1186
F-1.0
sg1194
F-2.0
ssS'BHMCatS0006D'
p3821
(dp3822
g12
F-0.15
sg20
S'Kepler-64 B'
p3823
sg29
F0.107
sg37
F-1.0
sg45
I6
sg53
F3561.0
sg61
F-1.0
sg69
F-1.0
sg77
F0.044
sg85
F0.408
sg93
F2.0
sg101
F0.378
sg109
S'Kepler-64'
p3824
sg118
g3
(g121
S'\x1f\xe4\x96\xebQ\xbf\x86?'
p3825
tp3826
Rp3827
sg134
F39.9551
sg142
g1286
sg151
F-1.0
sg159
F0.024
sg167
S'F type'
p3828
sg169
(lp3829
(dp3830
g179
S'BHMCatP0007'
p3831
sg188
F82.67305180670441
sg196
F0.0539
sg204
S'BHMCatS006D'
p3832
sg213
F0.0081
sg221
g2082
sg230
S'2013ApJ...768..127S;2013ApJ...770...52K'
p3833
sg239
F6.20547417987757
sg247
S'0007'
p3834
sg256
F138.506
sg264
F0.011
sg272
S'Kepler-64'
p3835
sg281
F168.52583637520513
sg289
F-1.0
sg297
F0.634
sg305
F0.1
sg313
F0.0
sg321
F1.906
sg329
S'Kepler-64b'
p3836
sg338
g1296
sg347
F0.16832208444514205
sasg355
S'M type'
p3837
sg363
S'KIC'
p3838
sg372
F-1.0
sg380
F-1.0
sg388
S'4862625'
p3839
sg390
(dp3840
S'BHMCatP0007'
p3841
(dp3842
g401
F3.0
sg409
F0.0
sg417
F0.0
sg425
F0.0
sg433
F1.5
sg441
F-0.15
sg449
F11.3
sg457
S"'early mars'"
p3843
sg466
F4.5
sg474
F1.5
sg482
F6.20547417987757
sg490
F0.01
sg498
F1.0
sg506
F1.0
sg514
F-0.15
sg522
S'Chaboyer'
p3844
sg531
F10.0
sg539
F0.95
sg547
F0.275556
sg555
F0.95
sg563
F168.525836375205
sg571
F4.7e+40
sg579
F4.7e+40
sg587
F1.5
sg595
F44.0
sg603
F0.0
sg611
F0.275556
sg619
F5.0
sg627
F1.0
sg635
S'Chaboyer'
p3845
sg644
F0.0
sg652
F0.8
sg660
S"'maximum greenhouse'"
p3846
sg669
F0.3
sg677
F1.0
sg685
S"'Saturn'"
p3847
sg694
F0.01
sg702
F10.0
sg710
F1.5
sg718
F2.0
sg726
F3.0
sg734
S'PARSEC'
p3848
sg743
S'PARSEC'
p3849
sg752
F4.7e+40
sg760
F4.7e+40
sg768
S'BHMCatP0007'
p3850
sg777
F0.1
sg785
S'BHMCatS0006D'
p3851
sg794
S'Kepler-64b'
p3852
sg803
F3.0
sg811
S'Kepler-64'
p3853
sg820
S"'recent venus'"
p3854
sg829
S"'runaway greenhouse'"
p3855
sg838
F11.3
sg846
F0.0
sg854
F1.5
sg862
F5.0
sg870
F0.01
sg878
F0.3
sssg886
F4.658
sg894
g3
(g121
S'\x94\x0b\xed\xa8\xcf\x7f\x05@'
p3856
tp3857
Rp3858
sg902
S'2013ApJ...768..127S; 2013ApJ...770...52K;'
p3859
sg910
F1.528
sg918
F1.734
sg926
F-1.0
sg934
F6407.0
sg942
F87.36
sg950
F-1.0
sg958
F0.2117
sg966
F0.087
sg974
F-1.0
sg982
S'BHMCatP0007;'
p3860
sg991
F150.0
sg999
F0.24738219895288
sg1007
g1008
sg1016
S'Kepler-64 A'
p3861
sg1025
F19.881006666666668
sg1033
F-1.0
sg1041
F-1.0
sg1049
F-1.0
sg1057
F218.56
sg1065
F-1.0
sg1073
F0.1744
sg1081
F-1.0
sg1089
F13.718
sg1097
g3821
sg1105
F-1.0
sg1113
F0.023
sg1121
F2.0
sg1129
S'0006'
p3862
sg1138
F-0.217
sg1146
F1.0
sg1154
F20.0
sg1162
F32.6
sg1170
g3
(g121
S'h3|\x07\xbb\xa5\x83?'
p3863
tp3864
Rp3865
sg1178
g3
(g121
S'n\x92\xae\x97\x83\x1a\xc5?'
p3866
tp3867
Rp3868
sg1186
g3
(g121
S'\xca\x19\xa8%\xd0\xfe\x93@'
p3869
tp3870
Rp3871
sg1194
F150.0
ssS'BHMCatS1006V'
p3872
(dp3873
g12
F0.0
sg20
S'NICHE-006 B'
p3874
sg29
F-2.0
sg37
F-2.0
sg45
I1006
sg53
F-2.0
sg61
F-2.0
sg69
F-2.0
sg77
F0.0
sg85
F-2.0
sg93
F-2.0
sg101
F0.55
sg109
S'NICHE-006'
p3875
sg118
g3
(g121
S'0\xa8\x1bgj\x94\x8f?'
p3876
tp3877
Rp3878
sg134
F-2.0
sg142
g143
sg151
F-2.0
sg159
F0.0
sg167
g168
sg169
(lp3879
(dp3880
g179
S'BHMCatPV1006'
p3881
sg188
F0.0
sg196
F0.0
sg204
S'BHMCatS1006V'
p3882
sg213
F0.0
sg221
S'1006'
p3883
sg230
g231
sg239
F1.000001
sg247
S'1006'
p3884
sg256
F0.0
sg264
F0.0
sg272
S'NICHE-006'
p3885
sg281
F1.000001
sg289
F0.0
sg297
F1.0
sg305
F0.0
sg313
F0.0
sg321
F1.0
sg329
S'NICHE-006h'
p3886
sg338
g339
sg347
F0.0
sasg355
g168
sg363
S'NICHE'
p3887
sg372
F-2.0
sg380
F-2.0
sg388
g1907
sg390
(dp3888
S'BHMCatPV1006'
p3889
(dp3890
g401
F3.0
sg409
F0.0
sg417
F0.0
sg425
F0.0
sg433
F1.0
sg441
F0.0
sg449
F11.3
sg457
S"'early mars'"
p3891
sg466
F4.5
sg474
F1.5
sg482
F1.000001
sg490
F0.01
sg498
F1.0
sg506
F1.0
sg514
F0.0
sg522
S'Chaboyer'
p3892
sg531
F10.0
sg539
F0.95
sg547
F0.275556
sg555
F0.95
sg563
F1.000001
sg571
F4.7e+40
sg579
F4.7e+40
sg587
F1.5
sg595
F44.0
sg603
F0.0
sg611
F0.275556
sg619
F5.0
sg627
F1.0
sg635
S'Chaboyer'
p3893
sg644
F0.0
sg652
F0.3
sg660
S"'maximum greenhouse'"
p3894
sg669
F0.3
sg677
F1.0
sg685
S"'Earth'"
p3895
sg694
F0.01
sg702
F10.0
sg710
F1.0
sg718
F2.0
sg726
F3.0
sg734
S'PARSEC'
p3896
sg743
S'PARSEC'
p3897
sg752
F4.7e+40
sg760
F4.7e+40
sg768
S'BHMCatPV1006'
p3898
sg777
F0.1
sg785
S'BHMCatS1006V'
p3899
sg794
S'NICHE-006h'
p3900
sg803
F3.0
sg811
S'NICHE-006'
p3901
sg820
S"'recent venus'"
p3902
sg829
S"'runaway greenhouse'"
p3903
sg838
F11.3
sg846
F0.0
sg854
F1.0
sg862
F5.0
sg870
F0.01
sg878
F0.3
sssg886
F-2.0
sg894
F-1.0
sg902
g168
sg910
F1.0
sg918
F-2.0
sg926
F-2.0
sg934
F-2.0
sg942
F-2.0
sg950
F-2.0
sg958
F0.1
sg966
F0.0
sg974
F-1.0
sg982
S'BHMCatPV1006;'
p3904
sg991
F-2.0
sg999
F0.55
sg1007
g1008
sg1016
S'NICHE-006 A'
p3905
sg1025
F-2.0
sg1033
F-1.0
sg1041
F-2.0
sg1049
F-1.0
sg1057
F-1.0
sg1065
F-1.0
sg1073
F0.118714722140125
sg1081
F-1.0
sg1089
F-2.0
sg1097
g3872
sg1105
F-2.0
sg1113
F0.0
sg1121
F-2.0
sg1129
S'1006'
p3906
sg1138
F-1.0
sg1146
F-2.0
sg1154
F12.0
sg1162
F-2.0
sg1170
F-1.0
sg1178
F-1.0
sg1186
F-1.0
sg1194
F-2.0
ssS'BHMCatS0012P'
p3907
(dp3908
g12
F-1.0
sg20
S'EW Ori B'
p3909
sg29
F0.57
sg37
F-1.0
sg45
I12
sg53
F5902.0
sg61
F-1.0
sg69
F-1.0
sg77
F0.005
sg85
F1.097
sg93
F-1.0
sg101
F1.123
sg109
S'EW Ori'
p3910
sg118
F-1.0
sg134
F2.044436111111111
sg142
g1199
sg151
F-1.0
sg159
F0.005
sg167
S'G0V'
p3911
sg169
(lp3912
(dp3913
g179
S'BHMCatP0013'
p3914
sg188
F0.0
sg196
F0.0
sg204
S'BHMCatS0012P'
p3915
sg213
F0.0
sg221
S'13'
p3916
sg230
g231
sg239
F1.000001
sg247
S'0013'
p3917
sg256
F0.0
sg264
F0.0
sg272
S'EW Ori'
p3918
sg281
F1.000001
sg289
F0.0
sg297
F1.0
sg305
F0.0
sg313
F0.0
sg321
F1.0
sg329
S'EW Orih'
p3919
sg338
g339
sg347
F0.0
sasg355
S'G2V'
p3920
sg363
S'DEBCat'
p3921
sg372
F-1.0
sg380
F-1.0
sg388
S'27'
p3922
sg390
(dp3923
S'BHMCatP0013'
p3924
(dp3925
g401
F3.0
sg409
F0.0
sg417
F0.0
sg425
F0.0
sg433
F1.0
sg441
F0.0
sg449
F11.3
sg457
S"'early mars'"
p3926
sg466
F4.5
sg474
F1.5
sg482
F1.000001
sg490
F0.01
sg498
F1.0
sg506
F1.0
sg514
F0.0
sg522
S'Chaboyer'
p3927
sg531
F10.0
sg539
F0.95
sg547
F0.275556
sg555
F0.95
sg563
F1.000001
sg571
F4.7e+40
sg579
F4.7e+40
sg587
F1.5
sg595
F44.0
sg603
F0.0
sg611
F0.275556
sg619
F5.0
sg627
F1.0
sg635
S'Chaboyer'
p3928
sg644
F0.0
sg652
F0.3
sg660
S"'maximum greenhouse'"
p3929
sg669
F0.3
sg677
F1.0
sg685
S"'Saturn'"
p3930
sg694
F0.01
sg702
F10.0
sg710
F1.0
sg718
F2.0
sg726
F3.0
sg734
S'PARSEC'
p3931
sg743
S'PARSEC'
p3932
sg752
F4.7e+40
sg760
F4.7e+40
sg768
S'BHMCatP0013'
p3933
sg777
F0.1
sg785
S'BHMCatS0012P'
p3934
sg794
S'EW Orih'
p3935
sg803
F3.0
sg811
S'EW Ori'
p3936
sg820
S"'recent venus'"
p3937
sg829
S"'runaway greenhouse'"
p3938
sg838
F11.3
sg846
F0.0
sg854
F1.0
sg862
F5.0
sg870
F0.01
sg878
F0.3
sssg886
F-1.0
sg894
F-1.0
sg902
S'2010A%26A...511A..22C;'
p3939
sg910
F1.173
sg918
F1.168
sg926
F-1.0
sg934
F6067.0
sg942
F-1.0
sg950
F-1.0
sg958
F0.0758
sg966
F0.011
sg974
F-1.0
sg982
S'BHMCatP0013;'
p3940
sg991
F-1.0
sg999
F0.957374254049446
sg1007
g1008
sg1016
S'EW Ori A'
p3941
sg1025
F5.335875
sg1033
F-1.0
sg1041
F-1.0
sg1049
F-1.0
sg1057
F-1.0
sg1065
F-1.0
sg1073
F0.0946
sg1081
F-1.0
sg1089
F9.09
sg1097
g3907
sg1105
F-1.0
sg1113
F0.009
sg1121
F-1.0
sg1129
S'0012'
p3942
sg1138
F-1.0
sg1146
F-1.0
sg1154
F6.937
sg1162
F-1.0
sg1170
F-1.0
sg1178
F-1.0
sg1186
g3
(g121
S'\xcaW.o\xfe\x1b^@'
p3943
tp3944
Rp3945
sg1194
F-1.0
ssS'BHMCatS0014P'
p3946
(dp3947
g12
F-1.0
sg20
S'M4-V69 B'
p3948
sg29
F0.902
sg37
F-1.0
sg45
I14
sg53
F5915.0
sg61
F0.119
sg69
F-1.0
sg77
F0.01
sg85
F0.807
sg93
F11.23
sg101
F0.728
sg109
S'M4-V69'
p3949
sg118
F-1.0
sg134
F-25.378333333333334
sg142
g1199
sg151
F0.132
sg159
F0.008
sg167
S'F type'
p3950
sg169
(lp3951
(dp3952
g179
S'BHMCatP0015'
p3953
sg188
F0.0
sg196
F0.0
sg204
S'BHMCatS0014P'
p3954
sg213
F0.0
sg221
S'15'
p3955
sg230
g231
sg239
F1.000001
sg247
S'0015'
p3956
sg256
F0.0
sg264
F0.0
sg272
S'M4-V69'
p3957
sg281
F1.000001
sg289
F0.0
sg297
F1.0
sg305
F0.0
sg313
F0.0
sg321
F1.0
sg329
S'M4-V69h'
p3958
sg338
g339
sg347
F0.0
sasg355
S'G type'
p3959
sg363
S'EkCat'
p3960
sg372
F4.483
sg380
F-1.0
sg388
S'141'
p3961
sg390
(dp3962
S'BHMCatP0015'
p3963
(dp3964
g401
F3.0
sg409
F0.0
sg417
F0.0
sg425
F0.0
sg433
F10.9
sg441
F0.0
sg449
F11.3
sg457
S"'early mars'"
p3965
sg466
F4.5
sg474
F1.5
sg482
F1.000001
sg490
F0.01
sg498
F1.0
sg506
F1.0
sg514
F0.0
sg522
S'Chaboyer'
p3966
sg531
F10.0
sg539
F0.95
sg547
F0.275556
sg555
F0.95
sg563
F1.000001
sg571
F4.7e+40
sg579
F4.7e+40
sg587
F1.5
sg595
F44.0
sg603
F0.0
sg611
F0.275556
sg619
F5.0
sg627
F1.0
sg635
S'Chaboyer'
p3967
sg644
F0.0
sg652
F0.3
sg660
S"'maximum greenhouse'"
p3968
sg669
F0.3
sg677
F1.0
sg685
S"'Saturn'"
p3969
sg694
F0.01
sg702
F10.0
sg710
F10.9
sg718
F2.0
sg726
F3.0
sg734
S'PARSEC'
p3970
sg743
S'PARSEC'
p3971
sg752
F4.7e+40
sg760
F4.7e+40
sg768
S'BHMCatP0015'
p3972
sg777
F0.1
sg785
S'BHMCatS0014P'
p3973
sg794
S'M4-V69h'
p3974
sg803
F3.0
sg811
S'M4-V69'
p3975
sg820
S"'recent venus'"
p3976
sg829
S"'runaway greenhouse'"
p3977
sg838
F11.3
sg846
F0.0
sg854
F10.9
sg862
F5.0
sg870
F0.01
sg878
F0.3
sssg886
F4.444
sg894
F-1.0
sg902
S'2013AJ....145...43K;'
p3978
sg910
F0.766
sg918
F0.866
sg926
F-1.0
sg934
F6084.0
sg942
F89.79
sg950
F-1.0
sg958
F0.384
sg966
F0.005
sg974
F30.0
sg982
S'BHMCatP0015;'
p3979
sg991
F137.0
sg999
F0.950391644908616
sg1007
g1008
sg1016
S'M4-V69 A'
p3980
sg1025
F16.39944722222222
sg1033
F-1.0
sg1041
F-1.0
sg1049
F1850.0
sg1057
F65.25
sg1065
F-1.0
sg1073
F0.296410819251337
sg1081
F-1.0
sg1089
F17.01
sg1097
g3946
sg1105
F-1.0
sg1113
F0.004
sg1121
F-1.0
sg1129
S'0014'
p3981
sg1138
F-1.0
sg1146
F10.57
sg1154
F48.1882687
sg1162
F-1.0
sg1170
F-1.0
sg1178
F-1.0
sg1186
F-1.0
sg1194
F121.0
ssS'PlanetFieldsPriority'
p3982
(dp3983
g179
I1
sg188
I4
sg196
I1
sg204
I1
sg213
I4
sg221
I100
sg230
I1
sg239
I1
sg247
I1
sg256
I1
sg264
I4
sg272
I2
sg281
I1
sg289
I2
sg297
I1
sg305
I4
sg313
I4
sg321
I100
sg329
I1
sg338
I100
sg347
I4
ssS'BHMCatS0002D'
p3984
(dp3985
g12
F-0.263
sg20
S'Kepler-34 B'
p3986
sg29
F0.148
sg37
F-1.0
sg45
I2
sg53
F5867.0
sg61
F-1.0
sg69
F-1.0
sg77
F0.003
sg85
F1.093
sg93
F2.9
sg101
F1.021
sg109
S'Kepler-34'
p3987
sg118
g3
(g121
S'\x949l\xffz\xc4\x81?'
p3988
tp3989
Rp3990
sg134
F44.64156111111111
sg142
g1286
sg151
F-1.0
sg159
F0.003
sg167
S'G0V'
p3991
sg169
(lp3992
(dp3993
g179
S'BHMCatP0002'
p3994
sg188
F3.1797327617963234
sg196
F0.182
sg204
S'BHMCatS002D'
p3995
sg213
F0.018
sg221
g3801
sg230
S'2012Natur.481..475W;2012yCatp038048101W'
p3996
sg239
F8.573204834405901
sg247
S'0002'
p3997
sg256
F288.822
sg264
F0.0009
sg272
S'Kepler-34'
p3998
sg281
F69.95412075951911
sg289
F-1.0
sg297
F1.0896
sg305
F0.072
sg313
F0.0
sg321
F2.069
sg329
S'Kepler-34b'
p3999
sg338
g1296
sg347
F0.14587913985245643
sasg355
S'G0V'
p4000
sg363
S'KIC'
p4001
sg372
F-1.0
sg380
F-1.0
sg388
S'8572936'
p4002
sg390
(dp4003
S'BHMCatP0002'
p4004
(dp4005
g401
F3.0
sg409
F0.0
sg417
F0.0
sg425
F0.0
sg433
F2.45
sg441
F-0.263
sg449
F11.3
sg457
S"'early mars'"
p4006
sg466
F4.5
sg474
F1.5
sg482
F8.5732048344059
sg490
F0.01
sg498
F1.0
sg506
F1.0
sg514
F-0.263
sg522
S'Chaboyer'
p4007
sg531
F10.0
sg539
F0.95
sg547
F0.275556
sg555
F0.95
sg563
F69.9541207595191
sg571
F4.7e+40
sg579
F4.7e+40
sg587
F1.5
sg595
F44.0
sg603
F0.0
sg611
F0.275556
sg619
F5.0
sg627
F1.0
sg635
S'Chaboyer'
p4008
sg644
F0.0
sg652
F0.8
sg660
S"'maximum greenhouse'"
p4009
sg669
F0.3
sg677
F1.0
sg685
S"'Saturn'"
p4010
sg694
F0.01
sg702
F10.0
sg710
F2.45
sg718
F2.0
sg726
F3.0
sg734
S'PARSEC'
p4011
sg743
S'PARSEC'
p4012
sg752
F4.7e+40
sg760
F4.7e+40
sg768
S'BHMCatP0002'
p4013
sg777
F0.1
sg785
S'BHMCatS0002D'
p4014
sg794
S'Kepler-34b'
p4015
sg803
F3.0
sg811
S'Kepler-34'
p4016
sg820
S"'recent venus'"
p4017
sg829
S"'runaway greenhouse'"
p4018
sg838
F11.3
sg846
F0.0
sg854
F2.45
sg862
F5.0
sg870
F0.01
sg878
F0.3
sssg886
F4.442
sg894
g3
(g121
S'\x1e6\x10i\xba\xca0@'
p4019
tp4020
Rp4021
sg902
S'2012Natur.481..475W; 2012yCatp038048101W;'
p4022
sg910
F1.048
sg918
F1.162
sg926
F1.5
sg934
F5913.0
sg942
F89.8584
sg950
F-1.0
sg958
F0.5209
sg966
F0.003
sg974
F-1.0
sg982
S'BHMCatP0002;'
p4023
sg991
F130.0
sg999
F0.974236641221374
sg1007
g1008
sg1016
S'Kepler-34 A'
p4024
sg1025
F19.762388055555554
sg1033
F-1.0
sg1041
F16.5
sg1049
F-1.0
sg1057
F71.436
sg1065
F-1.0
sg1073
F0.2288
sg1081
F-1.0
sg1089
F14.875
sg1097
g3984
sg1105
F-1.0
sg1113
F0.002
sg1121
F0.5
sg1129
S'0002'
p4025
sg1138
F-0.263
sg1146
F2.0
sg1154
F27.796
sg1162
F3.5
sg1170
g3
(g121
S'\x949l\xffz\xc4\x81?'
p4026
tp4027
Rp4028
sg1178
g3
(g121
S'\x90\xab[\n\xd50\x03@'
p4029
tp4030
Rp4031
sg1186
g3
(g121
S'\xc4d2\x8d\x9a\xbf\x99@'
p4032
tp4033
Rp4034
sg1194
F130.0
ssS'BHMCatS1008V'
p4035
(dp4036
g12
F0.0
sg20
S'NICHE-008 B'
p4037
sg29
F-2.0
sg37
F-2.0
sg45
I1008
sg53
F-2.0
sg61
F-2.0
sg69
F-2.0
sg77
F0.0
sg85
F-2.0
sg93
F-2.0
sg101
F0.7
sg109
S'NICHE-008'
p4038
sg118
g3
(g121
S'0\xa8\x1bgj\x94\x8f?'
p4039
tp4040
Rp4041
sg134
F-2.0
sg142
g143
sg151
F-2.0
sg159
F0.0
sg167
g168
sg169
(lp4042
(dp4043
g179
S'BHMCatPV1008'
p4044
sg188
F0.0
sg196
F0.0
sg204
S'BHMCatS1008V'
p4045
sg213
F0.0
sg221
S'1008'
p4046
sg230
g231
sg239
F1.000001
sg247
S'1008'
p4047
sg256
F0.0
sg264
F0.0
sg272
S'NICHE-008'
p4048
sg281
F1.000001
sg289
F0.0
sg297
F1.0
sg305
F0.0
sg313
F0.0
sg321
F1.0
sg329
S'NICHE-008h'
p4049
sg338
g339
sg347
F0.0
sasg355
g168
sg363
S'NICHE'
p4050
sg372
F-2.0
sg380
F-2.0
sg388
g1665
sg390
(dp4051
S'BHMCatPV1008'
p4052
(dp4053
g401
F3.0
sg409
F0.0
sg417
F0.0
sg425
F0.0
sg433
F1.0
sg441
F0.0
sg449
F11.3
sg457
S"'early mars'"
p4054
sg466
F4.5
sg474
F1.5
sg482
F1.000001
sg490
F0.01
sg498
F1.0
sg506
F1.0
sg514
F0.0
sg522
S'Chaboyer'
p4055
sg531
F10.0
sg539
F0.95
sg547
F0.275556
sg555
F0.95
sg563
F1.000001
sg571
F4.7e+40
sg579
F4.7e+40
sg587
F1.5
sg595
F44.0
sg603
F0.0
sg611
F0.275556
sg619
F5.0
sg627
F1.0
sg635
S'Chaboyer'
p4056
sg644
F0.0
sg652
F0.3
sg660
S"'maximum greenhouse'"
p4057
sg669
F0.3
sg677
F1.0
sg685
S"'Earth'"
p4058
sg694
F0.01
sg702
F10.0
sg710
F1.0
sg718
F2.0
sg726
F3.0
sg734
S'PARSEC'
p4059
sg743
S'PARSEC'
p4060
sg752
F4.7e+40
sg760
F4.7e+40
sg768
S'BHMCatPV1008'
p4061
sg777
F0.1
sg785
S'BHMCatS1008V'
p4062
sg794
S'NICHE-008h'
p4063
sg803
F3.0
sg811
S'NICHE-008'
p4064
sg820
S"'recent venus'"
p4065
sg829
S"'runaway greenhouse'"
p4066
sg838
F11.3
sg846
F0.0
sg854
F1.0
sg862
F5.0
sg870
F0.01
sg878
F0.3
sssg886
F-2.0
sg894
F-1.0
sg902
g168
sg910
F0.85
sg918
F-2.0
sg926
F-2.0
sg934
F-2.0
sg942
F-2.0
sg950
F-2.0
sg958
F0.3
sg966
F0.0
sg974
F-1.0
sg982
S'BHMCatPV1008;'
p4067
sg991
F-2.0
sg999
F0.823529411764706
sg1007
g1008
sg1016
S'NICHE-008 A'
p4068
sg1025
F-2.0
sg1033
F-1.0
sg1041
F-2.0
sg1049
F-1.0
sg1057
F-1.0
sg1065
F-1.0
sg1073
F0.166879790842003
sg1081
F-1.0
sg1089
F-2.0
sg1097
g4035
sg1105
F-2.0
sg1113
F0.0
sg1121
F-2.0
sg1129
S'1008'
p4069
sg1138
F-1.0
sg1146
F-2.0
sg1154
F20.0
sg1162
F-2.0
sg1170
F-1.0
sg1178
F-1.0
sg1186
F-1.0
sg1194
F-2.0
ssS'FieldsType'
p4070
(dp4071
g12
g3
(g4
(S'S5'
p4072
I0
I1
tp4073
Rp4074
(I3
S'|'
p4075
NNNI5
I1
I0
tp4076
bS'float'
p4077
tp4078
Rp4079
sg20
g3
(g4
(S'S3'
p4080
I0
I1
tp4081
Rp4082
(I3
S'|'
p4083
NNNI3
I1
I0
tp4084
bS'str'
p4085
tp4086
Rp4087
sg29
g3
(g4
(S'S5'
p4088
I0
I1
tp4089
Rp4090
(I3
S'|'
p4091
NNNI5
I1
I0
tp4092
bS'float'
p4093
tp4094
Rp4095
sg37
g3
(g4
(S'S5'
p4096
I0
I1
tp4097
Rp4098
(I3
S'|'
p4099
NNNI5
I1
I0
tp4100
bS'float'
p4101
tp4102
Rp4103
sg45
g3
(g4
(S'S3'
p4104
I0
I1
tp4105
Rp4106
(I3
S'|'
p4107
NNNI3
I1
I0
tp4108
bS'int'
p4109
tp4110
Rp4111
sg53
g3
(g4
(S'S5'
p4112
I0
I1
tp4113
Rp4114
(I3
S'|'
p4115
NNNI5
I1
I0
tp4116
bS'float'
p4117
tp4118
Rp4119
sg61
g3
(g4
(S'S5'
p4120
I0
I1
tp4121
Rp4122
(I3
S'|'
p4123
NNNI5
I1
I0
tp4124
bS'float'
p4125
tp4126
Rp4127
sg69
g3
(g4
(S'S5'
p4128
I0
I1
tp4129
Rp4130
(I3
S'|'
p4131
NNNI5
I1
I0
tp4132
bS'float'
p4133
tp4134
Rp4135
sg77
g3
(g4
(S'S5'
p4136
I0
I1
tp4137
Rp4138
(I3
S'|'
p4139
NNNI5
I1
I0
tp4140
bS'float'
p4141
tp4142
Rp4143
sg85
g3
(g4
(S'S5'
p4144
I0
I1
tp4145
Rp4146
(I3
S'|'
p4147
NNNI5
I1
I0
tp4148
bS'float'
p4149
tp4150
Rp4151
sg93
g3
(g4
(S'S5'
p4152
I0
I1
tp4153
Rp4154
(I3
S'|'
p4155
NNNI5
I1
I0
tp4156
bS'float'
p4157
tp4158
Rp4159
sg101
g3
(g4
(S'S5'
p4160
I0
I1
tp4161
Rp4162
(I3
S'|'
p4163
NNNI5
I1
I0
tp4164
bS'float'
p4165
tp4166
Rp4167
sg109
g3
(g4
(S'S3'
p4168
I0
I1
tp4169
Rp4170
(I3
S'|'
p4171
NNNI3
I1
I0
tp4172
bS'str'
p4173
tp4174
Rp4175
sg118
g3
(g4
(S'S5'
p4176
I0
I1
tp4177
Rp4178
(I3
S'|'
p4179
NNNI5
I1
I0
tp4180
bS'float'
p4181
tp4182
Rp4183
sg134
g3
(g4
(S'S3'
p4184
I0
I1
tp4185
Rp4186
(I3
S'|'
p4187
NNNI3
I1
I0
tp4188
bS'dms'
p4189
tp4190
Rp4191
sg142
g3
(g4
(S'S3'
p4192
I0
I1
tp4193
Rp4194
(I3
S'|'
p4195
NNNI3
I1
I0
tp4196
bS'str'
p4197
tp4198
Rp4199
sg151
g3
(g4
(S'S5'
p4200
I0
I1
tp4201
Rp4202
(I3
S'|'
p4203
NNNI5
I1
I0
tp4204
bS'float'
p4205
tp4206
Rp4207
sg159
g3
(g4
(S'S5'
p4208
I0
I1
tp4209
Rp4210
(I3
S'|'
p4211
NNNI5
I1
I0
tp4212
bS'float'
p4213
tp4214
Rp4215
sg167
g3
(g4
(S'S3'
p4216
I0
I1
tp4217
Rp4218
(I3
S'|'
p4219
NNNI3
I1
I0
tp4220
bS'str'
p4221
tp4222
Rp4223
sg355
g3
(g4
(S'S3'
p4224
I0
I1
tp4225
Rp4226
(I3
S'|'
p4227
NNNI3
I1
I0
tp4228
bS'str'
p4229
tp4230
Rp4231
sg363
g3
(g4
(S'S3'
p4232
I0
I1
tp4233
Rp4234
(I3
S'|'
p4235
NNNI3
I1
I0
tp4236
bS'str'
p4237
tp4238
Rp4239
sg372
g3
(g4
(S'S5'
p4240
I0
I1
tp4241
Rp4242
(I3
S'|'
p4243
NNNI5
I1
I0
tp4244
bS'float'
p4245
tp4246
Rp4247
sg380
g3
(g4
(S'S5'
p4248
I0
I1
tp4249
Rp4250
(I3
S'|'
p4251
NNNI5
I1
I0
tp4252
bS'float'
p4253
tp4254
Rp4255
sg388
g3
(g4
(S'S3'
p4256
I0
I1
tp4257
Rp4258
(I3
S'|'
p4259
NNNI3
I1
I0
tp4260
bS'str'
p4261
tp4262
Rp4263
sg886
g3
(g4
(S'S5'
p4264
I0
I1
tp4265
Rp4266
(I3
S'|'
p4267
NNNI5
I1
I0
tp4268
bS'float'
p4269
tp4270
Rp4271
sg894
g3
(g4
(S'S5'
p4272
I0
I1
tp4273
Rp4274
(I3
S'|'
p4275
NNNI5
I1
I0
tp4276
bS'float'
p4277
tp4278
Rp4279
sg902
g3
(g4
(S'S3'
p4280
I0
I1
tp4281
Rp4282
(I3
S'|'
p4283
NNNI3
I1
I0
tp4284
bS'str'
p4285
tp4286
Rp4287
sg910
g3
(g4
(S'S5'
p4288
I0
I1
tp4289
Rp4290
(I3
S'|'
p4291
NNNI5
I1
I0
tp4292
bS'float'
p4293
tp4294
Rp4295
sg918
g3
(g4
(S'S5'
p4296
I0
I1
tp4297
Rp4298
(I3
S'|'
p4299
NNNI5
I1
I0
tp4300
bS'float'
p4301
tp4302
Rp4303
sg926
g3
(g4
(S'S5'
p4304
I0
I1
tp4305
Rp4306
(I3
S'|'
p4307
NNNI5
I1
I0
tp4308
bS'float'
p4309
tp4310
Rp4311
sg934
g3
(g4
(S'S5'
p4312
I0
I1
tp4313
Rp4314
(I3
S'|'
p4315
NNNI5
I1
I0
tp4316
bS'float'
p4317
tp4318
Rp4319
sg942
g3
(g4
(S'S5'
p4320
I0
I1
tp4321
Rp4322
(I3
S'|'
p4323
NNNI5
I1
I0
tp4324
bS'float'
p4325
tp4326
Rp4327
sg950
g3
(g4
(S'S5'
p4328
I0
I1
tp4329
Rp4330
(I3
S'|'
p4331
NNNI5
I1
I0
tp4332
bS'float'
p4333
tp4334
Rp4335
sg958
g3
(g4
(S'S5'
p4336
I0
I1
tp4337
Rp4338
(I3
S'|'
p4339
NNNI5
I1
I0
tp4340
bS'float'
p4341
tp4342
Rp4343
sg966
g3
(g4
(S'S5'
p4344
I0
I1
tp4345
Rp4346
(I3
S'|'
p4347
NNNI5
I1
I0
tp4348
bS'float'
p4349
tp4350
Rp4351
sg974
g3
(g4
(S'S5'
p4352
I0
I1
tp4353
Rp4354
(I3
S'|'
p4355
NNNI5
I1
I0
tp4356
bS'float'
p4357
tp4358
Rp4359
sg982
g3
(g4
(S'S3'
p4360
I0
I1
tp4361
Rp4362
(I3
S'|'
p4363
NNNI3
I1
I0
tp4364
bS'str'
p4365
tp4366
Rp4367
sg991
g3
(g4
(S'S5'
p4368
I0
I1
tp4369
Rp4370
(I3
S'|'
p4371
NNNI5
I1
I0
tp4372
bS'float'
p4373
tp4374
Rp4375
sg999
g3
(g4
(S'S5'
p4376
I0
I1
tp4377
Rp4378
(I3
S'|'
p4379
NNNI5
I1
I0
tp4380
bS'float'
p4381
tp4382
Rp4383
sg1007
g3
(g4
(S'S3'
p4384
I0
I1
tp4385
Rp4386
(I3
S'|'
p4387
NNNI3
I1
I0
tp4388
bS'str'
p4389
tp4390
Rp4391
sg1016
g3
(g4
(S'S3'
p4392
I0
I1
tp4393
Rp4394
(I3
S'|'
p4395
NNNI3
I1
I0
tp4396
bS'str'
p4397
tp4398
Rp4399
sg1025
g3
(g4
(S'S3'
p4400
I0
I1
tp4401
Rp4402
(I3
S'|'
p4403
NNNI3
I1
I0
tp4404
bS'dms'
p4405
tp4406
Rp4407
sg1033
g3
(g4
(S'S5'
p4408
I0
I1
tp4409
Rp4410
(I3
S'|'
p4411
NNNI5
I1
I0
tp4412
bS'float'
p4413
tp4414
Rp4415
sg1041
g3
(g4
(S'S5'
p4416
I0
I1
tp4417
Rp4418
(I3
S'|'
p4419
NNNI5
I1
I0
tp4420
bS'float'
p4421
tp4422
Rp4423
sg1049
g3
(g4
(S'S5'
p4424
I0
I1
tp4425
Rp4426
(I3
S'|'
p4427
NNNI5
I1
I0
tp4428
bS'float'
p4429
tp4430
Rp4431
sg1057
g3
(g4
(S'S5'
p4432
I0
I1
tp4433
Rp4434
(I3
S'|'
p4435
NNNI5
I1
I0
tp4436
bS'float'
p4437
tp4438
Rp4439
sg1065
g3
(g4
(S'S5'
p4440
I0
I1
tp4441
Rp4442
(I3
S'|'
p4443
NNNI5
I1
I0
tp4444
bS'float'
p4445
tp4446
Rp4447
sg1073
g3
(g4
(S'S5'
p4448
I0
I1
tp4449
Rp4450
(I3
S'|'
p4451
NNNI5
I1
I0
tp4452
bS'float'
p4453
tp4454
Rp4455
sg1081
g3
(g4
(S'S5'
p4456
I0
I1
tp4457
Rp4458
(I3
S'|'
p4459
NNNI5
I1
I0
tp4460
bS'float'
p4461
tp4462
Rp4463
sg1089
g3
(g4
(S'S5'
p4464
I0
I1
tp4465
Rp4466
(I3
S'|'
p4467
NNNI5
I1
I0
tp4468
bS'float'
p4469
tp4470
Rp4471
sg1097
g3
(g4
(S'S3'
p4472
I0
I1
tp4473
Rp4474
(I3
S'|'
p4475
NNNI3
I1
I0
tp4476
bS'str'
p4477
tp4478
Rp4479
sg1105
g3
(g4
(S'S5'
p4480
I0
I1
tp4481
Rp4482
(I3
S'|'
p4483
NNNI5
I1
I0
tp4484
bS'float'
p4485
tp4486
Rp4487
sg1113
g3
(g4
(S'S5'
p4488
I0
I1
tp4489
Rp4490
(I3
S'|'
p4491
NNNI5
I1
I0
tp4492
bS'float'
p4493
tp4494
Rp4495
sg1121
g3
(g4
(S'S5'
p4496
I0
I1
tp4497
Rp4498
(I3
S'|'
p4499
NNNI5
I1
I0
tp4500
bS'float'
p4501
tp4502
Rp4503
sg1129
g3
(g4
(S'S3'
p4504
I0
I1
tp4505
Rp4506
(I3
S'|'
p4507
NNNI3
I1
I0
tp4508
bS'str'
p4509
tp4510
Rp4511
sg1138
g3
(g4
(S'S5'
p4512
I0
I1
tp4513
Rp4514
(I3
S'|'
p4515
NNNI5
I1
I0
tp4516
bS'float'
p4517
tp4518
Rp4519
sg1146
g3
(g4
(S'S5'
p4520
I0
I1
tp4521
Rp4522
(I3
S'|'
p4523
NNNI5
I1
I0
tp4524
bS'float'
p4525
tp4526
Rp4527
sg1154
g3
(g4
(S'S5'
p4528
I0
I1
tp4529
Rp4530
(I3
S'|'
p4531
NNNI5
I1
I0
tp4532
bS'float'
p4533
tp4534
Rp4535
sg1162
g3
(g4
(S'S5'
p4536
I0
I1
tp4537
Rp4538
(I3
S'|'
p4539
NNNI5
I1
I0
tp4540
bS'float'
p4541
tp4542
Rp4543
sg1170
g3
(g4
(S'S5'
p4544
I0
I1
tp4545
Rp4546
(I3
S'|'
p4547
NNNI5
I1
I0
tp4548
bS'float'
p4549
tp4550
Rp4551
sg1178
g3
(g4
(S'S5'
p4552
I0
I1
tp4553
Rp4554
(I3
S'|'
p4555
NNNI5
I1
I0
tp4556
bS'float'
p4557
tp4558
Rp4559
sg1186
g3
(g4
(S'S5'
p4560
I0
I1
tp4561
Rp4562
(I3
S'|'
p4563
NNNI5
I1
I0
tp4564
bS'float'
p4565
tp4566
Rp4567
sg1194
g3
(g4
(S'S5'
p4568
I0
I1
tp4569
Rp4570
(I3
S'|'
p4571
NNNI5
I1
I0
tp4572
bS'float'
p4573
tp4574
Rp4575
ssS'BHMCatS0016P'
p4576
(dp4577
g12
F-1.0
sg20
S'V69-47 Tuc  B'
p4578
sg29
F-1.0
sg37
F-1.0
sg45
I16
sg53
F5959.0
sg61
F0.006
sg69
F-1.0
sg77
F0.005
sg85
F1.162
sg93
F-1.0
sg101
F0.859
sg109
S'V69-47 Tuc'
p4579
sg118
F-1.0
sg134
F-71.9387
sg142
g1199
sg151
F0.004
sg159
F0.006
sg167
S'G type'
p4580
sg169
(lp4581
(dp4582
g179
S'BHMCatP0017'
p4583
sg188
F0.0
sg196
F0.0
sg204
S'BHMCatS0016P'
p4584
sg213
F0.0
sg221
S'17'
p4585
sg230
g231
sg239
F1.000001
sg247
S'0017'
p4586
sg256
F0.0
sg264
F0.0
sg272
S'V69-47 Tuc'
p4587
sg281
F1.000001
sg289
F0.0
sg297
F1.0
sg305
F0.0
sg313
F0.0
sg321
F1.0
sg329
S'V69-47 Tuc h'
p4588
sg338
g339
sg347
F0.0
sasg355
S'G type'
p4589
sg363
S'EkCat'
p4590
sg372
F4.1
sg380
F-1.0
sg388
g1420
sg390
(dp4591
S'BHMCatP0017'
p4592
(dp4593
g401
F3.0
sg409
F0.0
sg417
F0.0
sg425
F0.0
sg433
F1.0
sg441
F0.0
sg449
F11.3
sg457
S"'early mars'"
p4594
sg466
F4.5
sg474
F1.5
sg482
F1.000001
sg490
F0.01
sg498
F1.0
sg506
F1.0
sg514
F0.0
sg522
S'Chaboyer'
p4595
sg531
F10.0
sg539
F0.95
sg547
F0.275556
sg555
F0.95
sg563
F1.000001
sg571
F4.7e+40
sg579
F4.7e+40
sg587
F1.5
sg595
F44.0
sg603
F0.0
sg611
F0.275556
sg619
F5.0
sg627
F1.0
sg635
S'Chaboyer'
p4596
sg644
F0.0
sg652
F0.3
sg660
S"'maximum greenhouse'"
p4597
sg669
F0.3
sg677
F1.0
sg685
S"'Saturn'"
p4598
sg694
F0.01
sg702
F10.0
sg710
F1.0
sg718
F2.0
sg726
F3.0
sg734
S'PARSEC'
p4599
sg743
S'PARSEC'
p4600
sg752
F4.7e+40
sg760
F4.7e+40
sg768
S'BHMCatP0017'
p4601
sg777
F0.1
sg785
S'BHMCatS0016P'
p4602
sg794
S'V69-47 Tuc h'
p4603
sg803
F3.0
sg811
S'V69-47 Tuc'
p4604
sg820
S"'recent venus'"
p4605
sg829
S"'runaway greenhouse'"
p4606
sg838
F11.3
sg846
F0.0
sg854
F1.0
sg862
F5.0
sg870
F0.01
sg878
F0.3
sssg886
F4.1
sg894
F-1.0
sg902
S'2010AJ....139..329T ;'
p4607
sg910
F0.876
sg918
F1.315
sg926
F-1.0
sg934
F5945.0
sg942
F89.77
sg950
F-1.0
sg958
F0.056
sg966
F0.005
sg974
F166.0
sg982
S'BHMCatP0017;'
p4608
sg991
F150.0
sg999
F0.980593607305936
sg1007
S'DEBCat'
p4609
sg1016
S'V69-47 Tuc  A'
p4610
sg1025
F0.38137499999999996
sg1033
F-1.0
sg1041
F-1.0
sg1049
F4418.0
sg1057
F-1.0
sg1065
F-1.0
sg1073
F0.224821648395722
sg1081
F-1.0
sg1089
F16.85
sg1097
g4576
sg1105
F-1.0
sg1113
F0.006
sg1121
F-1.0
sg1129
S'0016'
p4611
sg1138
F-1.0
sg1146
F-1.0
sg1154
F29.53975
sg1162
F-1.0
sg1170
F-1.0
sg1178
F-1.0
sg1186
F-1.0
sg1194
F150.0
ss.