(dp0
S'BHMCatS0045P'
p1
(dp2
cnumpy.core.multiarray
scalar
p3
(cnumpy
dtype
p4
(S'S13'
p5
I0
I1
tp6
Rp7
(I3
S'|'
p8
NNNI13
I1
I0
tp9
bS'binary_FeHfit'
p10
tp11
Rp12
F-1.0
sg3
(g4
(S'S16'
p13
I0
I1
tp14
Rp15
(I3
S'|'
p16
NNNI16
I1
I0
tp17
bS'star2_str_StarID'
p18
tp19
Rp20
S'V1143 Cyg B'
p21
sg3
(g4
(S'S10'
p22
I0
I1
tp23
Rp24
(I3
S'|'
p25
NNNI10
I1
I0
tp26
bS'star1_logg'
p27
tp28
Rp29
F4.323
sg3
(g4
(S'S16'
p30
I0
I1
tp31
Rp32
(I3
S'|'
p33
NNNI16
I1
I0
tp34
bS'binary_str_SysID'
p35
tp36
Rp37
S'V1143 Cyg'
p38
sg3
(g4
(S'S2'
p39
I0
I1
tp40
Rp41
(I3
S'|'
p42
NNNI2
I1
I0
tp43
bS'No'
p44
tp45
Rp46
I45
sg3
(g4
(S'S7'
p47
I0
I1
tp48
Rp49
(I3
S'|'
p50
NNNI7
I1
I0
tp51
bS'star2_T'
p52
tp53
Rp54
F6400.0
sg3
(g4
(S'S13'
p55
I0
I1
tp56
Rp57
(I3
S'|'
p58
NNNI13
I1
I0
tp59
bS'star2_loggerr'
p60
tp61
Rp62
F0.016
sg3
(g4
(S'S13'
p63
I0
I1
tp64
Rp65
(I3
S'|'
p66
NNNI13
I1
I0
tp67
bS'star2_Proterr'
p68
tp69
Rp70
F-1.0
sg3
(g4
(S'S10'
p71
I0
I1
tp72
Rp73
(I3
S'|'
p74
NNNI10
I1
I0
tp75
bS'star1_Rerr'
p76
tp77
Rp78
F0.023
sg3
(g4
(S'S7'
p79
I0
I1
tp80
Rp81
(I3
S'|'
p82
NNNI7
I1
I0
tp83
bS'star2_R'
p84
tp85
Rp86
F1.323
sg3
(g4
(S'S13'
p87
I0
I1
tp88
Rp89
(I3
S'|'
p90
NNNI13
I1
I0
tp91
bS'binary_taumax'
p92
tp93
Rp94
F-1.0
sg3
(g4
(S'S7'
p95
I0
I1
tp96
Rp97
(I3
S'|'
p98
NNNI7
I1
I0
tp99
bS'star2_M'
p100
tp101
Rp102
F1.347
sg3
(g4
(S'S11'
p103
I0
I1
tp104
Rp105
(I3
S'|'
p106
NNNI11
I1
I0
tp107
bS'binary_Pbin'
p108
tp109
Rp110
F7.64075217
sg3
(g4
(S'S11'
p111
I0
I1
tp112
Rp113
(I3
S'|'
p114
NNNI11
I1
I0
tp115
bS'binary_Zfit'
p116
tp117
Rp118
F-1.0
sg3
(g4
(S'S3'
p119
I0
I1
tp120
Rp121
(I3
S'|'
p122
NNNI3
I1
I0
tp123
bS'DEC'
p124
tp125
Rp126
F54.973794444444444
sg3
(g4
(S'S4'
p127
I0
I1
tp128
Rp129
(I3
S'|'
p130
NNNI4
I1
I0
tp131
bS'Type'
p132
tp133
Rp134
S'P'
p135
sg3
(g4
(S'S14'
p136
I0
I1
tp137
Rp138
(I3
S'|'
p139
NNNI14
I1
I0
tp140
bS'star2_vsinierr'
p141
tp142
Rp143
F3.0
sg3
(g4
(S'S10'
p144
I0
I1
tp145
Rp146
(I3
S'|'
p147
NNNI10
I1
I0
tp148
bS'star2_Rerr'
p149
tp150
Rp151
F0.023
sg3
(g4
(S'S15'
p152
I0
I1
tp153
Rp154
(I3
S'|'
p155
NNNI15
I1
I0
tp156
bS'star1_str_Stype'
p157
tp158
Rp159
S'F5V'
p160
sS'PlanetsData'
p161
(lp162
(dp163
g3
(g4
(S'S7'
p164
I0
I1
tp165
Rp166
(I3
S'|'
p167
NNNI7
I1
I0
tp168
bS'BHMCatP'
p169
tp170
Rp171
S'BHMCatP0000'
p172
sg3
(g4
(S'S11'
p173
I0
I1
tp174
Rp175
(I3
S'|'
p176
NNNI11
I1
I0
tp177
bS'planet_Merr'
p178
tp179
Rp180
F0.0
sg3
(g4
(S'S11'
p181
I0
I1
tp182
Rp183
(I3
S'|'
p184
NNNI11
I1
I0
tp185
bS'planet_eorb'
p186
tp187
Rp188
F0.0
sg3
(g4
(S'S7'
p189
I0
I1
tp190
Rp191
(I3
S'|'
p192
NNNI7
I1
I0
tp193
bS'BHMCatS'
p194
tp195
Rp196
S'-'
p197
sg3
(g4
(S'S14'
p198
I0
I1
tp199
Rp200
(I3
S'|'
p201
NNNI14
I1
I0
tp202
bS'planet_eorberr'
p203
tp204
Rp205
F0.0
sg3
(g4
(S'S3'
p206
I0
I1
tp207
Rp208
(I3
S'|'
p209
NNNI3
I1
I0
tp210
bS'Nop'
p211
tp212
Rp213
S'0'
p214
sg3
(g4
(S'S10'
p215
I0
I1
tp216
Rp217
(I3
S'|'
p218
NNNI10
I1
I0
tp219
bS'planet_ADS'
p220
tp221
Rp222
S'2011Sci...333.1602D;2011ApJ...741L...1W'
p223
sg3
(g4
(S'S8'
p224
I0
I1
tp225
Rp226
(I3
S'|'
p227
NNNI8
I1
I0
tp228
bS'PlanetID'
p229
tp230
Rp231
S'Earth-like'
p232
sg3
(g4
(S'S6'
p233
I0
I1
tp234
Rp235
(I3
S'|'
p236
NNNI6
I1
I0
tp237
bS'Nopstr'
p238
tp239
Rp240
S'0000'
p241
sg3
(g4
(S'S8'
p242
I0
I1
tp243
Rp244
(I3
S'|'
p245
NNNI8
I1
I0
tp246
bS'planet_R'
p247
tp248
Rp249
F1.000001
sg3
(g4
(S'S14'
p250
I0
I1
tp251
Rp252
(I3
S'|'
p253
NNNI14
I1
I0
tp254
bS'planet_aorberr'
p255
tp256
Rp257
F0.0
sg3
(g4
(S'S5'
p258
I0
I1
tp259
Rp260
(I3
S'|'
p261
NNNI5
I1
I0
tp262
bS'SysID'
p263
tp264
Rp265
S'Sun'
p266
sg3
(g4
(S'S8'
p267
I0
I1
tp268
Rp269
(I3
S'|'
p270
NNNI8
I1
I0
tp271
bS'planet_M'
p272
tp273
Rp274
F1.000001
sg3
(g4
(S'S11'
p275
I0
I1
tp276
Rp277
(I3
S'|'
p278
NNNI11
I1
I0
tp279
bS'planet_worb'
p280
tp281
Rp282
F0.0
sg3
(g4
(S'S11'
p283
I0
I1
tp284
Rp285
(I3
S'|'
p286
NNNI11
I1
I0
tp287
bS'planet_aorb'
p288
tp289
Rp290
F1.0
sg3
(g4
(S'S14'
p291
I0
I1
tp292
Rp293
(I3
S'|'
p294
NNNI14
I1
I0
tp295
bS'planet_Porberr'
p296
tp297
Rp298
F0.0
sg3
(g4
(S'S14'
p299
I0
I1
tp300
Rp301
(I3
S'|'
p302
NNNI14
I1
I0
tp303
bS'planet_worberr'
p304
tp305
Rp306
F0.0
sg3
(g4
(S'S11'
p307
I0
I1
tp308
Rp309
(I3
S'|'
p310
NNNI11
I1
I0
tp311
bS'planet_Morb'
p312
tp313
Rp314
F1.0
sg3
(g4
(S'S11'
p315
I0
I1
tp316
Rp317
(I3
S'|'
p318
NNNI11
I1
I0
tp319
bS'planet_Porb'
p320
tp321
Rp322
F0.0
sg3
(g4
(S'S4'
p323
I0
I1
tp324
Rp325
(I3
S'|'
p326
NNNI4
I1
I0
tp327
bS'Type'
p328
tp329
Rp330
S'a'
p331
sg3
(g4
(S'S11'
p332
I0
I1
tp333
Rp334
(I3
S'|'
p335
NNNI11
I1
I0
tp336
bS'planet_Rerr'
p337
tp338
Rp339
F0.0
sasg3
(g4
(S'S11'
p340
I0
I1
tp341
Rp342
(I3
S'|'
p343
NNNI11
I1
I0
tp344
bS'binary_wbin'
p345
tp346
Rp347
F-1.0
sg3
(g4
(S'S9'
p348
I0
I1
tp349
Rp350
(I3
S'|'
p351
NNNI9
I1
I0
tp352
bS'SourceCat'
p353
tp354
Rp355
S'EkCat'
p356
sg3
(g4
(S'S10'
p357
I0
I1
tp358
Rp359
(I3
S'|'
p360
NNNI10
I1
I0
tp361
bS'star2_logg'
p362
tp363
Rp364
F4.324
sg3
(g4
(S'S11'
p365
I0
I1
tp366
Rp367
(I3
S'|'
p368
NNNI11
I1
I0
tp369
bS'binary_ibin'
p370
tp371
Rp372
F87.0
sg3
(g4
(S'S8'
p373
I0
I1
tp374
Rp375
(I3
S'|'
p376
NNNI8
I1
I0
tp377
bS'SourceID'
p378
tp379
Rp380
S'199'
p381
sS'PlanetsModel'
p382
(dp383
S'BHMCatP0000'
p384
(dp385
g3
(g4
(S'S10'
p386
I0
I1
tp387
Rp388
(I3
S'|'
p389
NNNI10
I1
I0
tp390
bS'star2_Pini'
p391
tp392
Rp393
F10.0
sg3
(g4
(S'S7'
p394
I0
I1
tp395
Rp396
(I3
S'|'
p397
NNNI7
I1
I0
tp398
bS'star1_a'
p399
tp400
Rp401
F1.0
sg3
(g4
(S'S11'
p402
I0
I1
tp403
Rp404
(I3
S'|'
p405
NNNI11
I1
I0
tp406
bS'star1_taums'
p407
tp408
Rp409
F0.0
sg3
(g4
(S'S7'
p410
I0
I1
tp411
Rp412
(I3
S'|'
p413
NNNI7
I1
I0
tp414
bS'star2_Z'
p415
tp416
Rp417
F0.0
sg3
(g4
(S'S10'
p418
I0
I1
tp419
Rp420
(I3
S'|'
p421
NNNI10
I1
I0
tp422
bS'planet_tau'
p423
tp424
Rp425
F1.0
sg3
(g4
(S'S9'
p426
I0
I1
tp427
Rp428
(I3
S'|'
p429
NNNI9
I1
I0
tp430
bS'star1_FeH'
p431
tp432
Rp433
F0.0
sg3
(g4
(S'S17'
p434
I0
I1
tp435
Rp436
(I3
S'|'
p437
NNNI17
I1
I0
tp438
bS'hz_str_outcrit_wd'
p439
tp440
Rp441
S"'early mars'"
p442
sg3
(g4
(S'S14'
p443
I0
I1
tp444
Rp445
(I3
S'|'
p446
NNNI14
I1
I0
tp447
bS'interaction_nP'
p448
tp449
Rp450
F6.0
sg3
(g4
(S'S11'
p451
I0
I1
tp452
Rp453
(I3
S'|'
p454
NNNI11
I1
I0
tp455
bS'star2_taums'
p456
tp457
Rp458
F0.0
sg3
(g4
(S'S8'
p459
I0
I1
tp460
Rp461
(I3
S'|'
p462
NNNI8
I1
I0
tp463
bS'planet_R'
p464
tp465
Rp466
F1.000001
sg3
(g4
(S'S13'
p467
I0
I1
tp468
Rp469
(I3
S'|'
p470
NNNI13
I1
I0
tp471
bS'star1_taudisk'
p472
tp473
Rp474
F0.01
sg3
(g4
(S'S11'
p475
I0
I1
tp476
Rp477
(I3
S'|'
p478
NNNI11
I1
I0
tp479
bS'planet_Prot'
p480
tp481
Rp482
F1.0
sg3
(g4
(S'S9'
p483
I0
I1
tp484
Rp485
(I3
S'|'
p486
NNNI9
I1
I0
tp487
bS'star2_FeH'
p488
tp489
Rp490
F0.0
sg3
(g4
(S'S11'
p491
I0
I1
tp492
Rp493
(I3
S'|'
p494
NNNI11
I1
I0
tp495
bS'planet_fHHe'
p496
tp497
Rp498
F0.8
sg3
(g4
(S'S16'
p499
I0
I1
tp500
Rp501
(I3
S'|'
p502
NNNI16
I1
I0
tp503
bS'interaction_Mmax'
p504
tp505
Rp506
F10.0
sg3
(g4
(S'S8'
p507
I0
I1
tp508
Rp509
(I3
S'|'
p510
NNNI8
I1
I0
tp511
bS'planet_M'
p512
tp513
Rp514
F1.000001
sg3
(g4
(S'S10'
p515
I0
I1
tp516
Rp517
(I3
S'|'
p518
NNNI10
I1
I0
tp519
bS'star2_wsat'
p520
tp521
Rp522
F10.0
sg3
(g4
(S'S7'
p523
I0
I1
tp524
Rp525
(I3
S'|'
p526
NNNI7
I1
I0
tp527
bS'star2_n'
p528
tp529
Rp530
F1.5
sg3
(g4
(S'S17'
p531
I0
I1
tp532
Rp533
(I3
S'|'
p534
NNNI17
I1
I0
tp535
bS'interaction_muatm'
p536
tp537
Rp538
F44.0
sg3
(g4
(S'S7'
p539
I0
I1
tp540
Rp541
(I3
S'|'
p542
NNNI7
I1
I0
tp543
bS'star1_Z'
p544
tp545
Rp546
F0.0
sg3
(g4
(S'S7'
p547
I0
I1
tp548
Rp549
(I3
S'|'
p550
NNNI7
I1
I0
tp551
bS'star2_a'
p552
tp553
Rp554
F1.0
sg3
(g4
(S'S10'
p555
I0
I1
tp556
Rp557
(I3
S'|'
p558
NNNI10
I1
I0
tp559
bS'star1_wsat'
p560
tp561
Rp562
F10.0
sg3
(g4
(S'S17'
p563
I0
I1
tp564
Rp565
(I3
S'|'
p566
NNNI17
I1
I0
tp567
bS'hz_str_outcrit_nr'
p568
tp569
Rp570
S"'maximum greenhouse'"
p571
sg3
(g4
(S'S17'
p572
I0
I1
tp573
Rp574
(I3
S'|'
p575
NNNI17
I1
I0
tp576
bS'interaction_alpha'
p577
tp578
Rp579
F0.3
sg3
(g4
(S'S8'
p580
I0
I1
tp581
Rp582
(I3
S'|'
p583
NNNI8
I1
I0
tp584
bS'star1_Kw'
p585
tp586
Rp587
F5e+40
sg3
(g4
(S'S16'
p588
I0
I1
tp589
Rp590
(I3
S'|'
p591
NNNI16
I1
I0
tp592
bS'interaction_Mmin'
p593
tp594
Rp595
F0.01
sg3
(g4
(S'S7'
p596
I0
I1
tp597
Rp598
(I3
S'|'
p599
NNNI7
I1
I0
tp600
bS'star1_n'
p601
tp602
Rp603
F1.5
sg3
(g4
(S'S18'
p604
I0
I1
tp605
Rp606
(I3
S'|'
p607
NNNI18
I1
I0
tp608
bS'interaction_tauref'
p609
tp610
Rp611
F2.0
sg3
(g4
(S'S14'
p612
I0
I1
tp613
Rp614
(I3
S'|'
p615
NNNI14
I1
I0
tp616
bS'interaction_nM'
p617
tp618
Rp619
F3.0
sg3
(g4
(S'S15'
p620
I0
I1
tp621
Rp622
(I3
S'|'
p623
NNNI15
I1
I0
tp624
bS'star2_str_model'
p625
tp626
Rp627
S'BCA98'
p628
sg3
(g4
(S'S15'
p629
I0
I1
tp630
Rp631
(I3
S'|'
p632
NNNI15
I1
I0
tp633
bS'star1_str_model'
p634
tp635
Rp636
S'BCA98'
p637
sg3
(g4
(S'S10'
p638
I0
I1
tp639
Rp640
(I3
S'|'
p641
NNNI10
I1
I0
tp642
bS'rotation_k'
p643
tp644
Rp645
F1.0
sg3
(g4
(S'S9'
p646
I0
I1
tp647
Rp648
(I3
S'|'
p649
NNNI9
I1
I0
tp650
bS'star1_tau'
p651
tp652
Rp653
F1.0
sg3
(g4
(S'S8'
p654
I0
I1
tp655
Rp656
(I3
S'|'
p657
NNNI8
I1
I0
tp658
bS'star2_Kw'
p659
tp660
Rp661
F5e+40
sg3
(g4
(S'S7'
p662
I0
I1
tp663
Rp664
(I3
S'|'
p665
NNNI7
I1
I0
tp666
bS'BHMCatP'
p667
tp668
Rp669
S'BHMCatP0000'
p670
sg3
(g4
(S'S18'
p671
I0
I1
tp672
Rp673
(I3
S'|'
p674
NNNI18
I1
I0
tp675
bS'interaction_tauini'
p676
tp677
Rp678
F0.1
sg3
(g4
(S'S7'
p679
I0
I1
tp680
Rp681
(I3
S'|'
p682
NNNI7
I1
I0
tp683
bS'BHMCatS'
p684
tp685
Rp686
S'BHMCatS0045P'
p687
sg3
(g4
(S'S8'
p688
I0
I1
tp689
Rp690
(I3
S'|'
p691
NNNI8
I1
I0
tp692
bS'PlanetID'
p693
tp694
Rp695
S'Earth-like'
p696
sg3
(g4
(S'S10'
p697
I0
I1
tp698
Rp699
(I3
S'|'
p700
NNNI10
I1
I0
tp701
bS'star1_Pini'
p702
tp703
Rp704
F10.0
sg3
(g4
(S'S5'
p705
I0
I1
tp706
Rp707
(I3
S'|'
p708
NNNI5
I1
I0
tp709
bS'SysID'
p710
tp711
Rp712
S'V1143 Cyg'
p713
sg3
(g4
(S'S16'
p714
I0
I1
tp715
Rp716
(I3
S'|'
p717
NNNI16
I1
I0
tp718
bS'hz_str_incrit_wd'
p719
tp720
Rp721
S"'recent venus'"
p722
sg3
(g4
(S'S16'
p723
I0
I1
tp724
Rp725
(I3
S'|'
p726
NNNI16
I1
I0
tp727
bS'hz_str_incrit_nr'
p728
tp729
Rp730
S"'runaway greenhouse'"
p731
sg3
(g4
(S'S9'
p732
I0
I1
tp733
Rp734
(I3
S'|'
p735
NNNI9
I1
I0
tp736
bS'star2_tau'
p737
tp738
Rp739
F1.0
sg3
(g4
(S'S22'
p740
I0
I1
tp741
Rp742
(I3
S'|'
p743
NNNI22
I1
I0
tp744
bS'interaction_str_refobj'
p745
tp746
Rp747
S"'Earth'"
p748
sg3
(g4
(S'S13'
p749
I0
I1
tp750
Rp751
(I3
S'|'
p752
NNNI13
I1
I0
tp753
bS'star2_taudisk'
p754
tp755
Rp756
F0.01
sg3
(g4
(S'S10'
p757
I0
I1
tp758
Rp759
(I3
S'|'
p760
NNNI10
I1
I0
tp761
bS'planet_CMF'
p762
tp763
Rp764
F0.3
sssg3
(g4
(S'S9'
p765
I0
I1
tp766
Rp767
(I3
S'|'
p768
NNNI9
I1
I0
tp769
bS'binary_BV'
p770
tp771
Rp772
F-1.0
sg3
(g4
(S'S11'
p773
I0
I1
tp774
Rp775
(I3
S'|'
p776
NNNI11
I1
I0
tp777
bS'star1_Protv'
p778
tp779
Rp780
g3
(g4
(S'f8'
p781
I0
I1
tp782
Rp783
(I3
S'<'
p784
NNNI-1
I-1
I0
tp785
bS'\x05~\xd0\xef,7\x0e@'
p786
tp787
Rp788
sg3
(g4
(S'S10'
p789
I0
I1
tp790
Rp791
(I3
S'|'
p792
NNNI10
I1
I0
tp793
bS'binary_ADS'
p794
tp795
Rp796
S'1987A&A...174..107A;'
p797
sg3
(g4
(S'S7'
p798
I0
I1
tp799
Rp800
(I3
S'|'
p801
NNNI7
I1
I0
tp802
bS'star1_M'
p803
tp804
Rp805
F1.391
sg3
(g4
(S'S7'
p806
I0
I1
tp807
Rp808
(I3
S'|'
p809
NNNI7
I1
I0
tp810
bS'star1_R'
p811
tp812
Rp813
F1.346
sg3
(g4
(S'S13'
p814
I0
I1
tp815
Rp816
(I3
S'|'
p817
NNNI13
I1
I0
tp818
bS'star1_Proterr'
p819
tp820
Rp821
F-1.0
sg3
(g4
(S'S5'
p822
I0
I1
tp823
Rp824
(I3
S'|'
p825
NNNI5
I1
I0
tp826
bS'Nostr'
p827
tp828
Rp829
S'0045'
p830
sg3
(g4
(S'S13'
p831
I0
I1
tp832
Rp833
(I3
S'|'
p834
NNNI13
I1
I0
tp835
bS'star1_loggerr'
p836
tp837
Rp838
F0.016
sg3
(g4
(S'S10'
p839
I0
I1
tp840
Rp841
(I3
S'|'
p842
NNNI10
I1
I0
tp843
bS'star2_Prot'
p844
tp845
Rp846
F-1.0
sg3
(g4
(S'S2'
p847
I0
I1
tp848
Rp849
(I3
S'|'
p850
NNNI2
I1
I0
tp851
bS'RA'
p852
tp853
Rp854
F19.644772222222223
sg3
(g4
(S'S10'
p855
I0
I1
tp856
Rp857
(I3
S'|'
p858
NNNI10
I1
I0
tp859
bS'star1_Merr'
p860
tp861
Rp862
F0.016
sg3
(g4
(S'S11'
p863
I0
I1
tp864
Rp865
(I3
S'|'
p866
NNNI11
I1
I0
tp867
bS'binary_derr'
p868
tp869
Rp870
F2.0
sg3
(g4
(S'S7'
p871
I0
I1
tp872
Rp873
(I3
S'|'
p874
NNNI7
I1
I0
tp875
bS'Planets'
p876
tp877
Rp878
g197
sg3
(g4
(S'S10'
p879
I0
I1
tp880
Rp881
(I3
S'|'
p882
NNNI10
I1
I0
tp883
bS'star2_Terr'
p884
tp885
Rp886
F100.0
sg3
(g4
(S'S8'
p887
I0
I1
tp888
Rp889
(I3
S'|'
p890
NNNI8
I1
I0
tp891
bS'binary_q'
p892
tp893
Rp894
F0.968368080517613
sg3
(g4
(S'S5'
p895
I0
I1
tp896
Rp897
(I3
S'|'
p898
NNNI5
I1
I0
tp899
bS'Notes'
p900
tp901
Rp902
S''
p903
sg3
(g4
(S'S16'
p904
I0
I1
tp905
Rp906
(I3
S'|'
p907
NNNI16
I1
I0
tp908
bS'star1_str_StarID'
p909
tp910
Rp911
S'V1143 Cyg A'
p912
sg3
(g4
(S'S10'
p913
I0
I1
tp914
Rp915
(I3
S'|'
p916
NNNI10
I1
I0
tp917
bS'star1_Prot'
p918
tp919
Rp920
F-1.0
sg3
(g4
(S'S8'
p921
I0
I1
tp922
Rp923
(I3
S'|'
p924
NNNI8
I1
I0
tp925
bS'binary_d'
p926
tp927
Rp928
F38.0
sg3
(g4
(S'S15'
p929
I0
I1
tp930
Rp931
(I3
S'|'
p932
NNNI15
I1
I0
tp933
bS'star2_str_Stype'
p934
tp935
Rp936
S'F5V'
p937
sg3
(g4
(S'S14'
p938
I0
I1
tp939
Rp940
(I3
S'|'
p941
NNNI14
I1
I0
tp942
bS'star2_Protverr'
p943
tp944
Rp945
g3
(g783
S'Su\xc7hh]\xd0?'
p946
tp947
Rp948
sg3
(g4
(S'S11'
p949
I0
I1
tp950
Rp951
(I3
S'|'
p952
NNNI11
I1
I0
tp953
bS'binary_abin'
p954
tp955
Rp956
F0.106173536229947
sg3
(g4
(S'S11'
p957
I0
I1
tp958
Rp959
(I3
S'|'
p960
NNNI11
I1
I0
tp961
bS'star2_Protv'
p962
tp963
Rp964
g3
(g783
S'\xe1\x08>z\xa4\x17\x03@'
p965
tp966
Rp967
sg3
(g4
(S'S8'
p968
I0
I1
tp969
Rp970
(I3
S'|'
p971
NNNI8
I1
I0
tp972
bS'binary_V'
p973
tp974
Rp975
F5.887
sg3
(g4
(S'S7'
p976
I0
I1
tp977
Rp978
(I3
S'|'
p979
NNNI7
I1
I0
tp980
bS'star1_T'
p981
tp982
Rp983
F6460.0
sg3
(g4
(S'S7'
p984
I0
I1
tp985
Rp986
(I3
S'|'
p987
NNNI7
I1
I0
tp988
bS'BHMCatS'
p989
tp990
Rp991
g1
sg3
(g4
(S'S9'
p992
I0
I1
tp993
Rp994
(I3
S'|'
p995
NNNI9
I1
I0
tp996
bS'binary_Lx'
p997
tp998
Rp999
F-1.0
sg3
(g4
(S'S10'
p1000
I0
I1
tp1001
Rp1002
(I3
S'|'
p1003
NNNI10
I1
I0
tp1004
bS'star2_Merr'
p1005
tp1006
Rp1007
F0.013
sg3
(g4
(S'S14'
p1008
I0
I1
tp1009
Rp1010
(I3
S'|'
p1011
NNNI14
I1
I0
tp1012
bS'star1_vsinierr'
p1013
tp1014
Rp1015
F2.0
sg3
(g4
(S'S16'
p1016
I0
I1
tp1017
Rp1018
(I3
S'|'
p1019
NNNI16
I1
I0
tp1020
bS'binary_FeHfiterr'
p1021
tp1022
Rp1023
F-1.0
sg3
(g4
(S'S13'
p1024
I0
I1
tp1025
Rp1026
(I3
S'|'
p1027
NNNI13
I1
I0
tp1028
bS'binary_FeHobs'
p1029
tp1030
Rp1031
F-1.0
sg3
(g4
(S'S13'
p1032
I0
I1
tp1033
Rp1034
(I3
S'|'
p1035
NNNI13
I1
I0
tp1036
bS'binary_taumin'
p1037
tp1038
Rp1039
F-1.0
sg3
(g4
(S'S11'
p1040
I0
I1
tp1041
Rp1042
(I3
S'|'
p1043
NNNI11
I1
I0
tp1044
bS'binary_ebin'
p1045
tp1046
Rp1047
F0.54
sg3
(g4
(S'S11'
p1048
I0
I1
tp1049
Rp1050
(I3
S'|'
p1051
NNNI11
I1
I0
tp1052
bS'star1_vsini'
p1053
tp1054
Rp1055
F18.0
sg3
(g4
(S'S11'
p1056
I0
I1
tp1057
Rp1058
(I3
S'|'
p1059
NNNI11
I1
I0
tp1060
bS'binary_Zobs'
p1061
tp1062
Rp1063
F-1.0
sg3
(g4
(S'S14'
p1064
I0
I1
tp1065
Rp1066
(I3
S'|'
p1067
NNNI14
I1
I0
tp1068
bS'star1_Protverr'
p1069
tp1070
Rp1071
g3
(g783
S'\x04p\x80*\xb6\xdb\xda?'
p1072
tp1073
Rp1074
sg3
(g4
(S'S11'
p1075
I0
I1
tp1076
Rp1077
(I3
S'|'
p1078
NNNI11
I1
I0
tp1079
bS'star2_vsini'
p1080
tp1081
Rp1082
F28.0
sg3
(g4
(S'S11'
p1083
I0
I1
tp1084
Rp1085
(I3
S'|'
p1086
NNNI11
I1
I0
tp1087
bS'binary_dmod'
p1088
tp1089
Rp1090
F-1.0
sg3
(g4
(S'S10'
p1091
I0
I1
tp1092
Rp1093
(I3
S'|'
p1094
NNNI10
I1
I0
tp1095
bS'star1_Terr'
p1096
tp1097
Rp1098
F100.0
ssS'FieldsPriority'
p1099
(dp1100
g12
I2
sg20
I100
sg29
I3
sg37
I1
sg46
I100
sg54
I3
sg62
I4
sg70
I4
sg78
I4
sg86
I3
sg94
I3
sg102
I1
sg110
I1
sg118
I2
sg126
I3
sg134
I100
sg143
I4
sg151
I4
sg159
I2
sg347
I4
sg355
I3
sg364
I3
sg372
I2
sg380
I3
sg772
I2
sg780
I3
sg796
I1
sg805
I1
sg813
I3
sg821
I4
sg829
I1
sg838
I4
sg846
I2
sg854
I3
sg862
I4
sg870
I4
sg878
I1
sg886
I4
sg894
I100
sg902
I100
sg911
I100
sg920
I2
sg928
I2
sg936
I2
sg945
I4
sg956
I1
sg964
I3
sg975
I2
sg983
I3
sg991
I1
sg999
I3
sg1007
I4
sg1015
I4
sg1023
I4
sg1031
I2
sg1039
I3
sg1047
I1
sg1055
I3
sg1063
I2
sg1071
I4
sg1082
I3
sg1090
I2
sg1098
I4
ssS'PlanetFieldsType'
p1101
(dp1102
g171
g3
(g4
(S'S3'
p1103
I0
I1
tp1104
Rp1105
(I3
S'|'
p1106
NNNI3
I1
I0
tp1107
bS'str'
p1108
tp1109
Rp1110
sg180
g3
(g4
(S'S5'
p1111
I0
I1
tp1112
Rp1113
(I3
S'|'
p1114
NNNI5
I1
I0
tp1115
bS'float'
p1116
tp1117
Rp1118
sg188
g3
(g4
(S'S5'
p1119
I0
I1
tp1120
Rp1121
(I3
S'|'
p1122
NNNI5
I1
I0
tp1123
bS'float'
p1124
tp1125
Rp1126
sg196
g3
(g4
(S'S3'
p1127
I0
I1
tp1128
Rp1129
(I3
S'|'
p1130
NNNI3
I1
I0
tp1131
bS'str'
p1132
tp1133
Rp1134
sg205
g3
(g4
(S'S5'
p1135
I0
I1
tp1136
Rp1137
(I3
S'|'
p1138
NNNI5
I1
I0
tp1139
bS'float'
p1140
tp1141
Rp1142
sg213
g3
(g4
(S'S3'
p1143
I0
I1
tp1144
Rp1145
(I3
S'|'
p1146
NNNI3
I1
I0
tp1147
bS'str'
p1148
tp1149
Rp1150
sg222
g3
(g4
(S'S3'
p1151
I0
I1
tp1152
Rp1153
(I3
S'|'
p1154
NNNI3
I1
I0
tp1155
bS'str'
p1156
tp1157
Rp1158
sg231
g3
(g4
(S'S3'
p1159
I0
I1
tp1160
Rp1161
(I3
S'|'
p1162
NNNI3
I1
I0
tp1163
bS'str'
p1164
tp1165
Rp1166
sg240
g3
(g4
(S'S3'
p1167
I0
I1
tp1168
Rp1169
(I3
S'|'
p1170
NNNI3
I1
I0
tp1171
bS'str'
p1172
tp1173
Rp1174
sg249
g3
(g4
(S'S5'
p1175
I0
I1
tp1176
Rp1177
(I3
S'|'
p1178
NNNI5
I1
I0
tp1179
bS'float'
p1180
tp1181
Rp1182
sg257
g3
(g4
(S'S5'
p1183
I0
I1
tp1184
Rp1185
(I3
S'|'
p1186
NNNI5
I1
I0
tp1187
bS'float'
p1188
tp1189
Rp1190
sg265
g3
(g4
(S'S3'
p1191
I0
I1
tp1192
Rp1193
(I3
S'|'
p1194
NNNI3
I1
I0
tp1195
bS'str'
p1196
tp1197
Rp1198
sg274
g3
(g4
(S'S5'
p1199
I0
I1
tp1200
Rp1201
(I3
S'|'
p1202
NNNI5
I1
I0
tp1203
bS'float'
p1204
tp1205
Rp1206
sg282
g3
(g4
(S'S5'
p1207
I0
I1
tp1208
Rp1209
(I3
S'|'
p1210
NNNI5
I1
I0
tp1211
bS'float'
p1212
tp1213
Rp1214
sg290
g3
(g4
(S'S5'
p1215
I0
I1
tp1216
Rp1217
(I3
S'|'
p1218
NNNI5
I1
I0
tp1219
bS'float'
p1220
tp1221
Rp1222
sg298
g3
(g4
(S'S5'
p1223
I0
I1
tp1224
Rp1225
(I3
S'|'
p1226
NNNI5
I1
I0
tp1227
bS'float'
p1228
tp1229
Rp1230
sg306
g3
(g4
(S'S5'
p1231
I0
I1
tp1232
Rp1233
(I3
S'|'
p1234
NNNI5
I1
I0
tp1235
bS'float'
p1236
tp1237
Rp1238
sg314
g3
(g4
(S'S5'
p1239
I0
I1
tp1240
Rp1241
(I3
S'|'
p1242
NNNI5
I1
I0
tp1243
bS'float'
p1244
tp1245
Rp1246
sg322
g3
(g4
(S'S5'
p1247
I0
I1
tp1248
Rp1249
(I3
S'|'
p1250
NNNI5
I1
I0
tp1251
bS'float'
p1252
tp1253
Rp1254
sg330
g3
(g4
(S'S3'
p1255
I0
I1
tp1256
Rp1257
(I3
S'|'
p1258
NNNI3
I1
I0
tp1259
bS'str'
p1260
tp1261
Rp1262
sg339
g3
(g4
(S'S5'
p1263
I0
I1
tp1264
Rp1265
(I3
S'|'
p1266
NNNI5
I1
I0
tp1267
bS'float'
p1268
tp1269
Rp1270
ssS'BHMCatS0008D'
p1271
(dp1272
g12
F-0.34
sg20
S'KIC-9632895 B'
p1273
sg29
F4.803
sg37
S'KIC-9632895'
p1274
sg46
I8
sg54
F3309.0
sg62
F0.005
sg70
F-1.0
sg78
F0.011
sg86
F0.2143
sg94
F2.5
sg102
F0.1938
sg110
F27.322037
sg118
g3
(g783
S'\t\xde\r\x1a\x9e\x07~?'
p1275
tp1276
Rp1277
sg126
F46.37846944444445
sg134
S'D'
p1278
sg143
F-1.0
sg151
F0.0014
sg159
g197
sg161
(lp1279
(dp1280
g171
S'BHMCatP0009'
p1281
sg180
F-1.0
sg188
F0.0379
sg196
S'BHMCatS008D'
p1282
sg205
F0.0088
sg213
S'9'
p1283
sg222
S'2014arXiv1409.1605W'
p1284
sg231
S'KIC-9632895b'
p1285
sg240
S'0009'
p1286
sg249
F6.165
sg257
F0.0028
sg265
S'KIC-9632895'
p1287
sg274
F-1.0
sg282
F-178.59
sg290
F0.7877
sg298
F0.053
sg306
F0.0
sg314
F1.1278
sg322
F240.503
sg330
S'b'
p1288
sg339
F0.035
sasg347
F262.86
sg355
S'KIC'
p1289
sg364
F5.063
sg372
F90.275
sg380
S'9632895'
p1290
sg382
(dp1291
S'BHMCatP0009'
p1292
(dp1293
g393
F10.0
sg401
F1.0
sg409
F0.0
sg417
F0.0
sg425
F1.75
sg433
F-0.34
sg441
S"'early mars'"
p1294
sg450
F6.0
sg458
F0.0
sg466
F6.165
sg474
F0.01
sg482
F1.0
sg490
F-0.34
sg498
F0.8
sg506
F10.0
sg514
F0.0
sg522
F10.0
sg530
F1.5
sg538
F44.0
sg546
F0.0
sg554
F1.0
sg562
F10.0
sg570
S"'maximum greenhouse'"
p1295
sg579
F0.3
sg587
F5e+40
sg595
F0.01
sg603
F1.5
sg611
F2.0
sg619
F3.0
sg627
S'BCA98'
p1296
sg636
S'BCA98'
p1297
sg645
F1.0
sg653
F1.75
sg661
F5e+40
sg669
S'BHMCatP0009'
p1298
sg678
F0.1
sg686
S'BHMCatS0008D'
p1299
sg695
S'KIC-9632895b'
p1300
sg704
F10.0
sg712
S'KIC-9632895'
p1301
sg721
S"'recent venus'"
p1302
sg730
S"'runaway greenhouse'"
p1303
sg739
F1.75
sg747
S"'Earth'"
p1304
sg756
F0.01
sg764
F0.3
sssg772
F0.055
sg780
g3
(g783
S'0\xde\x85\r\x9e,6@'
p1305
tp1306
Rp1307
sg796
S'2014arXiv1409.1605W;'
p1308
sg805
F0.934
sg813
F0.833
sg821
F0.47
sg829
S'0008'
p1309
sg838
F0.015
sg846
F-1.0
sg854
F18.882753333333334
sg862
F0.01
sg870
F-1.0
sg878
S'BHMCatP0009;'
p1310
sg886
F100.0
sg894
F0.207494646680942
sg902
g903
sg911
S'KIC-9632895 A'
p1311
sg920
F20.31
sg928
F-1.0
sg936
g197
sg945
F-1.0
sg956
F0.18749
sg964
F-1.0
sg975
F13.552
sg983
F5527.0
sg991
g1271
sg999
F-1.0
sg1007
F0.002
sg1015
F1.0
sg1023
F-1.0
sg1031
F-0.343
sg1039
F1.0
sg1047
F0.05099
sg1055
F1.9
sg1063
g3
(g783
S'R\xb3\x00z^\xd5}?'
p1312
tp1313
Rp1314
sg1071
g3
(g783
S"\xef\xce\xc2\x00cW'@"
p1315
tp1316
Rp1317
sg1082
F-1.0
sg1090
g3
(g783
S'\x07\x92[\rg\xf9x@'
p1318
tp1319
Rp1320
sg1098
F100.0
ssS'BHMCatS0028P'
p1321
(dp1322
g12
F-1.0
sg20
S'V69-47 Tuc  B'
p1323
sg29
F4.1
sg37
S'V69-47 Tuc'
p1324
sg46
I28
sg54
F5959.0
sg62
F0.006
sg70
F-1.0
sg78
F0.005
sg86
F1.162
sg94
F-1.0
sg102
F0.859
sg110
F29.53975
sg118
F-1.0
sg126
F-71.9387
sg134
g135
sg143
F-1.0
sg151
F0.006
sg159
S'G type'
p1325
sg161
(lp1326
g163
asg347
F-1.0
sg355
S'EkCat'
p1327
sg364
F4.1
sg372
F89.77
sg380
S'3'
p1328
sg382
(dp1329
g384
(dp1330
g393
F10.0
sg401
F1.0
sg409
F0.0
sg417
F0.0
sg425
F1.0
sg433
F0.0
sg441
S"'early mars'"
p1331
sg450
F6.0
sg458
F0.0
sg466
F1.000001
sg474
F0.01
sg482
F1.0
sg490
F0.0
sg498
F0.8
sg506
F10.0
sg514
F1.000001
sg522
F10.0
sg530
F1.5
sg538
F44.0
sg546
F0.0
sg554
F1.0
sg562
F10.0
sg570
S"'maximum greenhouse'"
p1332
sg579
F0.3
sg587
F5e+40
sg595
F0.01
sg603
F1.5
sg611
F2.0
sg619
F3.0
sg627
S'BCA98'
p1333
sg636
S'BCA98'
p1334
sg645
F1.0
sg653
F1.0
sg661
F5e+40
sg669
g670
sg678
F0.1
sg686
S'BHMCatS0028P'
p1335
sg695
g696
sg704
F10.0
sg712
S'V69-47 Tuc'
p1336
sg721
S"'recent venus'"
p1337
sg730
S"'runaway greenhouse'"
p1338
sg739
F1.0
sg747
g748
sg756
F0.01
sg764
F0.3
sssg772
F-1.0
sg780
F-1.0
sg796
S'2010AJ....139..329T ;'
p1339
sg805
F0.876
sg813
F1.315
sg821
F-1.0
sg829
S'0028'
p1340
sg838
F0.004
sg846
F-1.0
sg854
F0.38137499999999996
sg862
F0.005
sg870
F166.0
sg878
g197
sg886
F150.0
sg894
F0.980593607305936
sg902
S'DEBCat'
p1341
sg911
S'V69-47 Tuc  A'
p1342
sg920
F-1.0
sg928
F4418.0
sg936
S'G type'
p1343
sg945
F-1.0
sg956
F0.224821648395722
sg964
F-1.0
sg975
F16.85
sg983
F5945.0
sg991
g1321
sg999
F-1.0
sg1007
F0.006
sg1015
F-1.0
sg1023
F-1.0
sg1031
F-1.0
sg1039
F-1.0
sg1047
F0.056
sg1055
F-1.0
sg1063
F-1.0
sg1071
F-1.0
sg1082
F-1.0
sg1090
F-1.0
sg1098
F150.0
ssS'BHMCatS0032P'
p1344
(dp1345
g12
F-1.0
sg20
S'LV Her B'
p1346
sg29
F4.249
sg37
S'LV Her'
p1347
sg46
I32
sg54
F6030.0
sg62
F0.008
sg70
F-1.0
sg78
F0.012
sg86
F1.313
sg94
F-1.0
sg102
F1.17
sg110
F18.4359535
sg118
F-1.0
sg126
F23.17516666666667
sg134
g135
sg143
F1.0
sg151
F0.011
sg159
S'F9V'
p1348
sg161
(lp1349
g163
asg347
F-1.0
sg355
S'EkCat'
p1350
sg364
F4.27
sg372
F89.55
sg380
S'154'
p1351
sg382
(dp1352
g384
(dp1353
g393
F10.0
sg401
F1.0
sg409
F0.0
sg417
F0.0
sg425
F1.0
sg433
F0.0
sg441
S"'early mars'"
p1354
sg450
F6.0
sg458
F0.0
sg466
F1.000001
sg474
F0.01
sg482
F1.0
sg490
F0.0
sg498
F0.8
sg506
F10.0
sg514
F1.000001
sg522
F10.0
sg530
F1.5
sg538
F44.0
sg546
F0.0
sg554
F1.0
sg562
F10.0
sg570
S"'maximum greenhouse'"
p1355
sg579
F0.3
sg587
F5e+40
sg595
F0.01
sg603
F1.5
sg611
F2.0
sg619
F3.0
sg627
S'BCA98'
p1356
sg636
S'BCA98'
p1357
sg645
F1.0
sg653
F1.0
sg661
F5e+40
sg669
g670
sg678
F0.1
sg686
S'BHMCatS0032P'
p1358
sg695
g696
sg704
F10.0
sg712
S'LV Her'
p1359
sg721
S"'recent venus'"
p1360
sg730
S"'runaway greenhouse'"
p1361
sg739
F1.0
sg747
g748
sg756
F0.01
sg764
F0.3
sssg772
F-1.0
sg780
g3
(g783
S'\x96L\xb1\x9e\x1c"\x15@'
p1362
tp1363
Rp1364
sg796
S'2009AJ....138.1622T;'
p1365
sg805
F1.193
sg813
F1.358
sg821
F-1.0
sg829
S'0032'
p1366
sg838
F0.008
sg846
F-1.0
sg854
F17.592333333333332
sg862
F0.01
sg870
F24.0
sg878
g197
sg886
F150.0
sg894
F0.980720871751886
sg902
S'DEBCat'
p1367
sg911
S'LV Her A'
p1368
sg920
F-1.0
sg928
F352.0
sg936
S'F9V'
p1369
sg945
g3
(g783
S'\x14\ni\x0f\xf4%\xd9?'
p1370
tp1371
Rp1372
sg956
F0.182091571122995
sg964
g3
(g783
S'0X\x85L\xd6n\x14@'
p1373
tp1374
Rp1375
sg975
F10.984
sg983
F6060.0
sg991
g1344
sg999
F-1.0
sg1007
F0.008
sg1015
F1.0
sg1023
F-1.0
sg1031
F-1.0
sg1039
F-1.0
sg1047
F0.613
sg1055
F13.0
sg1063
F-1.0
sg1071
g3
(g783
S'\xe06\xda`\x99\x02\xda?'
p1376
tp1377
Rp1378
sg1082
F13.0
sg1090
F-1.0
sg1098
F150.0
ssS'BHMCatS0024P'
p1379
(dp1380
g12
F-1.0
sg20
S'EW Ori B'
p1381
sg29
F-1.0
sg37
S'EW Ori'
p1382
sg46
I24
sg54
F5902.0
sg62
F-1.0
sg70
F-1.0
sg78
F0.005
sg86
F1.097
sg94
F-1.0
sg102
F1.123
sg110
F6.937
sg118
F-1.0
sg126
F2.044436111111111
sg134
g135
sg143
F-1.0
sg151
F0.005
sg159
S'G0V'
p1383
sg161
(lp1384
g163
asg347
F-1.0
sg355
S'DEBCat'
p1385
sg364
F-1.0
sg372
F-1.0
sg380
S'27'
p1386
sg382
(dp1387
g384
(dp1388
g393
F10.0
sg401
F1.0
sg409
F0.0
sg417
F0.0
sg425
F1.0
sg433
F0.0
sg441
S"'early mars'"
p1389
sg450
F6.0
sg458
F0.0
sg466
F1.000001
sg474
F0.01
sg482
F1.0
sg490
F0.0
sg498
F0.8
sg506
F10.0
sg514
F1.000001
sg522
F10.0
sg530
F1.5
sg538
F44.0
sg546
F0.0
sg554
F1.0
sg562
F10.0
sg570
S"'maximum greenhouse'"
p1390
sg579
F0.3
sg587
F5e+40
sg595
F0.01
sg603
F1.5
sg611
F2.0
sg619
F3.0
sg627
S'BCA98'
p1391
sg636
S'BCA98'
p1392
sg645
F1.0
sg653
F1.0
sg661
F5e+40
sg669
g670
sg678
F0.1
sg686
S'BHMCatS0024P'
p1393
sg695
g696
sg704
F10.0
sg712
S'EW Ori'
p1394
sg721
S"'recent venus'"
p1395
sg730
S"'runaway greenhouse'"
p1396
sg739
F1.0
sg747
g748
sg756
F0.01
sg764
F0.3
sssg772
F0.57
sg780
F-1.0
sg796
S'2010A%26A...511A..22C;'
p1397
sg805
F1.173
sg813
F1.168
sg821
F-1.0
sg829
S'0024'
p1398
sg838
F-1.0
sg846
F-1.0
sg854
F5.335875
sg862
F0.011
sg870
F-1.0
sg878
g197
sg886
F-1.0
sg894
F0.957374254049446
sg902
g903
sg911
S'EW Ori A'
p1399
sg920
F-1.0
sg928
F-1.0
sg936
S'G2V'
p1400
sg945
F-1.0
sg956
F0.0946
sg964
F-1.0
sg975
F9.09
sg983
F6067.0
sg991
g1379
sg999
F-1.0
sg1007
F0.009
sg1015
F-1.0
sg1023
F-1.0
sg1031
F-1.0
sg1039
F-1.0
sg1047
F0.0758
sg1055
F-1.0
sg1063
F-1.0
sg1071
F-1.0
sg1082
F-1.0
sg1090
g3
(g783
S'\xcaW.o\xfe\x1b^@'
p1401
tp1402
Rp1403
sg1098
F-1.0
ssS'BHMCatS0018V'
p1404
(dp1405
g12
F0.0
sg20
S'NICHE-010 B'
p1406
sg29
F-2.0
sg37
S'NICHE-010'
p1407
sg46
I18
sg54
F-2.0
sg62
F-2.0
sg70
F-2.0
sg78
F0.0
sg86
F-2.0
sg94
F-2.0
sg102
F0.7
sg110
F18.0
sg118
g3
(g783
S'0\xa8\x1bgj\x94\x8f?'
p1408
tp1409
Rp1410
sg126
F-2.0
sg134
S'V'
p1411
sg143
F-2.0
sg151
F0.0
sg159
g197
sg161
(lp1412
g163
asg347
F-1.0
sg355
S'NICHE'
p1413
sg364
F-2.0
sg372
F-2.0
sg380
S'10'
p1414
sg382
(dp1415
g384
(dp1416
g393
F10.0
sg401
F1.0
sg409
F0.0
sg417
F0.0
sg425
F1.0
sg433
F0.0
sg441
S"'early mars'"
p1417
sg450
F6.0
sg458
F0.0
sg466
F1.000001
sg474
F0.01
sg482
F1.0
sg490
F0.0
sg498
F0.8
sg506
F10.0
sg514
F1.000001
sg522
F10.0
sg530
F1.5
sg538
F44.0
sg546
F0.0
sg554
F1.0
sg562
F10.0
sg570
S"'maximum greenhouse'"
p1418
sg579
F0.3
sg587
F5e+40
sg595
F0.01
sg603
F1.5
sg611
F2.0
sg619
F3.0
sg627
S'BCA98'
p1419
sg636
S'BCA98'
p1420
sg645
F1.0
sg653
F1.0
sg661
F5e+40
sg669
g670
sg678
F0.1
sg686
S'BHMCatS0018V'
p1421
sg695
g696
sg704
F10.0
sg712
S'NICHE-010'
p1422
sg721
S"'recent venus'"
p1423
sg730
S"'runaway greenhouse'"
p1424
sg739
F1.0
sg747
g748
sg756
F0.01
sg764
F0.3
sssg772
F-2.0
sg780
F-1.0
sg796
g197
sg805
F0.7
sg813
F-2.0
sg821
F-2.0
sg829
S'0018'
p1425
sg838
F-2.0
sg846
F-2.0
sg854
F-2.0
sg862
F0.0
sg870
F-1.0
sg878
g197
sg886
F-2.0
sg894
F1.0
sg902
g903
sg911
S'NICHE-010 A'
p1426
sg920
F-2.0
sg928
F-1.0
sg936
g197
sg945
F-1.0
sg956
F0.150371038433526
sg964
F-1.0
sg975
F-2.0
sg983
F-2.0
sg991
g1404
sg999
F-2.0
sg1007
F0.0
sg1015
F-2.0
sg1023
F-1.0
sg1031
F-1.0
sg1039
F-2.0
sg1047
F0.4
sg1055
F-2.0
sg1063
F-1.0
sg1071
F-1.0
sg1082
F-2.0
sg1090
F-1.0
sg1098
F-2.0
ssS'BHMCatS0026P'
p1427
(dp1428
g12
F-1.0
sg20
S'M4-V69 B'
p1429
sg29
F4.444
sg37
S'M4-V69'
p1430
sg46
I26
sg54
F5915.0
sg62
F0.119
sg70
F-1.0
sg78
F0.01
sg86
F0.807
sg94
F11.23
sg102
F0.728
sg110
F48.1882687
sg118
F-1.0
sg126
F-25.378333333333334
sg134
g135
sg143
F-1.0
sg151
F0.008
sg159
S'F type'
p1431
sg161
(lp1432
g163
asg347
F65.25
sg355
S'EkCat'
p1433
sg364
F4.483
sg372
F89.79
sg380
S'141'
p1434
sg382
(dp1435
g384
(dp1436
g393
F10.0
sg401
F1.0
sg409
F0.0
sg417
F0.0
sg425
F1.0
sg433
F0.0
sg441
S"'early mars'"
p1437
sg450
F6.0
sg458
F0.0
sg466
F1.000001
sg474
F0.01
sg482
F1.0
sg490
F0.0
sg498
F0.8
sg506
F10.0
sg514
F1.000001
sg522
F10.0
sg530
F1.5
sg538
F44.0
sg546
F0.0
sg554
F1.0
sg562
F10.0
sg570
S"'maximum greenhouse'"
p1438
sg579
F0.3
sg587
F5e+40
sg595
F0.01
sg603
F1.5
sg611
F2.0
sg619
F3.0
sg627
S'BCA98'
p1439
sg636
S'BCA98'
p1440
sg645
F1.0
sg653
F10.9
sg661
F5e+40
sg669
g670
sg678
F0.1
sg686
S'BHMCatS0026P'
p1441
sg695
g696
sg704
F10.0
sg712
S'M4-V69'
p1442
sg721
S"'recent venus'"
p1443
sg730
S"'runaway greenhouse'"
p1444
sg739
F10.9
sg747
g748
sg756
F0.01
sg764
F0.3
sssg772
F0.902
sg780
F-1.0
sg796
S'2013AJ....145...43K;'
p1445
sg805
F0.766
sg813
F0.866
sg821
F-1.0
sg829
S'0026'
p1446
sg838
F0.132
sg846
F-1.0
sg854
F16.39944722222222
sg862
F0.005
sg870
F30.0
sg878
g197
sg886
F137.0
sg894
F0.950391644908616
sg902
g903
sg911
S'M4-V69 A'
p1447
sg920
F-1.0
sg928
F1850.0
sg936
S'G type'
p1448
sg945
F-1.0
sg956
F0.296410819251337
sg964
F-1.0
sg975
F17.01
sg983
F6084.0
sg991
g1427
sg999
F-1.0
sg1007
F0.004
sg1015
F-1.0
sg1023
F-1.0
sg1031
F-1.0
sg1039
F10.57
sg1047
F0.384
sg1055
F-1.0
sg1063
F-1.0
sg1071
F-1.0
sg1082
F-1.0
sg1090
F-1.0
sg1098
F121.0
ssS'BHMCatS0030P'
p1449
(dp1450
g12
F-1.0
sg20
S'LL Aqr B'
p1451
sg29
F4.281
sg37
S'LL Aqr'
p1452
sg46
I30
sg54
F6200.0
sg62
F0.01
sg70
F-1.0
sg78
F0.02
sg86
F1.005
sg94
F-1.0
sg102
F1.056
sg110
F20.178241
sg118
F-1.0
sg126
F-2.4005083333333332
sg134
g135
sg143
F-1.0
sg151
F0.016
sg159
S'F3V'
p1453
sg161
(lp1454
g163
asg347
F-1.0
sg355
S'EkCat'
p1455
sg364
F4.457
sg372
F89.51
sg380
S'238'
p1456
sg382
(dp1457
g384
(dp1458
g393
F10.0
sg401
F1.0
sg409
F0.0
sg417
F0.0
sg425
F1.0
sg433
F0.0
sg441
S"'early mars'"
p1459
sg450
F6.0
sg458
F0.0
sg466
F1.000001
sg474
F0.01
sg482
F1.0
sg490
F0.0
sg498
F0.8
sg506
F10.0
sg514
F1.000001
sg522
F10.0
sg530
F1.5
sg538
F44.0
sg546
F0.0
sg554
F1.0
sg562
F10.0
sg570
S"'maximum greenhouse'"
p1460
sg579
F0.3
sg587
F5e+40
sg595
F0.01
sg603
F1.5
sg611
F2.0
sg619
F3.0
sg627
S'BCA98'
p1461
sg636
S'BCA98'
p1462
sg645
F1.0
sg653
F1.0
sg661
F5e+40
sg669
g670
sg678
F0.1
sg686
S'BHMCatS0030P'
p1463
sg695
g696
sg704
F10.0
sg712
S'LL Aqr'
p1464
sg721
S"'recent venus'"
p1465
sg730
S"'runaway greenhouse'"
p1466
sg739
F1.0
sg747
g748
sg756
F0.01
sg764
F0.3
sssg772
F-1.0
sg780
F-1.0
sg796
S'2008MNRAS.390..958I;'
p1467
sg805
F1.223
sg813
F1.325
sg821
F-1.0
sg829
S'0030'
p1468
sg838
F0.009
sg846
F-1.0
sg854
F22.578375
sg862
F0.058
sg870
F9.0
sg878
g197
sg886
F160.0
sg894
F0.863450531479967
sg902
S'DEBCat'
p1469
sg911
S'LL Aqr A'
p1470
sg920
F-1.0
sg928
F123.0
sg936
S'F6V'
p1471
sg945
F-1.0
sg956
F0.190982033823529
sg964
F-1.0
sg975
F9.317
sg983
F6680.0
sg991
g1449
sg999
F-1.0
sg1007
F0.051
sg1015
F-1.0
sg1023
F-1.0
sg1031
F-1.0
sg1039
F-1.0
sg1047
F0.31
sg1055
F-1.0
sg1063
F-1.0
sg1071
F-1.0
sg1082
F-1.0
sg1090
F-1.0
sg1098
F160.0
ssS'BHMCatS0036P'
p1472
(dp1473
g12
F-1.0
sg20
S'BF Dra B'
p1474
sg29
F3.95
sg37
S'BF Dra'
p1475
sg46
I36
sg54
F6400.0
sg62
F0.005
sg70
F-1.0
sg78
F0.012
sg86
F1.922
sg94
F-1.0
sg102
F1.375
sg110
F11.2110047
sg118
F-1.0
sg126
F69.88263333333333
sg134
g135
sg143
F1.8
sg151
F0.012
sg159
S'F6V'
p1476
sg161
(lp1477
g163
asg347
F-1.0
sg355
S'EkCat'
p1478
sg364
F4.008
sg372
F88.42
sg380
S'173'
p1479
sg382
(dp1480
g384
(dp1481
g393
F10.0
sg401
F1.0
sg409
F0.0
sg417
F0.0
sg425
F1.0
sg433
F0.0
sg441
S"'early mars'"
p1482
sg450
F6.0
sg458
F0.0
sg466
F1.000001
sg474
F0.01
sg482
F1.0
sg490
F0.0
sg498
F0.8
sg506
F10.0
sg514
F1.000001
sg522
F10.0
sg530
F1.5
sg538
F44.0
sg546
F0.0
sg554
F1.0
sg562
F10.0
sg570
S"'maximum greenhouse'"
p1483
sg579
F0.3
sg587
F5e+40
sg595
F0.01
sg603
F1.5
sg611
F2.0
sg619
F3.0
sg627
S'BCA98'
p1484
sg636
S'BCA98'
p1485
sg645
F1.0
sg653
F1.0
sg661
F5e+40
sg669
g670
sg678
F0.1
sg686
S'BHMCatS0036P'
p1486
sg695
g696
sg704
F10.0
sg712
S'BF Dra'
p1487
sg721
S"'recent venus'"
p1488
sg730
S"'runaway greenhouse'"
p1489
sg739
F1.0
sg747
g748
sg756
F0.01
sg764
F0.3
sssg772
F-1.0
sg780
g3
(g783
S'\x8f\x91\xba\xea\xb8\x16$@'
p1490
tp1491
Rp1492
sg796
S'2012AJ....143..129S;'
p1493
sg805
F1.414
sg813
F2.086
sg821
F-1.0
sg829
S'0036'
p1494
sg838
F0.005
sg846
F-1.0
sg854
F18.849819444444442
sg862
F0.003
sg870
F27.0
sg878
g197
sg886
F150.0
sg894
F0.972418670438472
sg902
g903
sg911
S'BF Dra A'
p1495
sg920
F-1.0
sg928
F354.0
sg936
S'F6V'
p1496
sg945
g3
(g783
S'\x95\x8e\xd4\xd7\x82F\x01@'
p1497
tp1498
Rp1499
sg956
F0.0960728534759358
sg964
g3
(g783
S';\xb2\xc9\x8d#\x98%@'
p1500
tp1501
Rp1502
sg975
F9.77
sg983
F6360.0
sg991
g1472
sg999
F-1.0
sg1007
F0.003
sg1015
F1.8
sg1023
F-1.0
sg1031
F-1.0
sg1039
F-1.0
sg1047
F0.387
sg1055
F10.5
sg1063
F-1.0
sg1071
g3
(g783
S'HK\xdbW\xe0\x8c\xfb?'
p1503
tp1504
Rp1505
sg1082
F9.0
sg1090
F-1.0
sg1098
F150.0
ssS'BHMCatS0007D'
p1506
(dp1507
g12
F-0.2
sg20
S'Kepler-413 B'
p1508
sg29
F4.727
sg37
S'Kepler-413'
p1509
sg46
I7
sg54
F3460.0
sg62
F-1.0
sg70
F-1.0
sg78
F0.008
sg86
F0.484
sg94
F-1.0
sg102
F0.542
sg110
F10.116
sg118
g3
(g783
S'\xff\x07\xf4,5d\x84?'
p1510
tp1511
Rp1512
sg126
F51.16246944444444
sg134
g1278
sg143
F-1.0
sg151
F0.02
sg159
S'K type'
p1513
sg161
(lp1514
(dp1515
g171
S'BHMCatP0008'
p1516
sg180
F20.986236227855734
sg188
F0.1181
sg196
S'BHMCatS007D'
p1517
sg205
F0.002
sg213
S'8'
p1518
sg222
S'2014ApJ...784...14K'
p1519
sg231
S'Kepler-413b'
p1520
sg240
S'0008'
p1521
sg249
F4.351686956521739
sg257
F-1.0
sg265
S'Kepler-413'
p1522
sg274
F67.02876661866648
sg282
F-1.0
sg290
F0.3553
sg298
F-1.0
sg306
F0.0
sg314
F1.362
sg322
F66.262
sg330
g1288
sg339
F0.09874895620781668
sasg347
F279.54
sg355
S'KIC'
p1523
sg364
F-1.0
sg372
F87.33
sg380
S'12351927'
p1524
sg382
(dp1525
S'BHMCatP0008'
p1526
(dp1527
g393
F10.0
sg401
F1.0
sg409
F0.0
sg417
F0.0
sg425
F1.0
sg433
F-0.2
sg441
S"'early mars'"
p1528
sg450
F6.0
sg458
F0.0
sg466
F4.35168695652174
sg474
F0.01
sg482
F1.0
sg490
F-0.2
sg498
F0.8
sg506
F10.0
sg514
F67.0287666186665
sg522
F10.0
sg530
F1.5
sg538
F44.0
sg546
F0.0
sg554
F1.0
sg562
F10.0
sg570
S"'maximum greenhouse'"
p1529
sg579
F0.3
sg587
F5e+40
sg595
F0.01
sg603
F1.5
sg611
F2.0
sg619
F3.0
sg627
S'BCA98'
p1530
sg636
S'BCA98'
p1531
sg645
F1.0
sg653
F1.0
sg661
F5e+40
sg669
S'BHMCatP0008'
p1532
sg678
F0.1
sg686
S'BHMCatS0007D'
p1533
sg695
S'Kepler-413b'
p1534
sg704
F10.0
sg712
S'Kepler-413'
p1535
sg721
S"'recent venus'"
p1536
sg730
S"'runaway greenhouse'"
p1537
sg739
F1.0
sg747
S"'Earth'"
p1538
sg756
F0.01
sg764
F0.3
sssg772
F0.073
sg780
g3
(g783
S'j\xeb\xf4\xf1f]\x1f@'
p1539
tp1540
Rp1541
sg796
S'2014ApJ...784...14K;'
p1542
sg805
F0.82
sg813
F0.776
sg821
F0.15
sg829
S'0007'
p1543
sg838
F-1.0
sg846
F-1.0
sg854
F19.234041666666666
sg862
F0.015
sg870
F-1.0
sg878
S'BHMCatP0008;'
p1544
sg886
F-1.0
sg894
F0.660975609756098
sg902
g903
sg911
S'Kepler-413 A'
p1545
sg920
F13.15
sg928
F-1.0
sg936
S'M type'
p1546
sg945
F-1.0
sg956
F0.1015
sg964
F-1.0
sg975
F15.52
sg983
F4700.0
sg991
g1506
sg999
F-1.0
sg1007
F0.008
sg1015
F2.0
sg1023
F-1.0
sg1031
F-1.431
sg1039
F-1.0
sg1047
F0.0372
sg1055
F5.0
sg1063
g3
(g783
S'\xa5"\xf8\xd1\xa4/F?'
p1547
tp1548
Rp1549
sg1071
g3
(g783
S'"\x89]\x8e\x85\x17\t@'
p1550
tp1551
Rp1552
sg1082
F-1.0
sg1090
g3
(g783
S'R\xcf\x91\x8fZ\xc0\x82@'
p1553
tp1554
Rp1555
sg1098
F-1.0
ssS'BHMCatS0037P'
p1556
(dp1557
g12
F-1.0
sg20
S'HP Dra B'
p1558
sg29
F4.218
sg37
S'HP Dra'
p1559
sg46
I37
sg54
F5895.0
sg62
F0.011
sg70
F-1.0
sg78
F0.012
sg86
F1.052
sg94
F-1.0
sg102
F1.094
sg110
F10.76152
sg118
F-1.0
sg126
F51.308274999999995
sg134
g135
sg143
F0.01
sg151
F0.01
sg159
S'F9V'
p1560
sg161
(lp1561
g163
asg347
F-1.0
sg355
S'EkCat'
p1562
sg364
F4.433
sg372
F87.82
sg380
S'176'
p1563
sg382
(dp1564
g384
(dp1565
g393
F10.0
sg401
F1.0
sg409
F0.0
sg417
F0.0
sg425
F1.0
sg433
F0.0
sg441
S"'early mars'"
p1566
sg450
F6.0
sg458
F0.0
sg466
F1.000001
sg474
F0.01
sg482
F1.0
sg490
F0.0
sg498
F0.8
sg506
F10.0
sg514
F1.000001
sg522
F10.0
sg530
F1.5
sg538
F44.0
sg546
F0.0
sg554
F1.0
sg562
F10.0
sg570
S"'maximum greenhouse'"
p1567
sg579
F0.3
sg587
F5e+40
sg595
F0.01
sg603
F1.5
sg611
F2.0
sg619
F3.0
sg627
S'BCA98'
p1568
sg636
S'BCA98'
p1569
sg645
F1.0
sg653
F1.0
sg661
F5e+40
sg669
g670
sg678
F0.1
sg686
S'BHMCatS0037P'
p1570
sg695
g696
sg704
F10.0
sg712
S'HP Dra'
p1571
sg721
S"'recent venus'"
p1572
sg730
S"'runaway greenhouse'"
p1573
sg739
F1.0
sg747
g748
sg756
F0.01
sg764
F0.3
sssg772
F-1.0
sg780
g3
(g783
S'V\x1a\x88\xcd\x86k0@'
p1574
tp1575
Rp1576
sg796
S'2010AJ....140..129M;'
p1577
sg805
F1.133
sg813
F1.371
sg821
F-1.0
sg829
S'0037'
p1578
sg838
F0.01
sg846
F-1.0
sg854
F18.914855555555555
sg862
F0.005
sg870
F3.0
sg878
g197
sg886
F150.0
sg894
F0.965578111209179
sg902
S'DEBCat'
p1579
sg911
S'HP Dra A'
p1580
sg920
F-1.0
sg928
F77.0
sg936
S'F9V'
p1581
sg945
g3
(g783
S'\xb3\t\xa1\x87D\xbe\x9b?'
p1582
tp1583
Rp1584
sg956
F0.124699212433155
sg964
g3
(g783
S'\xe4\xd5YK \x01(@'
p1585
tp1586
Rp1587
sg975
F7.951
sg983
F6000.0
sg991
g1556
sg999
F-1.0
sg1007
F0.007
sg1015
F0.01
sg1023
F-1.0
sg1031
F-1.0
sg1039
F-1.0
sg1047
F0.037
sg1055
F4.22
sg1063
F-1.0
sg1071
g3
(g783
S'kJ\x8ff\x03\xec\xa3?'
p1588
tp1589
Rp1590
sg1082
F4.43
sg1090
F-1.0
sg1098
F150.0
ssS'BHMCatS0035P'
p1591
(dp1592
g12
F-1.0
sg20
S'TYC 176-2950-1 B'
p1593
sg29
F4.02613295021946
sg37
S'TYC 176-2950-1'
p1594
sg46
I35
sg54
F-1.0
sg62
F0.015
sg70
F-1.0
sg78
F0.03
sg86
F1.18
sg94
F-1.0
sg102
F1.041
sg110
F11.55478
sg118
F-1.0
sg126
F5.814813888888889
sg134
g135
sg143
F-1.0
sg151
F0.02
sg159
S'G6'
p1595
sg161
(lp1596
g163
asg347
F-1.0
sg355
S'EkCat'
p1597
sg364
F4.31153509391184
sg372
F88.2
sg380
S'74'
p1598
sg382
(dp1599
g384
(dp1600
g393
F10.0
sg401
F1.0
sg409
F0.0
sg417
F0.0
sg425
F1.0
sg433
F0.0
sg441
S"'early mars'"
p1601
sg450
F6.0
sg458
F0.0
sg466
F1.000001
sg474
F0.01
sg482
F1.0
sg490
F0.0
sg498
F0.8
sg506
F10.0
sg514
F1.000001
sg522
F10.0
sg530
F1.5
sg538
F44.0
sg546
F0.0
sg554
F1.0
sg562
F10.0
sg570
S"'maximum greenhouse'"
p1602
sg579
F0.3
sg587
F5e+40
sg595
F0.01
sg603
F1.5
sg611
F2.0
sg619
F3.0
sg627
S'BCA98'
p1603
sg636
S'BCA98'
p1604
sg645
F1.0
sg653
F1.0
sg661
F5e+40
sg669
g670
sg678
F0.1
sg686
S'BHMCatS0035P'
p1605
sg695
g696
sg704
F10.0
sg712
S'TYC 176-2950-1'
p1606
sg721
S"'recent venus'"
p1607
sg730
S"'runaway greenhouse'"
p1608
sg739
F1.0
sg747
g748
sg756
F0.01
sg764
F0.3
sssg772
F-1.0
sg780
F-1.0
sg796
S'2008AN....329..835B;'
p1609
sg805
F1.055
sg813
F1.65
sg821
F-1.0
sg829
S'0035'
p1610
sg838
F0.016
sg846
F-1.0
sg854
F7.273766666666667
sg862
F0.008
sg870
F17.0
sg878
g197
sg886
F-1.0
sg894
F0.986729857819905
sg902
g903
sg911
S'TYC 176-2950-1 A'
p1611
sg920
F-1.0
sg928
F177.0
sg936
g197
sg945
F-1.0
sg956
F0.128004044117647
sg964
F-1.0
sg975
F10.215
sg983
F-1.0
sg991
g1591
sg999
F-1.0
sg1007
F0.008
sg1015
F-1.0
sg1023
F-1.0
sg1031
F-1.0
sg1039
F-1.0
sg1047
F0.21
sg1055
F-1.0
sg1063
F-1.0
sg1071
F-1.0
sg1082
F-1.0
sg1090
F-1.0
sg1098
F-1.0
ssS'BHMCatS0046P'
p1612
(dp1613
g12
F-1.0
sg20
S'ASAS J085524-4411.3  B'
p1614
sg29
F3.97479165286237
sg37
S'ASAS J085524-4411.3'
p1615
sg46
I46
sg54
F-1.0
sg62
F0.009
sg70
F-1.0
sg78
F0.02
sg86
F1.634
sg94
F-1.0
sg102
F1.056
sg110
F7.040274
sg118
F-1.0
sg126
F-43.81263055555556
sg134
g135
sg143
F-1.0
sg151
F0.016
sg159
S'F7'
p1616
sg161
(lp1617
g163
asg347
F-1.0
sg355
S'EkCat'
p1618
sg364
F4.03509043777324
sg372
F86.4
sg380
S'95'
p1619
sg382
(dp1620
g384
(dp1621
g393
F10.0
sg401
F1.0
sg409
F0.0
sg417
F0.0
sg425
F1.0
sg433
F0.0
sg441
S"'early mars'"
p1622
sg450
F6.0
sg458
F0.0
sg466
F1.000001
sg474
F0.01
sg482
F1.0
sg490
F0.0
sg498
F0.8
sg506
F10.0
sg514
F1.000001
sg522
F10.0
sg530
F1.5
sg538
F44.0
sg546
F0.0
sg554
F1.0
sg562
F10.0
sg570
S"'maximum greenhouse'"
p1623
sg579
F0.3
sg587
F5e+40
sg595
F0.01
sg603
F1.5
sg611
F2.0
sg619
F3.0
sg627
S'BCA98'
p1624
sg636
S'BCA98'
p1625
sg645
F1.0
sg653
F1.0
sg661
F5e+40
sg669
g670
sg678
F0.1
sg686
S'BHMCatS0046P'
p1626
sg695
g696
sg704
F10.0
sg712
S'ASAS J085524-4411.3'
p1627
sg721
S"'recent venus'"
p1628
sg730
S"'runaway greenhouse'"
p1629
sg739
F1.0
sg747
g748
sg756
F0.01
sg764
F0.3
sssg772
F-1.0
sg780
F-1.0
sg796
S'2008AN....329..835B;'
p1630
sg805
F1.204
sg813
F1.87
sg821
F-1.0
sg829
S'0046'
p1631
sg838
F0.009
sg846
F-1.0
sg854
F8.923344444444444
sg862
F0.003
sg870
F27.0
sg878
g197
sg886
F-1.0
sg894
F0.877076411960133
sg902
g903
sg911
S'ASAS J085524-4411.3  A'
p1632
sg920
F-1.0
sg928
F271.0
sg936
g197
sg945
F-1.0
sg956
F0.094397164171123
sg964
F-1.0
sg975
F9.984
sg983
F-1.0
sg991
g1612
sg999
F-1.0
sg1007
F0.003
sg1015
F-1.0
sg1023
F-1.0
sg1031
F-1.0
sg1039
F-1.0
sg1047
F0.0
sg1055
F-1.0
sg1063
F-1.0
sg1071
F-1.0
sg1082
F-1.0
sg1090
F-1.0
sg1098
F-1.0
ssS'BHMCatS0001D'
p1633
(dp1634
g12
F-0.3
sg20
S'Kepler-16 B'
p1635
sg29
F4.479
sg37
S'Kepler-16'
p1636
sg46
I1
sg54
F-1.0
sg62
F0.0016
sg70
F-1.0
sg78
F0.001
sg86
F0.226
sg94
F4.0
sg102
F0.203
sg110
F41.079
sg118
g3
(g783
S'\xe7C\xb1\xc2\x0bc\x80?'
p1637
tp1638
Rp1639
sg126
F51.75743888888889
sg134
g1278
sg143
F-1.0
sg151
F0.001
sg159
S'K type'
p1640
sg161
(lp1641
(dp1642
g171
S'BHMCatP0001'
p1643
sg180
F5.087572418874117
sg188
F0.0069
sg196
S'BHMCatS001D'
p1644
sg205
F0.001
sg213
S'1'
p1645
sg222
S'2012Natur.481..475W;2012yCatp038048101W'
p1646
sg231
S'Kepler-16b'
p1647
sg240
S'0001'
p1648
sg249
F8.458745816983205
sg257
F0.0011
sg265
S'Kepler-16'
p1649
sg274
F105.88510096781756
sg282
F-1.0
sg290
F0.7048
sg298
F0.028
sg306
F0.0
sg314
F0.893
sg322
F228.776
sg330
g1288
sg339
F0.02749260712603987
sasg347
F263.464
sg355
S'KIC'
p1650
sg364
F5.0358
sg372
F90.3401
sg380
S'12644769'
p1651
sg382
(dp1652
S'BHMCatP0001'
p1653
(dp1654
g393
F10.0
sg401
F1.0
sg409
F0.0
sg417
F0.0
sg425
F3.0
sg433
F-0.3
sg441
S"'early mars'"
p1655
sg450
F6.0
sg458
F0.0
sg466
F8.45874581698321
sg474
F0.01
sg482
F1.0
sg490
F-0.3
sg498
F0.8
sg506
F10.0
sg514
F105.885100967818
sg522
F10.0
sg530
F1.5
sg538
F44.0
sg546
F0.0
sg554
F1.0
sg562
F10.0
sg570
S"'maximum greenhouse'"
p1656
sg579
F0.3
sg587
F5e+40
sg595
F0.01
sg603
F1.5
sg611
F2.0
sg619
F3.0
sg627
S'BCA98'
p1657
sg636
S'BCA98'
p1658
sg645
F1.0
sg653
F3.0
sg661
F5e+40
sg669
S'BHMCatP0001'
p1659
sg678
F0.1
sg686
S'BHMCatS0001D'
p1660
sg695
S'Kepler-16b'
p1661
sg704
F10.0
sg712
S'Kepler-16'
p1662
sg721
S"'recent venus'"
p1663
sg730
S"'runaway greenhouse'"
p1664
sg739
F3.0
sg747
S"'Earth'"
p1665
sg756
F0.01
sg764
F0.3
sssg772
F0.012
sg780
g3
(g783
S'\xa1\xffg\xf2\xe8\xd6A@'
p1666
tp1667
Rp1668
sg796
S'2011Sci...333.1602D; 2011ApJ...741L...1W;'
p1669
sg805
F0.69
sg813
F0.649
sg821
F1.0
sg829
S'0001'
p1670
sg838
F0.0017
sg846
F-1.0
sg854
F19.27171388888889
sg862
F0.004
sg870
F-1.0
sg878
S'BHMCatP0001;'
p1671
sg886
F-1.0
sg894
F0.294202898550725
sg902
g903
sg911
S'Kepler-16 A'
p1672
sg920
F35.1
sg928
F-1.0
sg936
S'M type'
p1673
sg945
F-1.0
sg956
F0.2243
sg964
F-1.0
sg975
F11.762
sg983
F4337.0
sg991
g1633
sg999
F-1.0
sg1007
F0.001
sg1015
F0.025
sg1023
F0.2
sg1031
F-0.2
sg1039
F2.0
sg1047
F0.1594
sg1055
F0.92
sg1063
g3
(g783
S'\xff\x07\xf4,5d\x84?'
p1674
tp1675
Rp1676
sg1071
g3
(g783
S'#B\xd6\xbbs\x06\xef?'
p1677
tp1678
Rp1679
sg1082
F-1.0
sg1090
F-1.0
sg1098
F80.0
ssS'BHMCatS0011V'
p1680
(dp1681
g12
F0.0
sg20
S'NICHE-003 B'
p1682
sg29
F-2.0
sg37
S'NICHE-003'
p1683
sg46
I11
sg54
F-2.0
sg62
F-2.0
sg70
F-2.0
sg78
F0.0
sg86
F-2.0
sg94
F-2.0
sg102
F1.0
sg110
F40.0
sg118
g3
(g783
S'0\xa8\x1bgj\x94\x8f?'
p1684
tp1685
Rp1686
sg126
F-2.0
sg134
g1411
sg143
F-2.0
sg151
F0.0
sg159
g197
sg161
(lp1687
g163
asg347
F-1.0
sg355
S'NICHE'
p1688
sg364
F-2.0
sg372
F-2.0
sg380
g1328
sg382
(dp1689
g384
(dp1690
g393
F10.0
sg401
F1.0
sg409
F0.0
sg417
F0.0
sg425
F1.0
sg433
F0.0
sg441
S"'early mars'"
p1691
sg450
F6.0
sg458
F0.0
sg466
F1.000001
sg474
F0.01
sg482
F1.0
sg490
F0.0
sg498
F0.8
sg506
F10.0
sg514
F1.000001
sg522
F10.0
sg530
F1.5
sg538
F44.0
sg546
F0.0
sg554
F1.0
sg562
F10.0
sg570
S"'maximum greenhouse'"
p1692
sg579
F0.3
sg587
F5e+40
sg595
F0.01
sg603
F1.5
sg611
F2.0
sg619
F3.0
sg627
S'BCA98'
p1693
sg636
S'BCA98'
p1694
sg645
F1.0
sg653
F1.0
sg661
F5e+40
sg669
g670
sg678
F0.1
sg686
S'BHMCatS0011V'
p1695
sg695
g696
sg704
F10.0
sg712
S'NICHE-003'
p1696
sg721
S"'recent venus'"
p1697
sg730
S"'runaway greenhouse'"
p1698
sg739
F1.0
sg747
g748
sg756
F0.01
sg764
F0.3
sssg772
F-2.0
sg780
F-1.0
sg796
g197
sg805
F1.0
sg813
F-2.0
sg821
F-2.0
sg829
S'0011'
p1699
sg838
F-2.0
sg846
F-2.0
sg854
F-2.0
sg862
F0.0
sg870
F-1.0
sg878
g197
sg886
F-2.0
sg894
F1.0
sg902
g903
sg911
S'NICHE-003 A'
p1700
sg920
F-2.0
sg928
F-1.0
sg936
g197
sg945
F-1.0
sg956
F0.288396405427895
sg964
F-1.0
sg975
F-2.0
sg983
F-2.0
sg991
g1680
sg999
F-2.0
sg1007
F0.0
sg1015
F-2.0
sg1023
F-1.0
sg1031
F-1.0
sg1039
F-2.0
sg1047
F0.3
sg1055
F-2.0
sg1063
F-1.0
sg1071
F-1.0
sg1082
F-2.0
sg1090
F-1.0
sg1098
F-2.0
ssS'PlanetFields'
p1701
(lp1702
g213
ag240
ag330
ag171
ag196
ag265
ag231
ag274
ag180
ag249
ag339
ag314
ag290
ag257
ag322
ag298
ag188
ag205
ag282
ag306
ag222
asS'BHMCatS0005D'
p1703
(dp1704
g12
F-0.25
sg20
S'Kepler-47 B'
p1705
sg29
F4.682
sg37
S'Kepler-47'
p1706
sg46
I5
sg54
F3357.0
sg62
F-1.0
sg70
F-1.0
sg78
F0.017
sg86
F0.35
sg94
F-1.0
sg102
F0.362
sg110
F7.448
sg118
g3
(g783
S'\x17\xc4\xeb\x8f\x9cG\x82?'
p1707
tp1708
Rp1709
sg126
F46.92046666666666
sg134
g1278
sg143
F-1.0
sg151
F0.006
sg159
g197
sg161
(lp1710
(dp1711
g171
S'BHMCatP0005'
p1712
sg180
F0.0
sg188
F0.035
sg196
S'BHMCatS005D'
p1713
sg205
F-1.0
sg213
S'5'
p1714
sg222
S'2013ApJ...768..127S;2013ApJ...770...52K'
p1715
sg231
S'Kepler-47b'
p1716
sg240
S'0005'
p1717
sg249
F3.029797520012557
sg257
F0.0047
sg265
S'Kepler-47'
p1718
sg274
F7.631358628311175
sg282
F-1.0
sg290
F0.2956
sg298
F0.04
sg306
F0.0
sg314
F1.405
sg322
F49.514
sg330
g1288
sg339
F0.12343619525977083
sa(dp1719
g171
S'BHMCatP0006'
p1720
sg180
F0.0
sg188
F0.09
sg196
S'BHMCatS005D'
p1721
sg205
F-1.0
sg213
S'6'
p1722
sg222
S'2014ApJ...784...14K'
p1723
sg231
S'Kepler-47c'
p1724
sg240
S'0006'
p1725
sg249
F4.600803641500549
sg257
F0.016
sg265
S'Kepler-47'
p1726
sg274
F28.617594856166907
sg282
F-1.0
sg290
F0.989
sg298
F0.072
sg306
F0.0
sg314
F1.405
sg322
F303.158
sg330
S'c'
p1727
sg339
F0.20198650133417043
sasg347
F212.3
sg355
S'KIC'
p1728
sg364
F-1.0
sg372
F89.69
sg380
S'10020423'
p1729
sg382
(dp1730
S'BHMCatP0005'
p1731
(dp1732
g393
F10.0
sg401
F1.0
sg409
F0.0
sg417
F0.0
sg425
F1.0
sg433
F-0.25
sg441
S"'early mars'"
p1733
sg450
F6.0
sg458
F0.0
sg466
F3.02979752001256
sg474
F0.01
sg482
F1.0
sg490
F-0.25
sg498
F0.8
sg506
F10.0
sg514
F7.63135862831118
sg522
F10.0
sg530
F1.5
sg538
F44.0
sg546
F0.0
sg554
F1.0
sg562
F10.0
sg570
S"'maximum greenhouse'"
p1734
sg579
F0.3
sg587
F5e+40
sg595
F0.01
sg603
F1.5
sg611
F2.0
sg619
F3.0
sg627
S'BCA98'
p1735
sg636
S'BCA98'
p1736
sg645
F1.0
sg653
F1.0
sg661
F5e+40
sg669
S'BHMCatP0005'
p1737
sg678
F0.1
sg686
S'BHMCatS0005D'
p1738
sg695
S'Kepler-47b'
p1739
sg704
F10.0
sg712
S'Kepler-47'
p1740
sg721
S"'recent venus'"
p1741
sg730
S"'runaway greenhouse'"
p1742
sg739
F1.0
sg747
S"'Earth'"
p1743
sg756
F0.01
sg764
F0.3
ssS'BHMCatP0006'
p1744
(dp1745
g393
F10.0
sg401
F1.0
sg409
F0.0
sg417
F0.0
sg425
F1.0
sg433
F-0.25
sg441
g1733
sg450
F6.0
sg458
F0.0
sg466
F4.60080364150055
sg474
F0.01
sg482
F1.0
sg490
F-0.25
sg498
F0.8
sg506
F10.0
sg514
F28.6175948561669
sg522
F10.0
sg530
F1.5
sg538
F44.0
sg546
F0.0
sg554
F1.0
sg562
F10.0
sg570
g1734
sg579
F0.3
sg587
F5e+40
sg595
F0.01
sg603
F1.5
sg611
F2.0
sg619
F3.0
sg627
g1735
sg636
g1736
sg645
F1.0
sg653
F1.0
sg661
F5e+40
sg669
S'BHMCatP0006'
p1746
sg678
F0.1
sg686
g1738
sg695
S'Kepler-47c'
p1747
sg704
F10.0
sg712
g1740
sg721
g1741
sg730
g1742
sg739
F1.0
sg747
S"'Earth'"
p1748
sg756
F0.01
sg764
F0.3
sssg772
F0.126
sg780
g3
(g783
S"\xca<\xdd\xec\xa2\xc8'@"
p1749
tp1750
Rp1751
sg796
S'2012Sci...337.1511O;'
p1752
sg805
F1.043
sg813
F0.964
sg821
F0.022
sg829
S'0005'
p1753
sg838
F0.1
sg846
F-1.0
sg854
F19.686527777777776
sg862
F0.055
sg870
F-1.0
sg878
S'BHMCatP0005;BHMCatP0006;'
p1754
sg886
F100.0
sg894
F0.347075743048897
sg902
g903
sg911
S'Kepler-47 A'
p1755
sg920
F7.775
sg928
F-1.0
sg936
g197
sg945
F-1.0
sg956
F0.0836
sg964
F-1.0
sg975
F15.178
sg983
F5636.0
sg991
g1703
sg999
F-1.0
sg1007
F0.013
sg1015
F0.5
sg1023
F-1.0
sg1031
F-0.252
sg1039
F-1.0
sg1047
F0.0234
sg1055
F4.1
sg1063
g3
(g783
S'\xf5aR\xa613\x82?'
p1756
tp1757
Rp1758
sg1071
g3
(g783
S'\x87Z\xcb\x12"4\xf7?'
p1759
tp1760
Rp1761
sg1082
F-1.0
sg1090
g3
(g783
S'\xb6Y6\x15\x84!\x90@'
p1762
tp1763
Rp1764
sg1098
F100.0
ssS'BHMCatS0050P'
p1765
(dp1766
g12
F-1.0
sg20
S'NGC188 KR V12 B'
p1767
sg29
F4.174
sg37
S'NGC188 KR V12'
p1768
sg46
I50
sg54
F5875.0
sg62
F0.013
sg70
F-1.0
sg78
F0.019
sg86
F1.373
sg94
F-1.0
sg102
F1.081
sg110
F6.5042969
sg118
F-1.0
sg126
F85.17629166666667
sg134
g135
sg143
F-1.0
sg151
F0.019
sg159
S'G type'
p1769
sg161
(lp1770
g163
asg347
F-1.0
sg355
S'EkCat'
p1771
sg364
F4.196
sg372
F88.62
sg380
g1714
sg382
(dp1772
g384
(dp1773
g393
F10.0
sg401
F1.0
sg409
F0.0
sg417
F0.0
sg425
F1.0
sg433
F0.0
sg441
S"'early mars'"
p1774
sg450
F6.0
sg458
F0.0
sg466
F1.000001
sg474
F0.01
sg482
F1.0
sg490
F0.0
sg498
F0.8
sg506
F10.0
sg514
F1.000001
sg522
F10.0
sg530
F1.5
sg538
F44.0
sg546
F0.0
sg554
F1.0
sg562
F10.0
sg570
S"'maximum greenhouse'"
p1775
sg579
F0.3
sg587
F5e+40
sg595
F0.01
sg603
F1.5
sg611
F2.0
sg619
F3.0
sg627
S'BCA98'
p1776
sg636
S'BCA98'
p1777
sg645
F1.0
sg653
F1.0
sg661
F5e+40
sg669
g670
sg678
F0.1
sg686
S'BHMCatS0050P'
p1778
sg695
g696
sg704
F10.0
sg712
S'NGC188 KR V12'
p1779
sg721
S"'recent venus'"
p1780
sg730
S"'runaway greenhouse'"
p1781
sg739
F1.0
sg747
g748
sg756
F0.01
sg764
F0.3
sssg772
F-1.0
sg780
g3
(g783
S"\xa9\x8d'\xff]3\x13@"
p1782
tp1783
Rp1784
sg796
S'2009AJ....137.5086M;'
p1785
sg805
F1.103
sg813
F1.424
sg821
F-1.0
sg829
S'0050'
p1786
sg838
F0.012
sg846
F-1.0
sg854
F0.8770944444444445
sg862
F0.007
sg870
F75.0
sg878
g197
sg886
F100.0
sg894
F0.980054397098821
sg902
g903
sg911
S'NGC188 KR V12 A'
p1787
sg920
F-1.0
sg928
F1770.0
sg936
S'G type'
p1788
sg945
F-1.0
sg956
F0.0884857046791444
sg964
g3
(g783
S'\xaf\xfaO\xef\xc1U\x10@'
p1789
tp1790
Rp1791
sg975
F14.64
sg983
F5900.0
sg991
g1765
sg999
F-1.0
sg1007
F0.007
sg1015
F-1.0
sg1023
F-1.0
sg1031
F-1.0
sg1039
F-1.0
sg1047
F0.0
sg1055
F15.0
sg1063
F-1.0
sg1071
F-1.0
sg1082
F17.0
sg1090
F-1.0
sg1098
F100.0
ssS'BHMCatS0009V'
p1792
(dp1793
g12
F0.0
sg20
S'NICHE-001 B'
p1794
sg29
F-2.0
sg37
S'NICHE-001'
p1795
sg46
I9
sg54
F-2.0
sg62
F-2.0
sg70
F-2.0
sg78
F0.0
sg86
F-2.0
sg94
F-2.0
sg102
F1.0
sg110
F15.0
sg118
g3
(g783
S'0\xa8\x1bgj\x94\x8f?'
p1796
tp1797
Rp1798
sg126
F-2.0
sg134
g1411
sg143
F-2.0
sg151
F0.0
sg159
g197
sg161
(lp1799
g163
asg347
F-1.0
sg355
S'NICHE'
p1800
sg364
F-2.0
sg372
F-2.0
sg380
g1645
sg382
(dp1801
g384
(dp1802
g393
F10.0
sg401
F1.0
sg409
F0.0
sg417
F0.0
sg425
F1.0
sg433
F0.0
sg441
S"'early mars'"
p1803
sg450
F6.0
sg458
F0.0
sg466
F1.000001
sg474
F0.01
sg482
F1.0
sg490
F0.0
sg498
F0.8
sg506
F10.0
sg514
F1.000001
sg522
F10.0
sg530
F1.5
sg538
F44.0
sg546
F0.0
sg554
F1.0
sg562
F10.0
sg570
S"'maximum greenhouse'"
p1804
sg579
F0.3
sg587
F5e+40
sg595
F0.01
sg603
F1.5
sg611
F2.0
sg619
F3.0
sg627
S'BCA98'
p1805
sg636
S'BCA98'
p1806
sg645
F1.0
sg653
F1.0
sg661
F5e+40
sg669
g670
sg678
F0.1
sg686
S'BHMCatS0009V'
p1807
sg695
g696
sg704
F10.0
sg712
S'NICHE-001'
p1808
sg721
S"'recent venus'"
p1809
sg730
S"'runaway greenhouse'"
p1810
sg739
F1.0
sg747
g748
sg756
F0.01
sg764
F0.3
sssg772
F-2.0
sg780
F-1.0
sg796
g197
sg805
F1.0
sg813
F-2.0
sg821
F-2.0
sg829
S'0009'
p1811
sg838
F-2.0
sg846
F-2.0
sg854
F-2.0
sg862
F0.0
sg870
F-1.0
sg878
g197
sg886
F-2.0
sg894
F1.0
sg902
g903
sg911
S'NICHE-001 A'
p1812
sg920
F-2.0
sg928
F-1.0
sg936
g197
sg945
F-1.0
sg956
F0.149972174389221
sg964
F-1.0
sg975
F-2.0
sg983
F-2.0
sg991
g1792
sg999
F-2.0
sg1007
F0.0
sg1015
F-2.0
sg1023
F-1.0
sg1031
F-1.0
sg1039
F-2.0
sg1047
F0.1
sg1055
F-2.0
sg1063
F-1.0
sg1071
F-1.0
sg1082
F-2.0
sg1090
F-1.0
sg1098
F-2.0
ssS'BHMCatS0039P'
p1813
(dp1814
g12
F-1.0
sg20
S'HS Aur B'
p1815
sg29
F4.39
sg37
S'HS Aur'
p1816
sg46
I39
sg54
F5200.0
sg62
F0.03
sg70
F-1.0
sg78
F0.023
sg86
F0.874
sg94
F-1.0
sg102
F0.877
sg110
F9.815377
sg118
F-1.0
sg126
F47.67337777777777
sg134
g135
sg143
F-1.0
sg151
F0.03
sg159
S'G8V'
p1817
sg161
(lp1818
g163
asg347
F-1.0
sg355
S'EkCat'
p1819
sg364
F4.5
sg372
F90.0
sg380
S'68'
p1820
sg382
(dp1821
g384
(dp1822
g393
F10.0
sg401
F1.0
sg409
F0.0
sg417
F0.0
sg425
F1.0
sg433
F0.0
sg441
S"'early mars'"
p1823
sg450
F6.0
sg458
F0.0
sg466
F1.000001
sg474
F0.01
sg482
F1.0
sg490
F0.0
sg498
F0.8
sg506
F10.0
sg514
F1.000001
sg522
F10.0
sg530
F1.5
sg538
F44.0
sg546
F0.0
sg554
F1.0
sg562
F10.0
sg570
S"'maximum greenhouse'"
p1824
sg579
F0.3
sg587
F5e+40
sg595
F0.01
sg603
F1.5
sg611
F2.0
sg619
F3.0
sg627
S'BCA98'
p1825
sg636
S'BCA98'
p1826
sg645
F1.0
sg653
F1.0
sg661
F5e+40
sg669
g670
sg678
F0.1
sg686
S'BHMCatS0039P'
p1827
sg695
g696
sg704
F10.0
sg712
S'HS Aur'
p1828
sg721
S"'recent venus'"
p1829
sg730
S"'runaway greenhouse'"
p1830
sg739
F1.0
sg747
g748
sg756
F0.01
sg764
F0.3
sssg772
F-1.0
sg780
F-1.0
sg796
S'1986AJ.....91..383P;'
p1831
sg805
F0.898
sg813
F1.005
sg821
F-1.0
sg829
S'0039'
p1832
sg838
F0.02
sg846
F-1.0
sg854
F6.855130555555555
sg862
F0.019
sg870
F5.0
sg878
g197
sg886
F72.0
sg894
F0.976614699331848
sg902
S'DEBCat'
p1833
sg911
S'HS Aur A'
p1834
sg920
F-1.0
sg928
F130.0
sg936
S'K0V'
p1835
sg945
F-1.0
sg956
F0.108780164037433
sg964
F-1.0
sg975
F10.036
sg983
F5350.0
sg991
g1813
sg999
F-1.0
sg1007
F0.017
sg1015
F-1.0
sg1023
F-1.0
sg1031
F-1.0
sg1039
F-1.0
sg1047
F0.0
sg1055
F-1.0
sg1063
F-1.0
sg1071
F-1.0
sg1082
F-1.0
sg1090
F-1.0
sg1098
F70.0
ssS'BHMCatS0042P'
p1836
(dp1837
g12
F-1.0
sg20
S'2MASS J19071662+4639532  B'
p1838
sg29
F4.666
sg37
S'2MASS J19071662+4639532'
p1839
sg46
I42
sg54
F3700.0
sg62
F0.086
sg70
F-1.0
sg78
F0.043
sg86
F0.525
sg94
F-1.0
sg102
F0.523
sg110
F8.429441
sg118
F-1.0
sg126
F46.66478055555555
sg134
g135
sg143
F2.3
sg151
F0.052
sg159
S'K5V'
p1840
sg161
(lp1841
g163
asg347
F-1.0
sg355
S'EkCat'
p1842
sg364
F4.718
sg372
F89.02
sg380
S'181'
p1843
sg382
(dp1844
g384
(dp1845
g393
F10.0
sg401
F1.0
sg409
F0.0
sg417
F0.0
sg425
F1.0
sg433
F0.0
sg441
S"'early mars'"
p1846
sg450
F6.0
sg458
F0.0
sg466
F1.000001
sg474
F0.01
sg482
F1.0
sg490
F0.0
sg498
F0.8
sg506
F10.0
sg514
F1.000001
sg522
F10.0
sg530
F1.5
sg538
F44.0
sg546
F0.0
sg554
F1.0
sg562
F10.0
sg570
S"'maximum greenhouse'"
p1847
sg579
F0.3
sg587
F5e+40
sg595
F0.01
sg603
F1.5
sg611
F2.0
sg619
F3.0
sg627
S'BCA98'
p1848
sg636
S'BCA98'
p1849
sg645
F1.0
sg653
F1.0
sg661
F5e+40
sg669
g670
sg678
F0.1
sg686
S'BHMCatS0042P'
p1850
sg695
g696
sg704
F10.0
sg712
S'2MASS J19071662+4639532'
p1851
sg721
S"'recent venus'"
p1852
sg730
S"'runaway greenhouse'"
p1853
sg739
F1.0
sg747
g748
sg756
F0.01
sg764
F0.3
sssg772
F-1.0
sg780
g3
(g783
S'\x06o\xaej\xbe\xe6\x16@'
p1854
tp1855
Rp1856
sg796
S'2008ApJ...687.1253D;'
p1857
sg805
F0.68
sg813
F0.634
sg821
F-1.0
sg829
S'0042'
p1858
sg838
F0.059
sg846
F-1.0
sg854
F19.121283333333334
sg862
F0.01
sg870
F20.0
sg878
g197
sg886
F-1.0
sg894
F0.769117647058823
sg902
g903
sg911
S'2MASS J19071662+4639532  A'
p1859
sg920
F-1.0
sg928
F230.0
sg936
S'M0V'
p1860
sg945
g3
(g783
S'\xfe\xfa\xfe\t"\xc8\x02@'
p1861
tp1862
Rp1863
sg956
F0.0862514522727273
sg964
g3
(g783
S'~\xd3\xa5\x90\xc1\xd2\x14@'
p1864
tp1865
Rp1866
sg975
F14.37
sg983
F4150.0
sg991
g1836
sg999
F-1.0
sg1007
F0.006
sg1015
F2.0
sg1023
F-1.0
sg1031
F-1.0
sg1039
F-1.0
sg1047
F0.0
sg1055
F5.6
sg1063
F-1.0
sg1071
g3
(g783
S')\x06X\x95\xac[\x00@'
p1867
tp1868
Rp1869
sg1082
F5.1
sg1090
F-1.0
sg1098
F-1.0
ssS'BHMCatS0038P'
p1870
(dp1871
g12
F-1.0
sg20
S'RW Lac B'
p1872
sg29
F4.257
sg37
S'RW Lac'
p1873
sg46
I38
sg54
F5560.0
sg62
F0.004
sg70
F-1.0
sg78
F0.004
sg86
F0.964
sg94
F-1.0
sg102
F0.87
sg110
F10.3692046
sg118
F-1.0
sg126
F49.65765833333333
sg134
g135
sg143
F-1.0
sg151
F0.004
sg159
S'G5V'
p1874
sg161
(lp1875
g163
asg347
F-1.0
sg355
S'EkCat'
p1876
sg364
F4.409
sg372
F89.49
sg380
S'239'
p1877
sg382
(dp1878
g384
(dp1879
g393
F10.0
sg401
F1.0
sg409
F0.0
sg417
F0.0
sg425
F1.0
sg433
F0.0
sg441
S"'early mars'"
p1880
sg450
F6.0
sg458
F0.0
sg466
F1.000001
sg474
F0.01
sg482
F1.0
sg490
F0.0
sg498
F0.8
sg506
F10.0
sg514
F1.000001
sg522
F10.0
sg530
F1.5
sg538
F44.0
sg546
F0.0
sg554
F1.0
sg562
F10.0
sg570
S"'maximum greenhouse'"
p1881
sg579
F0.3
sg587
F5e+40
sg595
F0.01
sg603
F1.5
sg611
F2.0
sg619
F3.0
sg627
S'BCA98'
p1882
sg636
S'BCA98'
p1883
sg645
F1.0
sg653
F1.0
sg661
F5e+40
sg669
g670
sg678
F0.1
sg686
S'BHMCatS0038P'
p1884
sg695
g696
sg704
F10.0
sg712
S'RW Lac'
p1885
sg721
S"'recent venus'"
p1886
sg730
S"'runaway greenhouse'"
p1887
sg739
F1.0
sg747
g748
sg756
F0.01
sg764
F0.3
sssg772
F-1.0
sg780
g3
(g783
S'x\xc1G\x89\xde\xfd=@'
p1888
tp1889
Rp1890
sg796
S'2005AJ....130.2838L;'
p1891
sg805
F0.928
sg813
F1.186
sg821
F-1.0
sg829
S'0038'
p1892
sg838
F0.003
sg846
F-1.0
sg854
F22.749194444444445
sg862
F0.006
sg870
F10.0
sg878
g197
sg886
F150.0
sg894
F0.9375
sg902
S'DEBCat'
p1893
sg911
S'RW Lac A'
p1894
sg920
F-1.0
sg928
F190.0
sg936
S'G7V'
p1895
sg945
F-1.0
sg956
F0.112550464973262
sg964
F-1.0
sg975
F10.789
sg983
F5760.0
sg991
g1870
sg999
F-1.0
sg1007
F0.004
sg1015
F2.0
sg1023
F-1.0
sg1031
F-1.0
sg1039
F-1.0
sg1047
F0.01
sg1055
F2.0
sg1063
F-1.0
sg1071
g3
(g783
S'x\xc1G\x89\xde\xfd=@'
p1896
tp1897
Rp1898
sg1082
F-1.0
sg1090
F-1.0
sg1098
F100.0
ssS'BHMCatS0040P'
p1899
(dp1900
g12
F-1.0
sg20
S'TV Cet B'
p1901
sg29
F4.231
sg37
S'TV Cet'
p1902
sg46
I40
sg54
F6575.0
sg62
F0.019
sg70
F-1.0
sg78
F0.02
sg86
F1.21
sg94
F-1.0
sg102
F1.23
sg110
F9.103291
sg118
F-1.0
sg126
F2.7545555555555556
sg134
g135
sg143
F-1.0
sg151
F0.01
sg159
S'F2V'
p1903
sg161
(lp1904
g163
asg347
F-1.0
sg355
S'EkCat'
p1905
sg364
F4.362
sg372
F90.38
sg380
S'27'
p1906
sg382
(dp1907
g384
(dp1908
g393
F10.0
sg401
F1.0
sg409
F0.0
sg417
F0.0
sg425
F1.0
sg433
F0.0
sg441
S"'early mars'"
p1909
sg450
F6.0
sg458
F0.0
sg466
F1.000001
sg474
F0.01
sg482
F1.0
sg490
F0.0
sg498
F0.8
sg506
F10.0
sg514
F1.000001
sg522
F10.0
sg530
F1.5
sg538
F44.0
sg546
F0.0
sg554
F1.0
sg562
F10.0
sg570
S"'maximum greenhouse'"
p1910
sg579
F0.3
sg587
F5e+40
sg595
F0.01
sg603
F1.5
sg611
F2.0
sg619
F3.0
sg627
S'BCA98'
p1911
sg636
S'BCA98'
p1912
sg645
F1.0
sg653
F1.0
sg661
F5e+40
sg669
g670
sg678
F0.1
sg686
S'BHMCatS0040P'
p1913
sg695
g696
sg704
F10.0
sg712
S'TV Cet'
p1914
sg721
S"'recent venus'"
p1915
sg730
S"'runaway greenhouse'"
p1916
sg739
F1.0
sg747
g748
sg756
F0.01
sg764
F0.3
sssg772
F-1.0
sg780
F-1.0
sg796
S'2010NewA...15..356B;'
p1917
sg805
F1.34
sg813
F1.47
sg821
F-1.0
sg829
S'0040'
p1918
sg838
F0.02
sg846
F-1.0
sg854
F3.243475
sg862
F0.05
sg870
F6.0
sg878
g197
sg886
F150.0
sg894
F0.917910447761194
sg902
g903
sg911
S'TV Cet A'
p1919
sg920
F-1.0
sg928
F144.0
sg936
S'F5V'
p1920
sg945
F-1.0
sg956
F0.11706551671123
sg964
F-1.0
sg975
F8.6
sg983
F6902.0
sg991
g1899
sg999
F-1.0
sg1007
F0.05
sg1015
F-1.0
sg1023
F-1.0
sg1031
F-1.0
sg1039
F-1.0
sg1047
F0.04
sg1055
F-1.0
sg1063
F-1.0
sg1071
F-1.0
sg1082
F-1.0
sg1090
F-1.0
sg1098
F150.0
ssS'BHMCatS0029P'
p1921
(dp1922
g12
F-1.0
sg20
S'AI Phe B'
p1923
sg29
F3.596
sg37
S'AI Phe'
p1924
sg46
I29
sg54
F5010.0
sg62
F0.012
sg70
F-1.0
sg78
F0.048
sg86
F1.816
sg94
F-1.0
sg102
F1.195
sg110
F24.592325
sg118
F-1.0
sg126
F-45.73441944444444
sg134
g135
sg143
F1.0
sg151
F0.024
sg159
S'F7V'
p1925
sg161
(lp1926
g163
asg347
F-1.0
sg355
S'EkCat'
p1927
sg364
F3.997
sg372
F88.45
sg380
g1283
sg382
(dp1928
g384
(dp1929
g393
F10.0
sg401
F1.0
sg409
F0.0
sg417
F0.0
sg425
F1.0
sg433
F0.0
sg441
S"'early mars'"
p1930
sg450
F6.0
sg458
F0.0
sg466
F1.000001
sg474
F0.01
sg482
F1.0
sg490
F0.0
sg498
F0.8
sg506
F10.0
sg514
F1.000001
sg522
F10.0
sg530
F1.5
sg538
F44.0
sg546
F0.0
sg554
F1.0
sg562
F10.0
sg570
S"'maximum greenhouse'"
p1931
sg579
F0.3
sg587
F5e+40
sg595
F0.01
sg603
F1.5
sg611
F2.0
sg619
F3.0
sg627
S'BCA98'
p1932
sg636
S'BCA98'
p1933
sg645
F1.0
sg653
F1.0
sg661
F5e+40
sg669
g670
sg678
F0.1
sg686
S'BHMCatS0029P'
p1934
sg695
g696
sg704
F10.0
sg712
S'AI Phe'
p1935
sg721
S"'recent venus'"
p1936
sg730
S"'runaway greenhouse'"
p1937
sg739
F1.0
sg747
g748
sg756
F0.01
sg764
F0.3
sssg772
F-1.0
sg780
g3
(g783
S'\x8e\xb6x\\\xa2\xb08@'
p1938
tp1939
Rp1940
sg796
S'1988A&A...196..128A;'
p1941
sg805
F1.236
sg813
F2.93
sg821
F-1.0
sg829
S'0029'
p1942
sg838
F0.014
sg846
F-1.0
sg854
F1.1594972222222222
sg862
F0.005
sg870
F6.0
sg878
g197
sg886
F120.0
sg894
F0.966828478964401
sg902
g903
sg911
S'AI Phe A'
p1943
sg920
F-1.0
sg928
F162.0
sg936
S'K0IV'
p1944
sg945
g3
(g783
S'\x9c\xae\xf4\x92?\xf4\x16@'
p1945
tp1946
Rp1947
sg956
F0.222494302139037
sg964
g3
(g783
S'\x9c\xae\xf4\x92?\xf46@'
p1948
tp1949
Rp1950
sg975
F8.607
sg983
F6310.0
sg991
g1921
sg999
F-1.0
sg1007
F0.004
sg1015
F1.0
sg1023
F-1.0
sg1031
F-1.0
sg1039
F-1.0
sg1047
F0.186
sg1055
F6.0
sg1063
F-1.0
sg1071
g3
(g783
S'_$\xfb\x92\xc1u\x10@'
p1951
tp1952
Rp1953
sg1082
F4.0
sg1090
F-1.0
sg1098
F150.0
ssS'BHMCatS0013V'
p1954
(dp1955
g12
F0.0
sg20
S'NICHE-005 B'
p1956
sg29
F-2.0
sg37
S'NICHE-005'
p1957
sg46
I13
sg54
F-2.0
sg62
F-2.0
sg70
F-2.0
sg78
F0.0
sg86
F-2.0
sg94
F-2.0
sg102
F1.0
sg110
F60.0
sg118
g3
(g783
S'0\xa8\x1bgj\x94\x8f?'
p1958
tp1959
Rp1960
sg126
F-2.0
sg134
g1411
sg143
F-2.0
sg151
F0.0
sg159
g197
sg161
(lp1961
g163
asg347
F-1.0
sg355
S'NICHE'
p1962
sg364
F-2.0
sg372
F-2.0
sg380
g1714
sg382
(dp1963
g384
(dp1964
g393
F10.0
sg401
F1.0
sg409
F0.0
sg417
F0.0
sg425
F1.0
sg433
F0.0
sg441
S"'early mars'"
p1965
sg450
F6.0
sg458
F0.0
sg466
F1.000001
sg474
F0.01
sg482
F1.0
sg490
F0.0
sg498
F0.8
sg506
F10.0
sg514
F1.000001
sg522
F10.0
sg530
F1.5
sg538
F44.0
sg546
F0.0
sg554
F1.0
sg562
F10.0
sg570
S"'maximum greenhouse'"
p1966
sg579
F0.3
sg587
F5e+40
sg595
F0.01
sg603
F1.5
sg611
F2.0
sg619
F3.0
sg627
S'BCA98'
p1967
sg636
S'BCA98'
p1968
sg645
F1.0
sg653
F1.0
sg661
F5e+40
sg669
g670
sg678
F0.1
sg686
S'BHMCatS0013V'
p1969
sg695
g696
sg704
F10.0
sg712
S'NICHE-005'
p1970
sg721
S"'recent venus'"
p1971
sg730
S"'runaway greenhouse'"
p1972
sg739
F1.0
sg747
g748
sg756
F0.01
sg764
F0.3
sssg772
F-2.0
sg780
F-1.0
sg796
g197
sg805
F1.0
sg813
F-2.0
sg821
F-2.0
sg829
S'0013'
p1973
sg838
F-2.0
sg846
F-2.0
sg854
F-2.0
sg862
F0.0
sg870
F-1.0
sg878
g197
sg886
F-2.0
sg894
F1.0
sg902
g903
sg911
S'NICHE-005 A'
p1974
sg920
F-2.0
sg928
F-1.0
sg936
g197
sg945
F-1.0
sg956
F0.377906198822968
sg964
F-1.0
sg975
F-2.0
sg983
F-2.0
sg991
g1954
sg999
F-2.0
sg1007
F0.0
sg1015
F-2.0
sg1023
F-1.0
sg1031
F-1.0
sg1039
F-2.0
sg1047
F0.5
sg1055
F-2.0
sg1063
F-1.0
sg1071
F-1.0
sg1082
F-2.0
sg1090
F-1.0
sg1098
F-2.0
ssS'Fields'
p1975
(lp1976
g46
ag829
ag134
ag991
ag355
ag380
ag37
ag911
ag20
ag805
ag862
ag102
ag1007
ag894
ag110
ag956
ag1047
ag347
ag118
ag12
ag1023
ag1063
ag1031
ag372
ag1039
ag94
ag1055
ag1015
ag1082
ag143
ag780
ag1071
ag964
ag945
ag920
ag821
ag846
ag70
ag975
ag772
ag928
ag870
ag1090
ag813
ag78
ag86
ag151
ag983
ag1098
ag54
ag886
ag29
ag838
ag364
ag62
ag999
ag854
ag126
ag159
ag936
ag878
ag902
ag796
asS'BHMCatS0017V'
p1977
(dp1978
g12
F0.0
sg20
S'NICHE-009 B'
p1979
sg29
F-2.0
sg37
S'NICHE-009'
p1980
sg46
I17
sg54
F-2.0
sg62
F-2.0
sg70
F-2.0
sg78
F0.0
sg86
F-2.0
sg94
F-2.0
sg102
F0.55
sg110
F15.0
sg118
g3
(g783
S'0\xa8\x1bgj\x94\x8f?'
p1981
tp1982
Rp1983
sg126
F-2.0
sg134
g1411
sg143
F-2.0
sg151
F0.0
sg159
g197
sg161
(lp1984
g163
asg347
F-1.0
sg355
S'NICHE'
p1985
sg364
F-2.0
sg372
F-2.0
sg380
g1283
sg382
(dp1986
g384
(dp1987
g393
F10.0
sg401
F1.0
sg409
F0.0
sg417
F0.0
sg425
F1.0
sg433
F0.0
sg441
S"'early mars'"
p1988
sg450
F6.0
sg458
F0.0
sg466
F1.000001
sg474
F0.01
sg482
F1.0
sg490
F0.0
sg498
F0.8
sg506
F10.0
sg514
F1.000001
sg522
F10.0
sg530
F1.5
sg538
F44.0
sg546
F0.0
sg554
F1.0
sg562
F10.0
sg570
S"'maximum greenhouse'"
p1989
sg579
F0.3
sg587
F5e+40
sg595
F0.01
sg603
F1.5
sg611
F2.0
sg619
F3.0
sg627
S'BCA98'
p1990
sg636
S'BCA98'
p1991
sg645
F1.0
sg653
F1.0
sg661
F5e+40
sg669
g670
sg678
F0.1
sg686
S'BHMCatS0017V'
p1992
sg695
g696
sg704
F10.0
sg712
S'NICHE-009'
p1993
sg721
S"'recent venus'"
p1994
sg730
S"'runaway greenhouse'"
p1995
sg739
F1.0
sg747
g748
sg756
F0.01
sg764
F0.3
sssg772
F-2.0
sg780
F-1.0
sg796
g197
sg805
F0.85
sg813
F-2.0
sg821
F-2.0
sg829
S'0017'
p1996
sg838
F-2.0
sg846
F-2.0
sg854
F-2.0
sg862
F0.0
sg870
F-1.0
sg878
g197
sg886
F-2.0
sg894
F0.647058823529412
sg902
g903
sg911
S'NICHE-009 A'
p1997
sg920
F-2.0
sg928
F-1.0
sg936
g197
sg945
F-1.0
sg956
F0.133160893790228
sg964
F-1.0
sg975
F-2.0
sg983
F-2.0
sg991
g1977
sg999
F-2.0
sg1007
F0.0
sg1015
F-2.0
sg1023
F-1.0
sg1031
F-1.0
sg1039
F-2.0
sg1047
F0.3
sg1055
F-2.0
sg1063
F-1.0
sg1071
F-1.0
sg1082
F-2.0
sg1090
F-1.0
sg1098
F-2.0
ssS'BHMCatS0015V'
p1998
(dp1999
g12
F0.0
sg20
S'NICHE-007 B'
p2000
sg29
F-2.0
sg37
S'NICHE-007'
p2001
sg46
I15
sg54
F-2.0
sg62
F-2.0
sg70
F-2.0
sg78
F0.0
sg86
F-2.0
sg94
F-2.0
sg102
F0.85
sg110
F12.0
sg118
g3
(g783
S'0\xa8\x1bgj\x94\x8f?'
p2002
tp2003
Rp2004
sg126
F-2.0
sg134
g1411
sg143
F-2.0
sg151
F0.0
sg159
g197
sg161
(lp2005
g163
asg347
F-1.0
sg355
S'NICHE'
p2006
sg364
F-2.0
sg372
F-2.0
sg380
S'7'
p2007
sg382
(dp2008
g384
(dp2009
g393
F10.0
sg401
F1.0
sg409
F0.0
sg417
F0.0
sg425
F1.0
sg433
F0.0
sg441
S"'early mars'"
p2010
sg450
F6.0
sg458
F0.0
sg466
F1.000001
sg474
F0.01
sg482
F1.0
sg490
F0.0
sg498
F0.8
sg506
F10.0
sg514
F1.000001
sg522
F10.0
sg530
F1.5
sg538
F44.0
sg546
F0.0
sg554
F1.0
sg562
F10.0
sg570
S"'maximum greenhouse'"
p2011
sg579
F0.3
sg587
F5e+40
sg595
F0.01
sg603
F1.5
sg611
F2.0
sg619
F3.0
sg627
S'BCA98'
p2012
sg636
S'BCA98'
p2013
sg645
F1.0
sg653
F1.0
sg661
F5e+40
sg669
g670
sg678
F0.1
sg686
S'BHMCatS0015V'
p2014
sg695
g696
sg704
F10.0
sg712
S'NICHE-007'
p2015
sg721
S"'recent venus'"
p2016
sg730
S"'runaway greenhouse'"
p2017
sg739
F1.0
sg747
g748
sg756
F0.01
sg764
F0.3
sssg772
F-2.0
sg780
F-1.0
sg796
g197
sg805
F0.85
sg813
F-2.0
sg821
F-2.0
sg829
S'0015'
p2018
sg838
F-2.0
sg846
F-2.0
sg854
F-2.0
sg862
F0.0
sg870
F-1.0
sg878
g197
sg886
F-2.0
sg894
F1.0
sg902
g903
sg911
S'NICHE-007 A'
p2019
sg920
F-2.0
sg928
F-1.0
sg936
g197
sg945
F-1.0
sg956
F0.12242693814828
sg964
F-1.0
sg975
F-2.0
sg983
F-2.0
sg991
g1998
sg999
F-2.0
sg1007
F0.0
sg1015
F-2.0
sg1023
F-1.0
sg1031
F-1.0
sg1039
F-2.0
sg1047
F0.2
sg1055
F-2.0
sg1063
F-1.0
sg1071
F-1.0
sg1082
F-2.0
sg1090
F-1.0
sg1098
F-2.0
ssS'BHMCatS0003D'
p2020
(dp2021
g12
F-0.603
sg20
S'Kepler-35 B'
p2022
sg29
F4.756
sg37
S'Kepler-35'
p2023
sg46
I3
sg54
F5202.0
sg62
F-1.0
sg70
F-1.0
sg78
F0.002
sg86
F0.786
sg94
F12.0
sg102
F0.809
sg110
F20.734
sg118
g3
(g783
S'0ts\xcf\xf9\xe6p?'
p2024
tp2025
Rp2026
sg126
F46.68976111111111
sg134
g1278
sg143
F-1.0
sg151
F0.002
sg159
S'G type'
p2027
sg161
(lp2028
(dp2029
g171
S'BHMCatP0003'
p2030
sg180
F6.359465523592647
sg188
F0.042
sg196
S'BHMCatS003D'
p2031
sg205
F0.005
sg213
g1328
sg222
S'2012ApJ...758...87O'
p2032
sg231
S'Kepler-35b'
p2033
sg240
S'0003'
p2034
sg249
F8.16923183173756
sg257
F0.00102
sg265
S'Kepler-35'
p2035
sg274
F40.3826060748133
sg282
F-1.0
sg290
F0.60347
sg298
F0.085
sg306
F0.0
sg314
F1.697
sg322
F131.458
sg330
g1288
sg339
F0.15710061214879925
sasg347
F86.276
sg355
S'KIC'
p2036
sg364
F-1.0
sg372
F90.4238
sg380
S'9837578'
p2037
sg382
(dp2038
S'BHMCatP0003'
p2039
(dp2040
g393
F10.0
sg401
F1.0
sg409
F0.0
sg417
F0.0
sg425
F10.0
sg433
F-0.603
sg441
S"'early mars'"
p2041
sg450
F6.0
sg458
F0.0
sg466
F8.16923183173756
sg474
F0.01
sg482
F1.0
sg490
F-0.603
sg498
F0.8
sg506
F10.0
sg514
F40.3826060748133
sg522
F10.0
sg530
F1.5
sg538
F44.0
sg546
F0.0
sg554
F1.0
sg562
F10.0
sg570
S"'maximum greenhouse'"
p2042
sg579
F0.3
sg587
F5e+40
sg595
F0.01
sg603
F1.5
sg611
F2.0
sg619
F3.0
sg627
S'BCA98'
p2043
sg636
S'BCA98'
p2044
sg645
F1.0
sg653
F10.0
sg661
F5e+40
sg669
S'BHMCatP0003'
p2045
sg678
F0.1
sg686
S'BHMCatS0003D'
p2046
sg695
S'Kepler-35b'
p2047
sg704
F10.0
sg712
S'Kepler-35'
p2048
sg721
S"'recent venus'"
p2049
sg730
S"'runaway greenhouse'"
p2050
sg739
F10.0
sg747
S"'Earth'"
p2051
sg756
F0.01
sg764
F0.3
sssg772
F0.123
sg780
F-1.0
sg796
S'2012Natur.481..475W; 2012yCatp038048101W;'
p2052
sg805
F0.888
sg813
F1.028
sg821
F0.1
sg829
S'0003'
p2053
sg838
F-1.0
sg846
F-1.0
sg854
F19.633131944444443
sg862
F0.005
sg870
F-1.0
sg878
S'BHMCatP0003;'
p2054
sg886
F100.0
sg894
F0.911036036036036
sg902
g903
sg911
S'Kepler-35 A'
p2055
sg920
F20.8
sg928
F-1.0
sg936
S'G type'
p2056
sg945
F-1.0
sg956
F0.1762
sg964
F-1.0
sg975
F15.726
sg983
F5606.0
sg991
g2020
sg999
F-1.0
sg1007
F0.004
sg1015
F-1.0
sg1023
F-1.0
sg1031
F-0.603
sg1039
F8.0
sg1047
F0.1421
sg1055
F-1.0
sg1063
g3
(g783
S'0ts\xcf\xf9\xe6p?'
p2057
tp2058
Rp2059
sg1071
F-1.0
sg1082
F-1.0
sg1090
g3
(g783
S'\x9d{Ss\x17\xef\x99@'
p2060
tp2061
Rp2062
sg1098
F150.0
ssS'FieldsText'
p2063
(dp2064
g12
g3
(g4
(S'S10'
p2065
I0
I1
tp2066
Rp2067
(I3
S'|'
p2068
NNNI10
I1
I0
tp2069
bS'[Fe/H]_fit'
p2070
tp2071
Rp2072
sg20
g3
(g4
(S'S10'
p2073
I0
I1
tp2074
Rp2075
(I3
S'|'
p2076
NNNI10
I1
I0
tp2077
bS'Star 2 Id.'
p2078
tp2079
Rp2080
sg29
g3
(g4
(S'S7'
p2081
I0
I1
tp2082
Rp2083
(I3
S'|'
p2084
NNNI7
I1
I0
tp2085
bS'log g_1'
p2086
tp2087
Rp2088
sg37
g3
(g4
(S'S10'
p2089
I0
I1
tp2090
Rp2091
(I3
S'|'
p2092
NNNI10
I1
I0
tp2093
bS'System Id.'
p2094
tp2095
Rp2096
sg46
g3
(g4
(S'S3'
p2097
I0
I1
tp2098
Rp2099
(I3
S'|'
p2100
NNNI3
I1
I0
tp2101
bS'No.'
p2102
tp2103
Rp2104
sg54
g3
(g4
(S'S3'
p2105
I0
I1
tp2106
Rp2107
(I3
S'|'
p2108
NNNI3
I1
I0
tp2109
bS'T_2'
p2110
tp2111
Rp2112
sg62
g3
(g4
(S'S11'
p2113
I0
I1
tp2114
Rp2115
(I3
S'|'
p2116
NNNI11
I1
I0
tp2117
bS'log g_2,err'
p2118
tp2119
Rp2120
sg70
g3
(g4
(S'S11'
p2121
I0
I1
tp2122
Rp2123
(I3
S'|'
p2124
NNNI11
I1
I0
tp2125
bS'P_rot,2,err'
p2126
tp2127
Rp2128
sg78
g3
(g4
(S'S7'
p2129
I0
I1
tp2130
Rp2131
(I3
S'|'
p2132
NNNI7
I1
I0
tp2133
bS'R_1,err'
p2134
tp2135
Rp2136
sg86
g3
(g4
(S'S3'
p2137
I0
I1
tp2138
Rp2139
(I3
S'|'
p2140
NNNI3
I1
I0
tp2141
bS'R_2'
p2142
tp2143
Rp2144
sg94
g3
(g4
(S'S8'
p2145
I0
I1
tp2146
Rp2147
(I3
S'|'
p2148
NNNI8
I1
I0
tp2149
bS'\\tau_max'
p2150
tp2151
Rp2152
sg102
g3
(g4
(S'S3'
p2153
I0
I1
tp2154
Rp2155
(I3
S'|'
p2156
NNNI3
I1
I0
tp2157
bS'M_2'
p2158
tp2159
Rp2160
sg110
g3
(g4
(S'S5'
p2161
I0
I1
tp2162
Rp2163
(I3
S'|'
p2164
NNNI5
I1
I0
tp2165
bS'P_bin'
p2166
tp2167
Rp2168
sg118
g3
(g4
(S'S5'
p2169
I0
I1
tp2170
Rp2171
(I3
S'|'
p2172
NNNI5
I1
I0
tp2173
bS'Z_fit'
p2174
tp2175
Rp2176
sg126
g3
(g4
(S'S3'
p2177
I0
I1
tp2178
Rp2179
(I3
S'|'
p2180
NNNI3
I1
I0
tp2181
bS'DEC'
p2182
tp2183
Rp2184
sg134
g3
(g4
(S'S4'
p2185
I0
I1
tp2186
Rp2187
(I3
S'|'
p2188
NNNI4
I1
I0
tp2189
bS'Type'
p2190
tp2191
Rp2192
sg143
g3
(g4
(S'S15'
p2193
I0
I1
tp2194
Rp2195
(I3
S'|'
p2196
NNNI15
I1
I0
tp2197
bS'v_2 sin i_2,err'
p2198
tp2199
Rp2200
sg151
g3
(g4
(S'S7'
p2201
I0
I1
tp2202
Rp2203
(I3
S'|'
p2204
NNNI7
I1
I0
tp2205
bS'R_2,err'
p2206
tp2207
Rp2208
sg159
g3
(g4
(S'S10'
p2209
I0
I1
tp2210
Rp2211
(I3
S'|'
p2212
NNNI10
I1
I0
tp2213
bS'Sp. Type 1'
p2214
tp2215
Rp2216
sg347
g3
(g4
(S'S10'
p2217
I0
I1
tp2218
Rp2219
(I3
S'|'
p2220
NNNI10
I1
I0
tp2221
bS'\\omega_bin'
p2222
tp2223
Rp2224
sg355
g3
(g4
(S'S11'
p2225
I0
I1
tp2226
Rp2227
(I3
S'|'
p2228
NNNI11
I1
I0
tp2229
bS'Source Cat.'
p2230
tp2231
Rp2232
sg364
g3
(g4
(S'S8'
p2233
I0
I1
tp2234
Rp2235
(I3
S'|'
p2236
NNNI8
I1
I0
tp2237
bS'log g_2 '
p2238
tp2239
Rp2240
sg372
g3
(g4
(S'S5'
p2241
I0
I1
tp2242
Rp2243
(I3
S'|'
p2244
NNNI5
I1
I0
tp2245
bS'i_bin'
p2246
tp2247
Rp2248
sg380
g3
(g4
(S'S10'
p2249
I0
I1
tp2250
Rp2251
(I3
S'|'
p2252
NNNI10
I1
I0
tp2253
bS'Source Id.'
p2254
tp2255
Rp2256
sg772
g3
(g4
(S'S3'
p2257
I0
I1
tp2258
Rp2259
(I3
S'|'
p2260
NNNI3
I1
I0
tp2261
bS'B-V'
p2262
tp2263
Rp2264
sg780
g3
(g4
(S'S9'
p2265
I0
I1
tp2266
Rp2267
(I3
S'|'
p2268
NNNI9
I1
I0
tp2269
bS'P_rot,v,1'
p2270
tp2271
Rp2272
sg796
g3
(g4
(S'S8'
p2273
I0
I1
tp2274
Rp2275
(I3
S'|'
p2276
NNNI8
I1
I0
tp2277
bS'ADS Link'
p2278
tp2279
Rp2280
sg805
g3
(g4
(S'S3'
p2281
I0
I1
tp2282
Rp2283
(I3
S'|'
p2284
NNNI3
I1
I0
tp2285
bS'M_1'
p2286
tp2287
Rp2288
sg813
g3
(g4
(S'S3'
p2289
I0
I1
tp2290
Rp2291
(I3
S'|'
p2292
NNNI3
I1
I0
tp2293
bS'R_1'
p2294
tp2295
Rp2296
sg821
g3
(g4
(S'S11'
p2297
I0
I1
tp2298
Rp2299
(I3
S'|'
p2300
NNNI11
I1
I0
tp2301
bS'P_rot,1,err'
p2302
tp2303
Rp2304
sg829
g3
(g4
(S'S3'
p2305
I0
I1
tp2306
Rp2307
(I3
S'|'
p2308
NNNI3
I1
I0
tp2309
bS'No.'
p2310
tp2311
Rp2312
sg838
g3
(g4
(S'S11'
p2313
I0
I1
tp2314
Rp2315
(I3
S'|'
p2316
NNNI11
I1
I0
tp2317
bS'log g_2,err'
p2318
tp2319
Rp2320
sg846
g3
(g4
(S'S7'
p2321
I0
I1
tp2322
Rp2323
(I3
S'|'
p2324
NNNI7
I1
I0
tp2325
bS'P_rot,2'
p2326
tp2327
Rp2328
sg854
g3
(g4
(S'S2'
p2329
I0
I1
tp2330
Rp2331
(I3
S'|'
p2332
NNNI2
I1
I0
tp2333
bS'RA'
p2334
tp2335
Rp2336
sg862
g3
(g4
(S'S7'
p2337
I0
I1
tp2338
Rp2339
(I3
S'|'
p2340
NNNI7
I1
I0
tp2341
bS'M_1,err'
p2342
tp2343
Rp2344
sg870
g3
(g4
(S'S5'
p2345
I0
I1
tp2346
Rp2347
(I3
S'|'
p2348
NNNI5
I1
I0
tp2349
bS'd,err'
p2350
tp2351
Rp2352
sg878
g3
(g4
(S'S7'
p2353
I0
I1
tp2354
Rp2355
(I3
S'|'
p2356
NNNI7
I1
I0
tp2357
bS'Planets'
p2358
tp2359
Rp2360
sg886
g3
(g4
(S'S7'
p2361
I0
I1
tp2362
Rp2363
(I3
S'|'
p2364
NNNI7
I1
I0
tp2365
bS'T_2,err'
p2366
tp2367
Rp2368
sg894
g3
(g4
(S'S1'
p2369
I0
I1
tp2370
Rp2371
(I3
S'|'
p2372
NNNI1
I1
I0
tp2373
bS'q'
p2374
tp2375
Rp2376
sg902
g3
(g4
(S'S5'
p2377
I0
I1
tp2378
Rp2379
(I3
S'|'
p2380
NNNI5
I1
I0
tp2381
bS'Notes'
p2382
tp2383
Rp2384
sg911
g3
(g4
(S'S10'
p2385
I0
I1
tp2386
Rp2387
(I3
S'|'
p2388
NNNI10
I1
I0
tp2389
bS'Star 1 Id.'
p2390
tp2391
Rp2392
sg920
g3
(g4
(S'S7'
p2393
I0
I1
tp2394
Rp2395
(I3
S'|'
p2396
NNNI7
I1
I0
tp2397
bS'P_rot,1'
p2398
tp2399
Rp2400
sg928
g3
(g4
(S'S1'
p2401
I0
I1
tp2402
Rp2403
(I3
S'|'
p2404
NNNI1
I1
I0
tp2405
bS'd'
p2406
tp2407
Rp2408
sg936
g3
(g4
(S'S10'
p2409
I0
I1
tp2410
Rp2411
(I3
S'|'
p2412
NNNI10
I1
I0
tp2413
bS'Sp. Type 2'
p2414
tp2415
Rp2416
sg945
g3
(g4
(S'S13'
p2417
I0
I1
tp2418
Rp2419
(I3
S'|'
p2420
NNNI13
I1
I0
tp2421
bS'P_rot,v,2,err'
p2422
tp2423
Rp2424
sg956
g3
(g4
(S'S5'
p2425
I0
I1
tp2426
Rp2427
(I3
S'|'
p2428
NNNI5
I1
I0
tp2429
bS'a_bin'
p2430
tp2431
Rp2432
sg964
g3
(g4
(S'S9'
p2433
I0
I1
tp2434
Rp2435
(I3
S'|'
p2436
NNNI9
I1
I0
tp2437
bS'P_rot,v,2'
p2438
tp2439
Rp2440
sg975
g3
(g4
(S'S1'
p2441
I0
I1
tp2442
Rp2443
(I3
S'|'
p2444
NNNI1
I1
I0
tp2445
bg1411
tp2446
Rp2447
sg983
g3
(g4
(S'S3'
p2448
I0
I1
tp2449
Rp2450
(I3
S'|'
p2451
NNNI3
I1
I0
tp2452
bS'T_1'
p2453
tp2454
Rp2455
sg991
g3
(g4
(S'S7'
p2456
I0
I1
tp2457
Rp2458
(I3
S'|'
p2459
NNNI7
I1
I0
tp2460
bS'Cat.Id.'
p2461
tp2462
Rp2463
sg999
g3
(g4
(S'S3'
p2464
I0
I1
tp2465
Rp2466
(I3
S'|'
p2467
NNNI3
I1
I0
tp2468
bS'L_x'
p2469
tp2470
Rp2471
sg1007
g3
(g4
(S'S7'
p2472
I0
I1
tp2473
Rp2474
(I3
S'|'
p2475
NNNI7
I1
I0
tp2476
bS'M_2,err'
p2477
tp2478
Rp2479
sg1015
g3
(g4
(S'S15'
p2480
I0
I1
tp2481
Rp2482
(I3
S'|'
p2483
NNNI15
I1
I0
tp2484
bS'v_1 sin i_1,err'
p2485
tp2486
Rp2487
sg1023
g3
(g4
(S'S14'
p2488
I0
I1
tp2489
Rp2490
(I3
S'|'
p2491
NNNI14
I1
I0
tp2492
bS'[Fe/H]_fit,err'
p2493
tp2494
Rp2495
sg1031
g3
(g4
(S'S10'
p2496
I0
I1
tp2497
Rp2498
(I3
S'|'
p2499
NNNI10
I1
I0
tp2500
bS'[Fe/H]_obs'
p2501
tp2502
Rp2503
sg1039
g3
(g4
(S'S8'
p2504
I0
I1
tp2505
Rp2506
(I3
S'|'
p2507
NNNI8
I1
I0
tp2508
bS'\\tau_min'
p2509
tp2510
Rp2511
sg1047
g3
(g4
(S'S5'
p2512
I0
I1
tp2513
Rp2514
(I3
S'|'
p2515
NNNI5
I1
I0
tp2516
bS'e_bin'
p2517
tp2518
Rp2519
sg1055
g3
(g4
(S'S11'
p2520
I0
I1
tp2521
Rp2522
(I3
S'|'
p2523
NNNI11
I1
I0
tp2524
bS'v_1 sin i,1'
p2525
tp2526
Rp2527
sg1063
g3
(g4
(S'S5'
p2528
I0
I1
tp2529
Rp2530
(I3
S'|'
p2531
NNNI5
I1
I0
tp2532
bS'Z_obs'
p2533
tp2534
Rp2535
sg1071
g3
(g4
(S'S13'
p2536
I0
I1
tp2537
Rp2538
(I3
S'|'
p2539
NNNI13
I1
I0
tp2540
bS'P_rot,v,1,err'
p2541
tp2542
Rp2543
sg1082
g3
(g4
(S'S11'
p2544
I0
I1
tp2545
Rp2546
(I3
S'|'
p2547
NNNI11
I1
I0
tp2548
bS'v_2 sin i_2'
p2549
tp2550
Rp2551
sg1090
g3
(g4
(S'S5'
p2552
I0
I1
tp2553
Rp2554
(I3
S'|'
p2555
NNNI5
I1
I0
tp2556
bS'd_mod'
p2557
tp2558
Rp2559
sg1098
g3
(g4
(S'S7'
p2560
I0
I1
tp2561
Rp2562
(I3
S'|'
p2563
NNNI7
I1
I0
tp2564
bS'T_1,err'
p2565
tp2566
Rp2567
ssS'BHMCatS0048P'
p2568
(dp2569
g12
F-1.0
sg20
S'FM Leo B'
p2570
sg29
F4.124
sg37
S'FM Leo'
p2571
sg46
I48
sg54
F6190.0
sg62
F0.028
sg70
F-1.0
sg78
F0.043
sg86
F1.511
sg94
F-1.0
sg102
F1.287
sg110
F6.728606
sg118
F-1.0
sg126
F0.3480111111111111
sg134
g135
sg143
F-1.0
sg151
F0.049
sg159
S'F9V'
p2572
sg161
(lp2573
g163
asg347
F-1.0
sg355
S'EkCat'
p2574
sg364
F4.189
sg372
F87.98
sg380
S'114'
p2575
sg382
(dp2576
g384
(dp2577
g393
F10.0
sg401
F1.0
sg409
F0.0
sg417
F0.0
sg425
F1.0
sg433
F0.0
sg441
S"'early mars'"
p2578
sg450
F6.0
sg458
F0.0
sg466
F1.000001
sg474
F0.01
sg482
F1.0
sg490
F0.0
sg498
F0.8
sg506
F10.0
sg514
F1.000001
sg522
F10.0
sg530
F1.5
sg538
F44.0
sg546
F0.0
sg554
F1.0
sg562
F10.0
sg570
S"'maximum greenhouse'"
p2579
sg579
F0.3
sg587
F5e+40
sg595
F0.01
sg603
F1.5
sg611
F2.0
sg619
F3.0
sg627
S'BCA98'
p2580
sg636
S'BCA98'
p2581
sg645
F1.0
sg653
F1.0
sg661
F5e+40
sg669
g670
sg678
F0.1
sg686
S'BHMCatS0048P'
p2582
sg695
g696
sg704
F10.0
sg712
S'FM Leo'
p2583
sg721
S"'recent venus'"
p2584
sg730
S"'runaway greenhouse'"
p2585
sg739
F1.0
sg747
g748
sg756
F0.01
sg764
F0.3
sssg772
F-1.0
sg780
F-1.0
sg796
S'2010MNRAS.402.2424R;'
p2586
sg805
F1.318
sg813
F1.648
sg821
F-1.0
sg829
S'0048'
p2587
sg838
F0.023
sg846
F-1.0
sg854
F11.212525
sg862
F0.007
sg870
F25.5
sg878
g197
sg886
F211.0
sg894
F0.976479514415781
sg902
g903
sg911
S'FM Leo A'
p2588
sg920
F-1.0
sg928
F130.4
sg936
S'F9V'
p2589
sg945
F-1.0
sg956
F0.0960263065508021
sg964
F-1.0
sg975
F8.453
sg983
F6316.0
sg991
g2568
sg999
F-1.0
sg1007
F0.007
sg1015
F-1.0
sg1023
F-1.0
sg1031
F-1.0
sg1039
F-1.0
sg1047
F0.0
sg1055
F-1.0
sg1063
F-1.0
sg1071
F-1.0
sg1082
F-1.0
sg1090
F-1.0
sg1098
F240.0
ssS'BHMCatS0049P'
p2590
(dp2591
g12
F-1.0
sg20
S'BW Aqr B'
p2592
sg29
F3.981
sg37
S'BW Aqr'
p2593
sg46
I49
sg54
F6450.0
sg62
F0.022
sg70
F-1.0
sg78
F0.04
sg86
F1.79
sg94
F-1.0
sg102
F1.39
sg110
F6.719712
sg118
F-1.0
sg126
F-14.667716666666667
sg134
g135
sg143
F0.8
sg151
F0.04
sg159
S'F7IV'
p2594
sg161
(lp2595
g163
asg347
F-1.0
sg355
S'EkCat'
p2596
sg364
F4.075
sg372
F88.4
sg380
S'236'
p2597
sg382
(dp2598
g384
(dp2599
g393
F10.0
sg401
F1.0
sg409
F0.0
sg417
F0.0
sg425
F1.0
sg433
F0.0
sg441
S"'early mars'"
p2600
sg450
F6.0
sg458
F0.0
sg466
F1.000001
sg474
F0.01
sg482
F1.0
sg490
F0.0
sg498
F0.8
sg506
F10.0
sg514
F1.000001
sg522
F10.0
sg530
F1.5
sg538
F44.0
sg546
F0.0
sg554
F1.0
sg562
F10.0
sg570
S"'maximum greenhouse'"
p2601
sg579
F0.3
sg587
F5e+40
sg595
F0.01
sg603
F1.5
sg611
F2.0
sg619
F3.0
sg627
S'BCA98'
p2602
sg636
S'BCA98'
p2603
sg645
F1.0
sg653
F1.0
sg661
F5e+40
sg669
g670
sg678
F0.1
sg686
S'BHMCatS0049P'
p2604
sg695
g696
sg704
F10.0
sg712
S'BW Aqr'
p2605
sg721
S"'recent venus'"
p2606
sg730
S"'runaway greenhouse'"
p2607
sg739
F1.0
sg747
g748
sg756
F0.01
sg764
F0.3
sssg772
F-1.0
sg780
g3
(g783
S'\xae\xc6\x02\xb8\xb0\xb2%@'
p2608
tp2609
Rp2610
sg796
S'1991A&A...246..397C;'
p2611
sg805
F1.49
sg813
F2.06
sg821
F-1.0
sg829
S'0049'
p2612
sg838
F0.019
sg846
F-1.0
sg854
F22.387758333333334
sg862
F0.02
sg870
F15.0
sg878
g197
sg886
F100.0
sg894
F0.932885906040268
sg902
g903
sg911
S'BW Aqr A'
p2613
sg920
F-1.0
sg928
F420.0
sg936
S'F8IV'
p2614
sg945
g3
(g783
S'\xd5\xc4EG\xa0l\xd9?'
p2615
tp2616
Rp2617
sg956
F0.0990984036096257
sg964
g3
(g783
S'\x98\x95+\x0b\x91\xd0\x1a@'
p2618
tp2619
Rp2620
sg975
F10.401
sg983
F6350.0
sg991
g2590
sg999
F-1.0
sg1007
F0.02
sg1015
F1.3
sg1023
F-1.0
sg1031
F-1.0
sg1039
F-1.0
sg1047
F0.178
sg1055
F9.6
sg1063
F-1.0
sg1071
g3
(g783
S'=WX\xc7\x94\x81\xf7?'
p2621
tp2622
Rp2623
sg1082
F13.5
sg1090
F-1.0
sg1098
F100.0
ssS'BHMCatS0019V'
p2624
(dp2625
g12
F0.0
sg20
S'NICHE-011 B'
p2626
sg29
F-2.0
sg37
S'NICHE-011'
p2627
sg46
I19
sg54
F-2.0
sg62
F-2.0
sg70
F-2.0
sg78
F0.0
sg86
F-2.0
sg94
F-2.0
sg102
F0.55
sg110
F30.0
sg118
g3
(g783
S'0\xa8\x1bgj\x94\x8f?'
p2628
tp2629
Rp2630
sg126
F-2.0
sg134
g1411
sg143
F-2.0
sg151
F0.0
sg159
g197
sg161
(lp2631
g163
asg347
F-1.0
sg355
S'NICHE'
p2632
sg364
F-2.0
sg372
F-2.0
sg380
S'11'
p2633
sg382
(dp2634
g384
(dp2635
g393
F10.0
sg401
F1.0
sg409
F0.0
sg417
F0.0
sg425
F1.0
sg433
F0.0
sg441
S"'early mars'"
p2636
sg450
F6.0
sg458
F0.0
sg466
F1.000001
sg474
F0.01
sg482
F1.0
sg490
F0.0
sg498
F0.8
sg506
F10.0
sg514
F1.000001
sg522
F10.0
sg530
F1.5
sg538
F44.0
sg546
F0.0
sg554
F1.0
sg562
F10.0
sg570
S"'maximum greenhouse'"
p2637
sg579
F0.3
sg587
F5e+40
sg595
F0.01
sg603
F1.5
sg611
F2.0
sg619
F3.0
sg627
S'BCA98'
p2638
sg636
S'BCA98'
p2639
sg645
F1.0
sg653
F1.0
sg661
F5e+40
sg669
g670
sg678
F0.1
sg686
S'BHMCatS0019V'
p2640
sg695
g696
sg704
F10.0
sg712
S'NICHE-011'
p2641
sg721
S"'recent venus'"
p2642
sg730
S"'runaway greenhouse'"
p2643
sg739
F1.0
sg747
g748
sg756
F0.01
sg764
F0.3
sssg772
F-2.0
sg780
F-1.0
sg796
g197
sg805
F0.7
sg813
F-2.0
sg821
F-2.0
sg829
S'0019'
p2644
sg838
F-2.0
sg846
F-2.0
sg854
F-2.0
sg862
F0.0
sg870
F-1.0
sg878
g197
sg886
F-2.0
sg894
F0.785714285714286
sg902
g903
sg911
S'NICHE-011 A'
p2645
sg920
F-2.0
sg928
F-1.0
sg936
g197
sg945
F-1.0
sg956
F0.203543556080572
sg964
F-1.0
sg975
F-2.0
sg983
F-2.0
sg991
g2624
sg999
F-2.0
sg1007
F0.0
sg1015
F-2.0
sg1023
F-1.0
sg1031
F-1.0
sg1039
F-2.0
sg1047
F0.4
sg1055
F-2.0
sg1063
F-1.0
sg1071
F-1.0
sg1082
F-2.0
sg1090
F-1.0
sg1098
F-2.0
ssS'BHMCatS0025P'
p2646
(dp2647
g12
F-1.0
sg20
S'V785 Cep B'
p2648
sg29
F-1.0
sg37
S'V785 Cep'
p2649
sg46
I25
sg54
F5874.0
sg62
F-1.0
sg70
F-1.0
sg78
F0.019
sg86
F1.373
sg94
F-1.0
sg102
F1.081
sg110
F6.504
sg118
F-1.0
sg126
F85.17629166666667
sg134
g135
sg143
F-1.0
sg151
F0.019
sg159
S'G type'
p2650
sg161
(lp2651
g163
asg347
F-1.0
sg355
S'DEBCat'
p2652
sg364
F-1.0
sg372
F-1.0
sg380
S'26'
p2653
sg382
(dp2654
g384
(dp2655
g393
F10.0
sg401
F1.0
sg409
F0.0
sg417
F0.0
sg425
F1.0
sg433
F0.0
sg441
S"'early mars'"
p2656
sg450
F6.0
sg458
F0.0
sg466
F1.000001
sg474
F0.01
sg482
F1.0
sg490
F0.0
sg498
F0.8
sg506
F10.0
sg514
F1.000001
sg522
F10.0
sg530
F1.5
sg538
F44.0
sg546
F0.0
sg554
F1.0
sg562
F10.0
sg570
S"'maximum greenhouse'"
p2657
sg579
F0.3
sg587
F5e+40
sg595
F0.01
sg603
F1.5
sg611
F2.0
sg619
F3.0
sg627
S'BCA98'
p2658
sg636
S'BCA98'
p2659
sg645
F1.0
sg653
F1.0
sg661
F5e+40
sg669
g670
sg678
F0.1
sg686
S'BHMCatS0025P'
p2660
sg695
g696
sg704
F10.0
sg712
S'V785 Cep'
p2661
sg721
S"'recent venus'"
p2662
sg730
S"'runaway greenhouse'"
p2663
sg739
F1.0
sg747
g748
sg756
F0.01
sg764
F0.3
sssg772
F0.6
sg780
F-1.0
sg796
S'2014AJ....147...42Z; 2012MNRAS.425.3104F;'
p2664
sg805
F1.103
sg813
F1.424
sg821
F-1.0
sg829
S'0025'
p2665
sg838
F-1.0
sg846
F-1.0
sg854
F0.8770944444444445
sg862
F0.007
sg870
F-1.0
sg878
g197
sg886
F-1.0
sg894
F0.980054397098821
sg902
g903
sg911
S'V785 Cep A'
p2666
sg920
F-1.0
sg928
F-1.0
sg936
S'G type'
p2667
sg945
F-1.0
sg956
F0.0885
sg964
F-1.0
sg975
F14.74
sg983
F5902.0
sg991
g2646
sg999
F-1.0
sg1007
F0.007
sg1015
F-1.0
sg1023
F-1.0
sg1031
F-1.0
sg1039
F-1.0
sg1047
F0.0
sg1055
F-1.0
sg1063
F-1.0
sg1071
F-1.0
sg1082
F-1.0
sg1090
g3
(g783
S'\x03%\xcc\x91\x0b\xf3\x9d@'
p2668
tp2669
Rp2670
sg1098
F-1.0
ssS'BHMCatS0033P'
p2671
(dp2672
g12
F-1.0
sg20
S'KIC 6131659 B'
p2673
sg29
F4.51361395576685
sg37
S'KIC 6131659'
p2674
sg46
I33
sg54
F4780.0
sg62
F0.009
sg70
F-1.0
sg78
F0.003
sg86
F0.64
sg94
F-1.0
sg102
F0.685
sg110
F17.52782716
sg118
F-1.0
sg126
F41.436905555555555
sg134
g135
sg143
F-1.0
sg151
F0.006
sg159
S'G5V'
p2675
sg161
(lp2676
g163
asg347
F-1.0
sg355
S'EkCat'
p2677
sg364
F4.66185785287664
sg372
F89.19
sg380
S'198'
p2678
sg382
(dp2679
g384
(dp2680
g393
F10.0
sg401
F1.0
sg409
F0.0
sg417
F0.0
sg425
F1.0
sg433
F0.0
sg441
S"'early mars'"
p2681
sg450
F6.0
sg458
F0.0
sg466
F1.000001
sg474
F0.01
sg482
F1.0
sg490
F0.0
sg498
F0.8
sg506
F10.0
sg514
F1.000001
sg522
F10.0
sg530
F1.5
sg538
F44.0
sg546
F0.0
sg554
F1.0
sg562
F10.0
sg570
S"'maximum greenhouse'"
p2682
sg579
F0.3
sg587
F5e+40
sg595
F0.01
sg603
F1.5
sg611
F2.0
sg619
F3.0
sg627
S'BCA98'
p2683
sg636
S'BCA98'
p2684
sg645
F1.0
sg653
F1.0
sg661
F5e+40
sg669
g670
sg678
F0.1
sg686
S'BHMCatS0033P'
p2685
sg695
g696
sg704
F10.0
sg712
S'KIC 6131659'
p2686
sg721
S"'recent venus'"
p2687
sg730
S"'runaway greenhouse'"
p2688
sg739
F1.0
sg747
g748
sg756
F0.01
sg764
F0.3
sssg772
F-1.0
sg780
F-1.0
sg796
S'2008AN....329..835B;'
p2689
sg805
F0.922
sg813
F0.88
sg821
F-1.0
sg829
S'0033'
p2690
sg838
F0.004
sg846
F-1.0
sg854
F19.618605555555558
sg862
F0.007
sg870
F31.0
sg878
g197
sg886
F105.0
sg894
F0.74295010845987
sg902
S'DEBCat'
p2691
sg911
S'KIC 6131659 A'
p2692
sg920
F-1.0
sg928
F322.0
sg936
g197
sg945
F-1.0
sg956
F0.154768526069519
sg964
F-1.0
sg975
F17.85
sg983
F5660.0
sg991
g2671
sg999
F-1.0
sg1007
F0.005
sg1015
F-1.0
sg1023
F-1.0
sg1031
F-1.0
sg1039
F-1.0
sg1047
F0.0
sg1055
F-1.0
sg1063
F-1.0
sg1071
F-1.0
sg1082
F-1.0
sg1090
F-1.0
sg1098
F140.0
ssS'PlanetFieldsPriority'
p2693
(dp2694
g171
I1
sg180
I4
sg188
I1
sg196
I1
sg205
I4
sg213
I100
sg222
I1
sg231
I1
sg240
I1
sg249
I1
sg257
I4
sg265
I2
sg274
I1
sg282
I2
sg290
I1
sg298
I4
sg306
I4
sg314
I100
sg322
I1
sg330
I100
sg339
I4
ssS'BHMCatS0031P'
p2695
(dp2696
g12
F-1.0
sg20
S'V565 Lyr B'
p2697
sg29
F4.3524
sg37
S'V565 Lyr'
p2698
sg46
I31
sg54
F5430.0
sg62
F0.008
sg70
F-1.0
sg78
F0.007
sg86
F0.971
sg94
F-1.0
sg102
F0.929
sg110
F18.798638
sg118
F-1.0
sg126
F37.76925
sg134
g135
sg143
F1.0
sg151
F0.009
sg159
S'G type'
p2699
sg161
(lp2700
g163
asg347
F-1.0
sg355
S'EkCat'
p2701
sg364
F4.4319
sg372
F89.38
sg380
S'187'
p2702
sg382
(dp2703
g384
(dp2704
g393
F10.0
sg401
F1.0
sg409
F0.0
sg417
F0.0
sg425
F1.0
sg433
F0.0
sg441
S"'early mars'"
p2705
sg450
F6.0
sg458
F0.0
sg466
F1.000001
sg474
F0.01
sg482
F1.0
sg490
F0.0
sg498
F0.8
sg506
F10.0
sg514
F1.000001
sg522
F10.0
sg530
F1.5
sg538
F44.0
sg546
F0.0
sg554
F1.0
sg562
F10.0
sg570
S"'maximum greenhouse'"
p2706
sg579
F0.3
sg587
F5e+40
sg595
F0.01
sg603
F1.5
sg611
F2.0
sg619
F3.0
sg627
S'BCA98'
p2707
sg636
S'BCA98'
p2708
sg645
F1.0
sg653
F1.0
sg661
F5e+40
sg669
g670
sg678
F0.1
sg686
S'BHMCatS0031P'
p2709
sg695
g696
sg704
F10.0
sg712
S'V565 Lyr'
p2710
sg721
S"'recent venus'"
p2711
sg730
S"'runaway greenhouse'"
p2712
sg739
F1.0
sg747
g748
sg756
F0.01
sg764
F0.3
sssg772
F-1.0
sg780
g3
(g783
S'@\x96\x81(w\xd7+@'
p2713
tp2714
Rp2715
sg796
S'2011A&A...525A...2B;'
p2716
sg805
F0.996
sg813
F1.101
sg821
F-1.0
sg829
S'0031'
p2717
sg838
F0.0053
sg846
F-1.0
sg854
F19.34697222222222
sg862
F0.003
sg870
F250.0
sg878
g197
sg886
F125.0
sg894
F0.932730923694779
sg902
S'DEBCat'
p2718
sg911
S'V565 Lyr A'
p2719
sg920
F-1.0
sg928
F4010.0
sg936
S'G type'
p2720
sg945
g3
(g783
S'\x9fL\xbd\xcc\x12\t\x10@'
p2721
tp2722
Rp2723
sg956
F0.172270169919786
sg964
g3
(g783
S'\x16FK\xe6\xe0\x0f,@'
p2724
tp2725
Rp2726
sg975
F17.73
sg983
F5600.0
sg991
g2695
sg999
F-1.0
sg1007
F0.003
sg1015
F1.0
sg1023
F-1.0
sg1031
F-1.0
sg1039
F-1.0
sg1047
F0.02
sg1055
F4.0
sg1063
F-1.0
sg1071
g3
(g783
S'@\x96\x81(w\xd7\x0b@'
p2727
tp2728
Rp2729
sg1082
F3.5
sg1090
F-1.0
sg1098
F95.0
ssS'BHMCatS0022P'
p2730
(dp2731
g12
F-1.0
sg20
S'V54 M55 B'
p2732
sg29
F-1.0
sg37
S'V54 M55'
p2733
sg46
I22
sg54
F5023.0
sg62
F-1.0
sg70
F-1.0
sg78
F0.009
sg86
F0.528
sg94
F-1.0
sg102
F0.555
sg110
F9.269
sg118
F-1.0
sg126
F-1.0
sg134
g135
sg143
F-1.0
sg151
F0.005
sg159
S'F type'
p2734
sg161
(lp2735
g163
asg347
F-1.0
sg355
S'DEBCat'
p2736
sg364
F-1.0
sg372
F-1.0
sg380
S'29'
p2737
sg382
(dp2738
g384
(dp2739
g393
F10.0
sg401
F1.0
sg409
F0.0
sg417
F0.0
sg425
F1.0
sg433
F0.0
sg441
S"'early mars'"
p2740
sg450
F6.0
sg458
F0.0
sg466
F1.000001
sg474
F0.01
sg482
F1.0
sg490
F0.0
sg498
F0.8
sg506
F10.0
sg514
F1.000001
sg522
F10.0
sg530
F1.5
sg538
F44.0
sg546
F0.0
sg554
F1.0
sg562
F10.0
sg570
S"'maximum greenhouse'"
p2741
sg579
F0.3
sg587
F5e+40
sg595
F0.01
sg603
F1.5
sg611
F2.0
sg619
F3.0
sg627
S'BCA98'
p2742
sg636
S'BCA98'
p2743
sg645
F1.0
sg653
F1.0
sg661
F5e+40
sg669
g670
sg678
F0.1
sg686
S'BHMCatS0022P'
p2744
sg695
g696
sg704
F10.0
sg712
S'V54 M55'
p2745
sg721
S"'recent venus'"
p2746
sg730
S"'runaway greenhouse'"
p2747
sg739
F1.0
sg747
g748
sg756
F0.01
sg764
F0.3
sssg772
F0.56
sg780
F-1.0
sg796
S'2014AcA....64...11K;'
p2748
sg805
F0.726
sg813
F1.006
sg821
F-1.0
sg829
S'0022'
p2749
sg838
F-1.0
sg846
F-1.0
sg854
F-1.0
sg862
F0.015
sg870
F-1.0
sg878
g197
sg886
F-1.0
sg894
F0.764462809917356
sg902
g903
sg911
S'V54 M55 A'
p2750
sg920
F-1.0
sg928
F-1.0
sg936
S'K type'
p2751
sg945
F-1.0
sg956
F0.0938
sg964
F-1.0
sg975
F18.3
sg983
F6251.0
sg991
g2730
sg999
F-1.0
sg1007
F0.008
sg1015
F-1.0
sg1023
F-1.0
sg1031
F-1.0
sg1039
F-1.0
sg1047
F0.133
sg1055
F-1.0
sg1063
F-1.0
sg1071
F-1.0
sg1082
F-1.0
sg1090
g3
(g783
S'\x83\xc9\x05\x13\xd2\xd2\xb7@'
p2752
tp2753
Rp2754
sg1098
F-1.0
ssS'BHMCatS0027P'
p2755
(dp2756
g12
F-1.0
sg20
S'LSPM J1112+7626 B'
p2757
sg29
F4.861
sg37
S'LSPM J1112+7626'
p2758
sg46
I27
sg54
F2952.0
sg62
F0.014
sg70
F-1.0
sg78
F0.005
sg86
F0.3
sg94
F-1.0
sg102
F0.275
sg110
F41.032336
sg118
F-1.0
sg126
F76.449
sg134
g135
sg143
F-1.0
sg151
F0.005
sg159
S'M4V'
p2759
sg161
(lp2760
g163
asg347
F-1.0
sg355
S'EkCat'
p2761
sg364
F4.929
sg372
F89.71
sg380
S'113'
p2762
sg382
(dp2763
g384
(dp2764
g393
F10.0
sg401
F1.0
sg409
F0.0
sg417
F0.0
sg425
F1.0
sg433
F0.0
sg441
S"'early mars'"
p2765
sg450
F6.0
sg458
F0.0
sg466
F1.000001
sg474
F0.01
sg482
F1.0
sg490
F0.0
sg498
F0.8
sg506
F10.0
sg514
F1.000001
sg522
F10.0
sg530
F1.5
sg538
F44.0
sg546
F0.0
sg554
F1.0
sg562
F10.0
sg570
S"'maximum greenhouse'"
p2766
sg579
F0.3
sg587
F5e+40
sg595
F0.01
sg603
F1.5
sg611
F2.0
sg619
F3.0
sg627
S'BCA98'
p2767
sg636
S'BCA98'
p2768
sg645
F1.0
sg653
F1.0
sg661
F5e+40
sg669
g670
sg678
F0.1
sg686
S'BHMCatS0027P'
p2769
sg695
g696
sg704
F10.0
sg712
S'LSPM J1112+7626'
p2770
sg721
S"'recent venus'"
p2771
sg730
S"'runaway greenhouse'"
p2772
sg739
F1.0
sg747
g748
sg756
F0.01
sg764
F0.3
sssg772
F-1.0
sg780
F-1.0
sg796
S'2011ApJ...742..123I;'
p2773
sg805
F0.395
sg813
F0.381
sg821
F-1.0
sg829
S'0027'
p2774
sg838
F0.012
sg846
F-1.0
sg854
F11.211755555555555
sg862
F0.002
sg870
F5.0
sg878
g197
sg886
F163.0
sg894
F0.69620253164557
sg902
S'DEBCat'
p2775
sg911
S'LSPM J1112+7626 A'
p2776
sg920
F-1.0
sg928
F48.1
sg936
S'M type'
p2777
sg945
F-1.0
sg956
F0.203875532085561
sg964
F-1.0
sg975
F12.015
sg983
F3061.0
sg991
g2755
sg999
F-1.0
sg1007
F0.001
sg1015
F-1.0
sg1023
F-1.0
sg1031
F-1.0
sg1039
F-1.0
sg1047
F0.239
sg1055
F-1.0
sg1063
F-1.0
sg1071
F-1.0
sg1082
F-1.0
sg1090
F-1.0
sg1098
F162.0
ssS'PlanetFieldsText'
p2778
(dp2779
g171
g3
(g4
(S'S12'
p2780
I0
I1
tp2781
Rp2782
(I3
S'|'
p2783
NNNI12
I1
I0
tp2784
bS'Plan.Cat.Id.'
p2785
tp2786
Rp2787
sg180
g3
(g4
(S'S7'
p2788
I0
I1
tp2789
Rp2790
(I3
S'|'
p2791
NNNI7
I1
I0
tp2792
bS'M_p,err'
p2793
tp2794
Rp2795
sg188
g3
(g4
(S'S5'
p2796
I0
I1
tp2797
Rp2798
(I3
S'|'
p2799
NNNI5
I1
I0
tp2800
bS'e_orb'
p2801
tp2802
Rp2803
sg196
g3
(g4
(S'S11'
p2804
I0
I1
tp2805
Rp2806
(I3
S'|'
p2807
NNNI11
I1
I0
tp2808
bS'Sys.Cat.Id.'
p2809
tp2810
Rp2811
sg205
g3
(g4
(S'S9'
p2812
I0
I1
tp2813
Rp2814
(I3
S'|'
p2815
NNNI9
I1
I0
tp2816
bS'e_orb,err'
p2817
tp2818
Rp2819
sg213
g3
(g4
(S'S3'
p2820
I0
I1
tp2821
Rp2822
(I3
S'|'
p2823
NNNI3
I1
I0
tp2824
bS'No.'
p2825
tp2826
Rp2827
sg222
g3
(g4
(S'S8'
p2828
I0
I1
tp2829
Rp2830
(I3
S'|'
p2831
NNNI8
I1
I0
tp2832
bS'ADS Link'
p2833
tp2834
Rp2835
sg231
g3
(g4
(S'S10'
p2836
I0
I1
tp2837
Rp2838
(I3
S'|'
p2839
NNNI10
I1
I0
tp2840
bS'Planet Id.'
p2841
tp2842
Rp2843
sg240
g3
(g4
(S'S3'
p2844
I0
I1
tp2845
Rp2846
(I3
S'|'
p2847
NNNI3
I1
I0
tp2848
bS'No.'
p2849
tp2850
Rp2851
sg249
g3
(g4
(S'S3'
p2852
I0
I1
tp2853
Rp2854
(I3
S'|'
p2855
NNNI3
I1
I0
tp2856
bS'R_p'
p2857
tp2858
Rp2859
sg257
g3
(g4
(S'S9'
p2860
I0
I1
tp2861
Rp2862
(I3
S'|'
p2863
NNNI9
I1
I0
tp2864
bS'a_orb,err'
p2865
tp2866
Rp2867
sg265
g3
(g4
(S'S10'
p2868
I0
I1
tp2869
Rp2870
(I3
S'|'
p2871
NNNI10
I1
I0
tp2872
bS'System Id.'
p2873
tp2874
Rp2875
sg274
g3
(g4
(S'S3'
p2876
I0
I1
tp2877
Rp2878
(I3
S'|'
p2879
NNNI3
I1
I0
tp2880
bS'M_p'
p2881
tp2882
Rp2883
sg282
g3
(g4
(S'S10'
p2884
I0
I1
tp2885
Rp2886
(I3
S'|'
p2887
NNNI10
I1
I0
tp2888
bS'\\omega_orb'
p2889
tp2890
Rp2891
sg290
g3
(g4
(S'S5'
p2892
I0
I1
tp2893
Rp2894
(I3
S'|'
p2895
NNNI5
I1
I0
tp2896
bS'a_orb'
p2897
tp2898
Rp2899
sg298
g3
(g4
(S'S9'
p2900
I0
I1
tp2901
Rp2902
(I3
S'|'
p2903
NNNI9
I1
I0
tp2904
bS'P_orb,err'
p2905
tp2906
Rp2907
sg306
g3
(g4
(S'S14'
p2908
I0
I1
tp2909
Rp2910
(I3
S'|'
p2911
NNNI14
I1
I0
tp2912
bS'\\omega_orb,err'
p2913
tp2914
Rp2915
sg314
g3
(g4
(S'S5'
p2916
I0
I1
tp2917
Rp2918
(I3
S'|'
p2919
NNNI5
I1
I0
tp2920
bS'M_orb'
p2921
tp2922
Rp2923
sg322
g3
(g4
(S'S5'
p2924
I0
I1
tp2925
Rp2926
(I3
S'|'
p2927
NNNI5
I1
I0
tp2928
bS'P_orb'
p2929
tp2930
Rp2931
sg330
g3
(g4
(S'S4'
p2932
I0
I1
tp2933
Rp2934
(I3
S'|'
p2935
NNNI4
I1
I0
tp2936
bS'Type'
p2937
tp2938
Rp2939
sg339
g3
(g4
(S'S7'
p2940
I0
I1
tp2941
Rp2942
(I3
S'|'
p2943
NNNI7
I1
I0
tp2944
bS'R_p,err'
p2945
tp2946
Rp2947
ssS'BHMCatS0021P'
p2948
(dp2949
g12
F-1.0
sg20
S'KX Cnc B'
p2950
sg29
F-1.0
sg37
S'KX Cnc'
p2951
sg46
I21
sg54
F5847.0
sg62
F-1.0
sg70
F-1.0
sg78
F0.002
sg86
F1.049
sg94
F-1.0
sg102
F1.131
sg110
F31.22
sg118
F-1.0
sg126
F31.86138888888889
sg134
g135
sg143
F-1.0
sg151
F0.002
sg159
S'G0V'
p2952
sg161
(lp2953
g163
asg347
F-1.0
sg355
S'DEBCat'
p2954
sg364
F-1.0
sg372
F-1.0
sg380
S'39'
p2955
sg382
(dp2956
g384
(dp2957
g393
F10.0
sg401
F1.0
sg409
F0.0
sg417
F0.0
sg425
F1.0
sg433
F0.0
sg441
S"'early mars'"
p2958
sg450
F6.0
sg458
F0.0
sg466
F1.000001
sg474
F0.01
sg482
F1.0
sg490
F0.0
sg498
F0.8
sg506
F10.0
sg514
F1.000001
sg522
F10.0
sg530
F1.5
sg538
F44.0
sg546
F0.0
sg554
F1.0
sg562
F10.0
sg570
S"'maximum greenhouse'"
p2959
sg579
F0.3
sg587
F5e+40
sg595
F0.01
sg603
F1.5
sg611
F2.0
sg619
F3.0
sg627
S'BCA98'
p2960
sg636
S'BCA98'
p2961
sg645
F1.0
sg653
F1.0
sg661
F5e+40
sg669
g670
sg678
F0.1
sg686
S'BHMCatS0021P'
p2962
sg695
g696
sg704
F10.0
sg712
S'KX Cnc'
p2963
sg721
S"'recent venus'"
p2964
sg730
S"'runaway greenhouse'"
p2965
sg739
F1.0
sg747
g748
sg756
F0.01
sg764
F0.3
sssg772
F0.56
sg780
F-1.0
sg796
S'2006PZP.....6...14D;'
p2966
sg805
F1.138
sg813
F1.064
sg821
F-1.0
sg829
S'0021'
p2967
sg838
F-1.0
sg846
F-1.0
sg854
F8.71275
sg862
F0.003
sg870
F-1.0
sg878
g197
sg886
F-1.0
sg894
F0.993848857644991
sg902
g903
sg911
S'KX Cnc A'
p2968
sg920
F-1.0
sg928
F-1.0
sg936
S'G0V'
p2969
sg945
F-1.0
sg956
F0.2553
sg964
F-1.0
sg975
F7.19
sg983
F5902.0
sg991
g2948
sg999
F-1.0
sg1007
F0.003
sg1015
F-1.0
sg1023
F-1.0
sg1031
F-1.0
sg1039
F-1.0
sg1047
F0.4666
sg1055
F-1.0
sg1063
F-1.0
sg1071
F-1.0
sg1082
F-1.0
sg1090
g3
(g783
S'\x91\xac\xf7z\xc5DF@'
p2970
tp2971
Rp2972
sg1098
F-1.0
ssS'BHMCatS0047P'
p2973
(dp2974
g12
F-1.0
sg20
S'EW Ori B'
p2975
sg29
F4.372
sg37
S'EW Ori'
p2976
sg46
I47
sg54
F5900.0
sg62
F0.005
sg70
F-1.0
sg78
F0.005
sg86
F1.097
sg94
F-1.0
sg102
F1.123
sg110
F6.93684324
sg118
F-1.0
sg126
F2.044436111111111
sg134
g135
sg143
F0.6
sg151
F0.005
sg159
S'G0V'
p2977
sg161
(lp2978
g163
asg347
F-1.0
sg355
S'EkCat'
p2979
sg364
F4.408
sg372
F89.86
sg380
S'49'
p2980
sg382
(dp2981
g384
(dp2982
g393
F10.0
sg401
F1.0
sg409
F0.0
sg417
F0.0
sg425
F1.0
sg433
F0.0
sg441
S"'early mars'"
p2983
sg450
F6.0
sg458
F0.0
sg466
F1.000001
sg474
F0.01
sg482
F1.0
sg490
F0.0
sg498
F0.8
sg506
F10.0
sg514
F1.000001
sg522
F10.0
sg530
F1.5
sg538
F44.0
sg546
F0.0
sg554
F1.0
sg562
F10.0
sg570
S"'maximum greenhouse'"
p2984
sg579
F0.3
sg587
F5e+40
sg595
F0.01
sg603
F1.5
sg611
F2.0
sg619
F3.0
sg627
S'BCA98'
p2985
sg636
S'BCA98'
p2986
sg645
F1.0
sg653
F1.0
sg661
F5e+40
sg669
g670
sg678
F0.1
sg686
S'BHMCatS0047P'
p2987
sg695
g696
sg704
F10.0
sg712
S'EW Ori'
p2988
sg721
S"'recent venus'"
p2989
sg730
S"'runaway greenhouse'"
p2990
sg739
F1.0
sg747
g748
sg756
F0.01
sg764
F0.3
sssg772
F-1.0
sg780
g3
(g783
S'\x8b\x8aRZpA\x1a@'
p2991
tp2992
Rp2993
sg796
S'2010A&A...511A..22C;'
p2994
sg805
F1.173
sg813
F1.168
sg821
F-1.0
sg829
S'0047'
p2995
sg838
F0.005
sg846
F-1.0
sg854
F5.335875
sg862
F0.011
sg870
F7.0
sg878
g197
sg886
F95.0
sg894
F0.957374254049446
sg902
g903
sg911
S'EW Ori A'
p2996
sg920
F-1.0
sg928
F175.0
sg936
S'G5V'
p2997
sg945
g3
(g783
S'\x83^\x7f\x88E\x83\xdb?'
p2998
tp2999
Rp3000
sg956
F0.0939316949197861
sg964
g3
(g783
S'N\xc1t\x12U8\x19@'
p3001
tp3002
Rp3003
sg975
F9.795
sg983
F6070.0
sg991
g2973
sg999
F-1.0
sg1007
F0.009
sg1015
F0.7
sg1023
F-1.0
sg1031
F-1.0
sg1039
F-1.0
sg1047
F0.076
sg1055
F9.0
sg1063
F-1.0
sg1071
g3
(g783
S'4V\xd8\x87:V\xe0?'
p3004
tp3005
Rp3006
sg1082
F8.8
sg1090
F-1.0
sg1098
F95.0
ssS'BHMCatS0020V'
p3007
(dp3008
g12
F0.0
sg20
S'NICHE-012 B'
p3009
sg29
F-2.0
sg37
S'NICHE-012'
p3010
sg46
I20
sg54
F-2.0
sg62
F-2.0
sg70
F-2.0
sg78
F0.0
sg86
F-2.0
sg94
F-2.0
sg102
F0.55
sg110
F30.0
sg118
g3
(g783
S'0\xa8\x1bgj\x94\x8f?'
p3011
tp3012
Rp3013
sg126
F-2.0
sg134
g1411
sg143
F-2.0
sg151
F0.0
sg159
g197
sg161
(lp3014
g163
asg347
F-1.0
sg355
S'NICHE'
p3015
sg364
F-2.0
sg372
F-2.0
sg380
S'12'
p3016
sg382
(dp3017
g384
(dp3018
g393
F10.0
sg401
F1.0
sg409
F0.0
sg417
F0.0
sg425
F1.0
sg433
F0.0
sg441
S"'early mars'"
p3019
sg450
F6.0
sg458
F0.0
sg466
F1.000001
sg474
F0.01
sg482
F1.0
sg490
F0.0
sg498
F0.8
sg506
F10.0
sg514
F1.000001
sg522
F10.0
sg530
F1.5
sg538
F44.0
sg546
F0.0
sg554
F1.0
sg562
F10.0
sg570
S"'maximum greenhouse'"
p3020
sg579
F0.3
sg587
F5e+40
sg595
F0.01
sg603
F1.5
sg611
F2.0
sg619
F3.0
sg627
S'BCA98'
p3021
sg636
S'BCA98'
p3022
sg645
F1.0
sg653
F1.0
sg661
F5e+40
sg669
g670
sg678
F0.1
sg686
S'BHMCatS0020V'
p3023
sg695
g696
sg704
F10.0
sg712
S'NICHE-012'
p3024
sg721
S"'recent venus'"
p3025
sg730
S"'runaway greenhouse'"
p3026
sg739
F1.0
sg747
g748
sg756
F0.01
sg764
F0.3
sssg772
F-2.0
sg780
F-1.0
sg796
g197
sg805
F0.7
sg813
F-2.0
sg821
F-2.0
sg829
S'0020'
p3027
sg838
F-2.0
sg846
F-2.0
sg854
F-2.0
sg862
F0.0
sg870
F-1.0
sg878
g197
sg886
F-2.0
sg894
F0.785714285714286
sg902
g903
sg911
S'NICHE-012 A'
p3028
sg920
F-2.0
sg928
F-1.0
sg936
g197
sg945
F-1.0
sg956
F0.203543556080572
sg964
F-1.0
sg975
F-2.0
sg983
F-2.0
sg991
g3007
sg999
F-2.0
sg1007
F0.0
sg1015
F-2.0
sg1023
F-1.0
sg1031
F-1.0
sg1039
F-2.0
sg1047
F0.3
sg1055
F-2.0
sg1063
F-1.0
sg1071
F-1.0
sg1082
F-2.0
sg1090
F-1.0
sg1098
F-2.0
ssS'BHMCatS0034P'
p3029
(dp3030
g12
F-1.0
sg20
S'V568 Lyr  B'
p3031
sg29
F4.178
sg37
S'V568 Lyr'
p3032
sg46
I34
sg54
F4900.0
sg62
F0.008
sg70
F-1.0
sg78
F0.016
sg86
F0.768
sg94
F-1.0
sg102
F0.827
sg110
F14.469918
sg118
F-1.0
sg126
F37.75963888888889
sg134
g135
sg143
F-1.0
sg151
F0.006
sg159
S'G type'
p3033
sg161
(lp3034
g163
asg347
F-1.0
sg355
S'EkCat'
p3035
sg364
F4.586
sg372
F89.76
sg380
S'188'
p3036
sg382
(dp3037
g384
(dp3038
g393
F10.0
sg401
F1.0
sg409
F0.0
sg417
F0.0
sg425
F1.0
sg433
F0.0
sg441
S"'early mars'"
p3039
sg450
F6.0
sg458
F0.0
sg466
F1.000001
sg474
F0.01
sg482
F1.0
sg490
F0.0
sg498
F0.8
sg506
F10.0
sg514
F1.000001
sg522
F10.0
sg530
F1.5
sg538
F44.0
sg546
F0.0
sg554
F1.0
sg562
F10.0
sg570
S"'maximum greenhouse'"
p3040
sg579
F0.3
sg587
F5e+40
sg595
F0.01
sg603
F1.5
sg611
F2.0
sg619
F3.0
sg627
S'BCA98'
p3041
sg636
S'BCA98'
p3042
sg645
F1.0
sg653
F1.0
sg661
F5e+40
sg669
g670
sg678
F0.1
sg686
S'BHMCatS0034P'
p3043
sg695
g696
sg704
F10.0
sg712
S'V568 Lyr'
p3044
sg721
S"'recent venus'"
p3045
sg730
S"'runaway greenhouse'"
p3046
sg739
F1.0
sg747
g748
sg756
F0.01
sg764
F0.3
sssg772
F-1.0
sg780
F-1.0
sg796
S'2008A&A...492..171G;'
p3047
sg805
F1.074
sg813
F1.399
sg821
F-1.0
sg829
S'0034'
p3048
sg838
F0.01
sg846
F-1.0
sg854
F19.348416666666665
sg862
F0.008
sg870
F187.0
sg878
g197
sg886
F100.0
sg894
F0.770018621973929
sg902
S'DEBCat'
p3049
sg911
S'V568 Lyr  A'
p3050
sg920
F-1.0
sg928
F3972.0
sg936
S'K type'
p3051
sg945
F-1.0
sg956
F0.14406273328877
sg964
F-1.0
sg975
F16.91
sg983
F5665.0
sg991
g3029
sg999
F-1.0
sg1007
F0.004
sg1015
F-1.0
sg1023
F-1.0
sg1031
F-1.0
sg1039
F-1.0
sg1047
F0.0
sg1055
F-1.0
sg1063
F-1.0
sg1071
F-1.0
sg1082
F-1.0
sg1090
F-1.0
sg1098
F100.0
ssS'BHMCatS0004D'
p3052
(dp3053
g12
F-0.11
sg20
S'Kepler-38 B'
p3054
sg29
F4.47
sg37
S'Kepler-38'
p3055
sg46
I4
sg54
F3325.0
sg62
F-1.0
sg70
F-1.0
sg78
F0.003
sg86
F0.272
sg94
F13.0
sg102
F0.249
sg110
F18.795
sg118
g3
(g783
S'\xf0\xd5|I\xa8\xd3\x88?'
p3056
tp3057
Rp3058
sg126
F42.279205555555556
sg134
g1278
sg143
F-1.0
sg151
F0.005
sg159
S'G type'
p3059
sg161
(lp3060
(dp3061
g171
S'BHMCatP0004'
p3062
sg180
F0.0
sg188
F0.032
sg196
S'BHMCatS004D'
p3063
sg205
F-1.0
sg213
S'4'
p3064
sg222
S'2012Sci...337.1511O'
p3065
sg231
S'Kepler-38b'
p3066
sg240
S'0004'
p3067
sg249
F4.3763741955736934
sg257
F0.0082
sg265
S'Kepler-38'
p3068
sg274
F120.82984494826027
sg282
F-1.0
sg290
F0.4644
sg298
F0.038
sg306
F0.0
sg314
F1.198
sg322
F105.595
sg330
g1288
sg339
F0.11221472296342803
sasg347
F268.68
sg355
S'KIC'
p3069
sg364
F4.964
sg372
F89.412
sg380
S'6762829'
p3070
sg382
(dp3071
S'BHMCatP0004'
p3072
(dp3073
g393
F10.0
sg401
F1.0
sg409
F0.0
sg417
F0.0
sg425
F10.0
sg433
F-0.11
sg441
S"'early mars'"
p3074
sg450
F6.0
sg458
F0.0
sg466
F4.37637419557369
sg474
F0.01
sg482
F1.0
sg490
F-0.11
sg498
F0.8
sg506
F10.0
sg514
F120.82984494826
sg522
F10.0
sg530
F1.5
sg538
F44.0
sg546
F0.0
sg554
F1.0
sg562
F10.0
sg570
S"'maximum greenhouse'"
p3075
sg579
F0.3
sg587
F5e+40
sg595
F0.01
sg603
F1.5
sg611
F2.0
sg619
F3.0
sg627
S'BCA98'
p3076
sg636
S'BCA98'
p3077
sg645
F1.0
sg653
F10.0
sg661
F5e+40
sg669
S'BHMCatP0004'
p3078
sg678
F0.1
sg686
S'BHMCatS0004D'
p3079
sg695
S'Kepler-38b'
p3080
sg704
F10.0
sg712
S'Kepler-38'
p3081
sg721
S"'recent venus'"
p3082
sg730
S"'runaway greenhouse'"
p3083
sg739
F10.0
sg747
S"'Earth'"
p3084
sg756
F0.01
sg764
F0.3
sssg772
F0.096
sg780
g3
(g783
S'\xc3W\x8b\x85C\x83B@'
p3085
tp3086
Rp3087
sg796
S'2012ApJ...758...87O;'
p3088
sg805
F0.949
sg813
F1.757
sg821
F-1.0
sg829
S'0004'
p3089
sg838
F0.011
sg846
F-1.0
sg854
F19.122025
sg862
F0.055
sg870
F-1.0
sg878
S'BHMCatP0004;'
p3090
sg886
F-1.0
sg894
F0.262381454162276
sg902
g903
sg911
S'Kepler-38 A'
p3091
sg920
F-1.0
sg928
F-1.0
sg936
S'M type'
p3092
sg945
F-1.0
sg956
F0.1469
sg964
F-1.0
sg975
F13.941
sg983
F5623.0
sg991
g3052
sg999
F-1.0
sg1007
F0.007
sg1015
F0.5
sg1023
F-1.0
sg1031
F-0.158
sg1039
F7.0
sg1047
F0.1032
sg1055
F2.4
sg1063
g3
(g783
S'\x95\x00#\x0cUZ\x86?'
p3093
tp3094
Rp3095
sg1071
g3
(g783
S'\x9b\xe7\x92\xde\xc5\xda\x1e@'
p3096
tp3097
Rp3098
sg1082
F-1.0
sg1090
g3
(g783
S'\x84pS\xf9Vl\x90@'
p3099
tp3100
Rp3101
sg1098
F50.0
ssS'BHMCatS0023P'
p3102
(dp3103
g12
F-1.0
sg20
S'V66 M4 B'
p3104
sg29
F-1.0
sg37
S'V66 M4'
p3105
sg46
I23
sg54
F5943.0
sg62
F-1.0
sg70
F-1.0
sg78
F0.005
sg86
F0.83
sg94
F-1.0
sg102
F0.744
sg110
F8.111
sg118
F-1.0
sg126
F-25.471861111111114
sg134
g135
sg143
F-1.0
sg151
F0.005
sg159
S'G type'
p3106
sg161
(lp3107
g163
asg347
F-1.0
sg355
S'DEBCat'
p3108
sg364
F-1.0
sg372
F-1.0
sg380
S'28'
p3109
sg382
(dp3110
g384
(dp3111
g393
F10.0
sg401
F1.0
sg409
F0.0
sg417
F0.0
sg425
F1.0
sg433
F0.0
sg441
S"'early mars'"
p3112
sg450
F6.0
sg458
F0.0
sg466
F1.000001
sg474
F0.01
sg482
F1.0
sg490
F0.0
sg498
F0.8
sg506
F10.0
sg514
F1.000001
sg522
F10.0
sg530
F1.5
sg538
F44.0
sg546
F0.0
sg554
F1.0
sg562
F10.0
sg570
S"'maximum greenhouse'"
p3113
sg579
F0.3
sg587
F5e+40
sg595
F0.01
sg603
F1.5
sg611
F2.0
sg619
F3.0
sg627
S'BCA98'
p3114
sg636
S'BCA98'
p3115
sg645
F1.0
sg653
F1.0
sg661
F5e+40
sg669
g670
sg678
F0.1
sg686
S'BHMCatS0023P'
p3116
sg695
g696
sg704
F10.0
sg712
S'V66 M4'
p3117
sg721
S"'recent venus'"
p3118
sg730
S"'runaway greenhouse'"
p3119
sg739
F1.0
sg747
g748
sg756
F0.01
sg764
F0.3
sssg772
F0.88
sg780
F-1.0
sg796
S'2013AJ....145...43K;'
p3120
sg805
F0.784
sg813
F0.935
sg821
F-1.0
sg829
S'0023'
p3121
sg838
F-1.0
sg846
F-1.0
sg854
F16.392286111111112
sg862
F0.005
sg870
F-1.0
sg878
g197
sg886
F-1.0
sg894
F0.948979591836735
sg902
g903
sg911
S'V66 M4 A'
p3122
sg920
F-1.0
sg928
F-1.0
sg936
S'G type'
p3123
sg945
F-1.0
sg956
F0.091
sg964
F-1.0
sg975
F16.84
sg983
F6165.0
sg991
g3102
sg999
F-1.0
sg1007
F0.004
sg1015
F-1.0
sg1023
F-1.0
sg1031
F-1.0
sg1039
F-1.0
sg1047
F0.0
sg1055
F-1.0
sg1063
F-1.0
sg1071
F-1.0
sg1082
F-1.0
sg1090
g3
(g783
S'\xae\x1a\xc5y#\xe2\xaa@'
p3124
tp3125
Rp3126
sg1098
F-1.0
ssS'BHMCatS0043P'
p3127
(dp3128
g12
F-1.0
sg20
S'M4-V66 B'
p3129
sg29
F4.388
sg37
S'M4-V66'
p3130
sg46
I43
sg54
F5938.0
sg62
F0.085
sg70
F-1.0
sg78
F0.005
sg86
F0.83
sg94
F-1.0
sg102
F0.744
sg110
F8.11130346
sg118
F-1.0
sg126
F-25.471861111111114
sg134
g135
sg143
F-1.0
sg151
F0.005
sg159
S'F type'
p3131
sg161
(lp3132
g163
asg347
F-1.0
sg355
S'EkCat'
p3133
sg364
F4.469
sg372
F89.44
sg380
S'140'
p3134
sg382
(dp3135
g384
(dp3136
g393
F10.0
sg401
F1.0
sg409
F0.0
sg417
F0.0
sg425
F1.0
sg433
F0.0
sg441
S"'early mars'"
p3137
sg450
F6.0
sg458
F0.0
sg466
F1.000001
sg474
F0.01
sg482
F1.0
sg490
F0.0
sg498
F0.8
sg506
F10.0
sg514
F1.000001
sg522
F10.0
sg530
F1.5
sg538
F44.0
sg546
F0.0
sg554
F1.0
sg562
F10.0
sg570
S"'maximum greenhouse'"
p3138
sg579
F0.3
sg587
F5e+40
sg595
F0.01
sg603
F1.5
sg611
F2.0
sg619
F3.0
sg627
S'BCA98'
p3139
sg636
S'BCA98'
p3140
sg645
F1.0
sg653
F1.0
sg661
F5e+40
sg669
g670
sg678
F0.1
sg686
S'BHMCatS0043P'
p3141
sg695
g696
sg704
F10.0
sg712
S'M4-V66'
p3142
sg721
S"'recent venus'"
p3143
sg730
S"'runaway greenhouse'"
p3144
sg739
F1.0
sg747
g748
sg756
F0.01
sg764
F0.3
sssg772
F-1.0
sg780
F-1.0
sg796
S'2013AJ....145...43K;'
p3145
sg805
F0.784
sg813
F0.934
sg821
F-1.0
sg829
S'0043'
p3146
sg838
F0.077
sg846
F-1.0
sg854
F16.392286111111112
sg862
F0.004
sg870
F30.0
sg878
g197
sg886
F105.0
sg894
F0.948979591836735
sg902
g903
sg911
S'M4-V66 A'
p3147
sg920
F-1.0
sg928
F1850.0
sg936
S'G type'
p3148
sg945
F-1.0
sg956
F0.0910457855614973
sg964
F-1.0
sg975
F16.84
sg983
F6162.0
sg991
g3127
sg999
F-1.0
sg1007
F0.004
sg1015
F-1.0
sg1023
F-1.0
sg1031
F-1.0
sg1039
F-1.0
sg1047
F0.0
sg1055
F-1.0
sg1063
F-1.0
sg1071
F-1.0
sg1082
F-1.0
sg1090
F-1.0
sg1098
F98.0
ssS'BHMCatS0006D'
p3149
(dp3150
g12
F-0.15
sg20
S'Kepler-64 B'
p3151
sg29
F4.658
sg37
S'Kepler-64'
p3152
sg46
I6
sg54
F3561.0
sg62
F-1.0
sg70
F-1.0
sg78
F0.044
sg86
F0.408
sg94
F2.0
sg102
F0.378
sg110
F20.0
sg118
g3
(g783
S'\x1f\xe4\x96\xebQ\xbf\x86?'
p3153
tp3154
Rp3155
sg126
F39.9551
sg134
g1278
sg143
F-1.0
sg151
F0.024
sg159
S'F type'
p3156
sg161
(lp3157
(dp3158
g171
S'BHMCatP0007'
p3159
sg180
F82.67305180670441
sg188
F0.0539
sg196
S'BHMCatS006D'
p3160
sg205
F0.0081
sg213
g2007
sg222
S'2013ApJ...768..127S;2013ApJ...770...52K'
p3161
sg231
S'Kepler-64b'
p3162
sg240
S'0007'
p3163
sg249
F6.20547417987757
sg257
F0.011
sg265
S'Kepler-64'
p3164
sg274
F168.52583637520513
sg282
F-1.0
sg290
F0.634
sg298
F0.1
sg306
F0.0
sg314
F1.906
sg322
F138.506
sg330
g1288
sg339
F0.16832208444514205
sasg347
F218.56
sg355
S'KIC'
p3165
sg364
F-1.0
sg372
F87.36
sg380
S'4862625'
p3166
sg382
(dp3167
S'BHMCatP0007'
p3168
(dp3169
g393
F10.0
sg401
F1.0
sg409
F0.0
sg417
F0.0
sg425
F1.5
sg433
F-0.15
sg441
S"'early mars'"
p3170
sg450
F6.0
sg458
F0.0
sg466
F6.20547417987757
sg474
F0.01
sg482
F1.0
sg490
F-0.15
sg498
F0.8
sg506
F10.0
sg514
F168.525836375205
sg522
F10.0
sg530
F1.5
sg538
F44.0
sg546
F0.0
sg554
F1.0
sg562
F10.0
sg570
S"'maximum greenhouse'"
p3171
sg579
F0.3
sg587
F5e+40
sg595
F0.01
sg603
F1.5
sg611
F2.0
sg619
F3.0
sg627
S'BCA98'
p3172
sg636
S'BCA98'
p3173
sg645
F1.0
sg653
F1.5
sg661
F5e+40
sg669
S'BHMCatP0007'
p3174
sg678
F0.1
sg686
S'BHMCatS0006D'
p3175
sg695
S'Kepler-64b'
p3176
sg704
F10.0
sg712
S'Kepler-64'
p3177
sg721
S"'recent venus'"
p3178
sg730
S"'runaway greenhouse'"
p3179
sg739
F1.5
sg747
S"'Earth'"
p3180
sg756
F0.01
sg764
F0.3
sssg772
F0.107
sg780
g3
(g783
S'\x94\x0b\xed\xa8\xcf\x7f\x05@'
p3181
tp3182
Rp3183
sg796
S'2013ApJ...768..127S; 2013ApJ...770...52K;'
p3184
sg805
F1.528
sg813
F1.734
sg821
F-1.0
sg829
S'0006'
p3185
sg838
F-1.0
sg846
F-1.0
sg854
F19.881006666666668
sg862
F0.087
sg870
F-1.0
sg878
S'BHMCatP0007;'
p3186
sg886
F150.0
sg894
F0.24738219895288
sg902
g903
sg911
S'Kepler-64 A'
p3187
sg920
F-1.0
sg928
F-1.0
sg936
S'M type'
p3188
sg945
F-1.0
sg956
F0.1744
sg964
F-1.0
sg975
F13.718
sg983
F6407.0
sg991
g3149
sg999
F-1.0
sg1007
F0.023
sg1015
F2.0
sg1023
F-1.0
sg1031
F-0.217
sg1039
F1.0
sg1047
F0.2117
sg1055
F32.6
sg1063
g3
(g783
S'h3|\x07\xbb\xa5\x83?'
p3189
tp3190
Rp3191
sg1071
g3
(g783
S'n\x92\xae\x97\x83\x1a\xc5?'
p3192
tp3193
Rp3194
sg1082
F-1.0
sg1090
g3
(g783
S'\xca\x19\xa8%\xd0\xfe\x93@'
p3195
tp3196
Rp3197
sg1098
F150.0
ssS'BHMCatS0010V'
p3198
(dp3199
g12
F0.0
sg20
S'NICHE-002 B'
p3200
sg29
F-2.0
sg37
S'NICHE-002'
p3201
sg46
I10
sg54
F-2.0
sg62
F-2.0
sg70
F-2.0
sg78
F0.0
sg86
F-2.0
sg94
F-2.0
sg102
F0.85
sg110
F20.0
sg118
g3
(g783
S'0\xa8\x1bgj\x94\x8f?'
p3202
tp3203
Rp3204
sg126
F-2.0
sg134
g1411
sg143
F-2.0
sg151
F0.0
sg159
g197
sg161
(lp3205
g163
asg347
F-1.0
sg355
S'NICHE'
p3206
sg364
F-2.0
sg372
F-2.0
sg380
S'2'
p3207
sg382
(dp3208
g384
(dp3209
g393
F10.0
sg401
F1.0
sg409
F0.0
sg417
F0.0
sg425
F1.0
sg433
F0.0
sg441
S"'early mars'"
p3210
sg450
F6.0
sg458
F0.0
sg466
F1.000001
sg474
F0.01
sg482
F1.0
sg490
F0.0
sg498
F0.8
sg506
F10.0
sg514
F1.000001
sg522
F10.0
sg530
F1.5
sg538
F44.0
sg546
F0.0
sg554
F1.0
sg562
F10.0
sg570
S"'maximum greenhouse'"
p3211
sg579
F0.3
sg587
F5e+40
sg595
F0.01
sg603
F1.5
sg611
F2.0
sg619
F3.0
sg627
S'BCA98'
p3212
sg636
S'BCA98'
p3213
sg645
F1.0
sg653
F1.0
sg661
F5e+40
sg669
g670
sg678
F0.1
sg686
S'BHMCatS0010V'
p3214
sg695
g696
sg704
F10.0
sg712
S'NICHE-002'
p3215
sg721
S"'recent venus'"
p3216
sg730
S"'runaway greenhouse'"
p3217
sg739
F1.0
sg747
g748
sg756
F0.01
sg764
F0.3
sssg772
F-2.0
sg780
F-1.0
sg796
g197
sg805
F1.0
sg813
F-2.0
sg821
F-2.0
sg829
S'0010'
p3218
sg838
F-2.0
sg846
F-2.0
sg854
F-2.0
sg862
F0.0
sg870
F-1.0
sg878
g197
sg886
F-2.0
sg894
F0.85
sg902
g903
sg911
S'NICHE-002 A'
p3219
sg920
F-2.0
sg928
F-1.0
sg936
g197
sg945
F-1.0
sg956
F0.177017861626706
sg964
F-1.0
sg975
F-2.0
sg983
F-2.0
sg991
g3198
sg999
F-2.0
sg1007
F0.0
sg1015
F-2.0
sg1023
F-1.0
sg1031
F-1.0
sg1039
F-2.0
sg1047
F0.5
sg1055
F-2.0
sg1063
F-1.0
sg1071
F-1.0
sg1082
F-2.0
sg1090
F-1.0
sg1098
F-2.0
ssS'BHMCatS0044P'
p3220
(dp3221
g12
F-1.0
sg20
S'CD-80 28 B'
p3222
sg29
F3.57835330017799
sg37
S'CD-80 28'
p3223
sg46
I44
sg54
F-1.0
sg62
F0.1
sg70
F-1.0
sg78
F0.33
sg86
F4.06
sg94
F-1.0
sg102
F1.384
sg110
F8.069406
sg118
F-1.0
sg126
F-79.93870555555556
sg134
g135
sg143
F-1.0
sg151
F0.41
sg159
S'K2'
p3224
sg161
(lp3225
g163
asg347
F-1.0
sg355
S'EkCat'
p3226
sg364
F3.36193240197991
sg372
F80.4
sg380
g2007
sg382
(dp3227
g384
(dp3228
g393
F10.0
sg401
F1.0
sg409
F0.0
sg417
F0.0
sg425
F1.0
sg433
F0.0
sg441
S"'early mars'"
p3229
sg450
F6.0
sg458
F0.0
sg466
F1.000001
sg474
F0.01
sg482
F1.0
sg490
F0.0
sg498
F0.8
sg506
F10.0
sg514
F1.000001
sg522
F10.0
sg530
F1.5
sg538
F44.0
sg546
F0.0
sg554
F1.0
sg562
F10.0
sg570
S"'maximum greenhouse'"
p3230
sg579
F0.3
sg587
F5e+40
sg595
F0.01
sg603
F1.5
sg611
F2.0
sg619
F3.0
sg627
S'BCA98'
p3231
sg636
S'BCA98'
p3232
sg645
F1.0
sg653
F1.0
sg661
F5e+40
sg669
g670
sg678
F0.1
sg686
S'BHMCatS0044P'
p3233
sg695
g696
sg704
F10.0
sg712
S'CD-80 28'
p3234
sg721
S"'recent venus'"
p3235
sg730
S"'runaway greenhouse'"
p3236
sg739
F1.0
sg747
g748
sg756
F0.01
sg764
F0.3
sssg772
F-1.0
sg780
F-1.0
sg796
S'2008AN....329..835B;'
p3237
sg805
F1.38
sg813
F3.16
sg821
F-1.0
sg829
S'0044'
p3238
sg838
F0.104
sg846
F-1.0
sg854
F1.0939444444444444
sg862
F0.055
sg870
F7.0
sg878
g197
sg886
F-1.0
sg894
F1.00289855072464
sg902
g903
sg911
S'CD-80 28 A'
p3239
sg920
F-1.0
sg928
F71.0
sg936
g197
sg945
F-1.0
sg956
F0.108919804812834
sg964
F-1.0
sg975
F10.177
sg983
F-1.0
sg991
g3220
sg999
F-1.0
sg1007
F0.055
sg1015
F-1.0
sg1023
F-1.0
sg1031
F-1.0
sg1039
F-1.0
sg1047
F0.0
sg1055
F-1.0
sg1063
F-1.0
sg1071
F-1.0
sg1082
F-1.0
sg1090
F-1.0
sg1098
F-1.0
ssS'BHMCatS0051P'
p3240
(dp3241
g12
F-1.0
sg20
S'BD-02 873 B'
p3242
sg29
F4.14665265525305
sg37
S'BD-02 873'
p3243
sg46
I51
sg54
F-1.0
sg62
F0.196
sg70
F-1.0
sg78
F0.29
sg86
F1.43
sg94
F-1.0
sg102
F1.179
sg110
F6.47649
sg118
F-1.0
sg126
F-0.26017500000000005
sg134
g135
sg143
F-1.0
sg151
F0.26
sg159
S'G3.5'
p3244
sg161
(lp3245
g163
asg347
F-1.0
sg355
S'EkCat'
p3246
sg364
F4.19869010917852
sg372
F88.5
sg380
S'40'
p3247
sg382
(dp3248
g384
(dp3249
g393
F10.0
sg401
F1.0
sg409
F0.0
sg417
F0.0
sg425
F1.0
sg433
F0.0
sg441
S"'early mars'"
p3250
sg450
F6.0
sg458
F0.0
sg466
F1.000001
sg474
F0.01
sg482
F1.0
sg490
F0.0
sg498
F0.8
sg506
F10.0
sg514
F1.000001
sg522
F10.0
sg530
F1.5
sg538
F44.0
sg546
F0.0
sg554
F1.0
sg562
F10.0
sg570
S"'maximum greenhouse'"
p3251
sg579
F0.3
sg587
F5e+40
sg595
F0.01
sg603
F1.5
sg611
F2.0
sg619
F3.0
sg627
S'BCA98'
p3252
sg636
S'BCA98'
p3253
sg645
F1.0
sg653
F1.0
sg661
F5e+40
sg669
g670
sg678
F0.1
sg686
S'BHMCatS0051P'
p3254
sg695
g696
sg704
F10.0
sg712
S'BD-02 873'
p3255
sg721
S"'recent venus'"
p3256
sg730
S"'runaway greenhouse'"
p3257
sg739
F1.0
sg747
g748
sg756
F0.01
sg764
F0.3
sssg772
F-1.0
sg780
F-1.0
sg796
S'2007A&A...474..653V;'
p3258
sg805
F1.293
sg813
F1.59
sg821
F-1.0
sg829
S'0051'
p3259
sg838
F0.197
sg846
F-1.0
sg854
F4.344713888888888
sg862
F0.009
sg870
F17.0
sg878
g197
sg886
F-1.0
sg894
F0.911832946635731
sg902
g903
sg911
S'BD-02 873 A'
p3260
sg920
F-1.0
sg928
F129.0
sg936
g197
sg945
F-1.0
sg956
F0.0919767240641711
sg964
F-1.0
sg975
F8.621
sg983
F-1.0
sg991
g3240
sg999
F-1.0
sg1007
F0.009
sg1015
F-1.0
sg1023
F-1.0
sg1031
F-1.0
sg1039
F-1.0
sg1047
F0.132
sg1055
F-1.0
sg1063
F-1.0
sg1071
F-1.0
sg1082
F-1.0
sg1090
F-1.0
sg1098
F-1.0
ssS'BHMCatS0014V'
p3261
(dp3262
g12
F0.0
sg20
S'NICHE-006 B'
p3263
sg29
F-2.0
sg37
S'NICHE-006'
p3264
sg46
I14
sg54
F-2.0
sg62
F-2.0
sg70
F-2.0
sg78
F0.0
sg86
F-2.0
sg94
F-2.0
sg102
F0.55
sg110
F12.0
sg118
g3
(g783
S'0\xa8\x1bgj\x94\x8f?'
p3265
tp3266
Rp3267
sg126
F-2.0
sg134
g1411
sg143
F-2.0
sg151
F0.0
sg159
g197
sg161
(lp3268
g163
asg347
F-1.0
sg355
S'NICHE'
p3269
sg364
F-2.0
sg372
F-2.0
sg380
g1722
sg382
(dp3270
g384
(dp3271
g393
F10.0
sg401
F1.0
sg409
F0.0
sg417
F0.0
sg425
F1.0
sg433
F0.0
sg441
S"'early mars'"
p3272
sg450
F6.0
sg458
F0.0
sg466
F1.000001
sg474
F0.01
sg482
F1.0
sg490
F0.0
sg498
F0.8
sg506
F10.0
sg514
F1.000001
sg522
F10.0
sg530
F1.5
sg538
F44.0
sg546
F0.0
sg554
F1.0
sg562
F10.0
sg570
S"'maximum greenhouse'"
p3273
sg579
F0.3
sg587
F5e+40
sg595
F0.01
sg603
F1.5
sg611
F2.0
sg619
F3.0
sg627
S'BCA98'
p3274
sg636
S'BCA98'
p3275
sg645
F1.0
sg653
F1.0
sg661
F5e+40
sg669
g670
sg678
F0.1
sg686
S'BHMCatS0014V'
p3276
sg695
g696
sg704
F10.0
sg712
S'NICHE-006'
p3277
sg721
S"'recent venus'"
p3278
sg730
S"'runaway greenhouse'"
p3279
sg739
F1.0
sg747
g748
sg756
F0.01
sg764
F0.3
sssg772
F-2.0
sg780
F-1.0
sg796
g197
sg805
F1.0
sg813
F-2.0
sg821
F-2.0
sg829
S'0014'
p3280
sg838
F-2.0
sg846
F-2.0
sg854
F-2.0
sg862
F0.0
sg870
F-1.0
sg878
g197
sg886
F-2.0
sg894
F0.55
sg902
g903
sg911
S'NICHE-006 A'
p3281
sg920
F-2.0
sg928
F-1.0
sg936
g197
sg945
F-1.0
sg956
F0.118714722140125
sg964
F-1.0
sg975
F-2.0
sg983
F-2.0
sg991
g3261
sg999
F-2.0
sg1007
F0.0
sg1015
F-2.0
sg1023
F-1.0
sg1031
F-1.0
sg1039
F-2.0
sg1047
F0.1
sg1055
F-2.0
sg1063
F-1.0
sg1071
F-1.0
sg1082
F-2.0
sg1090
F-1.0
sg1098
F-2.0
ssS'BHMCatS0012V'
p3282
(dp3283
g12
F0.0
sg20
S'NICHE-004 B'
p3284
sg29
F-2.0
sg37
S'NICHE-004'
p3285
sg46
I12
sg54
F-2.0
sg62
F-2.0
sg70
F-2.0
sg78
F0.0
sg86
F-2.0
sg94
F-2.0
sg102
F0.7
sg110
F15.0
sg118
g3
(g783
S'0\xa8\x1bgj\x94\x8f?'
p3286
tp3287
Rp3288
sg126
F-2.0
sg134
g1411
sg143
F-2.0
sg151
F0.0
sg159
g197
sg161
(lp3289
g163
asg347
F-1.0
sg355
S'NICHE'
p3290
sg364
F-2.0
sg372
F-2.0
sg380
g3064
sg382
(dp3291
g384
(dp3292
g393
F10.0
sg401
F1.0
sg409
F0.0
sg417
F0.0
sg425
F1.0
sg433
F0.0
sg441
S"'early mars'"
p3293
sg450
F6.0
sg458
F0.0
sg466
F1.000001
sg474
F0.01
sg482
F1.0
sg490
F0.0
sg498
F0.8
sg506
F10.0
sg514
F1.000001
sg522
F10.0
sg530
F1.5
sg538
F44.0
sg546
F0.0
sg554
F1.0
sg562
F10.0
sg570
S"'maximum greenhouse'"
p3294
sg579
F0.3
sg587
F5e+40
sg595
F0.01
sg603
F1.5
sg611
F2.0
sg619
F3.0
sg627
S'BCA98'
p3295
sg636
S'BCA98'
p3296
sg645
F1.0
sg653
F1.0
sg661
F5e+40
sg669
g670
sg678
F0.1
sg686
S'BHMCatS0012V'
p3297
sg695
g696
sg704
F10.0
sg712
S'NICHE-004'
p3298
sg721
S"'recent venus'"
p3299
sg730
S"'runaway greenhouse'"
p3300
sg739
F1.0
sg747
g748
sg756
F0.01
sg764
F0.3
sssg772
F-2.0
sg780
F-1.0
sg796
g197
sg805
F1.0
sg813
F-2.0
sg821
F-2.0
sg829
S'0012'
p3301
sg838
F-2.0
sg846
F-2.0
sg854
F-2.0
sg862
F0.0
sg870
F-1.0
sg878
g197
sg886
F-2.0
sg894
F0.7
sg902
g903
sg911
S'NICHE-004 A'
p3302
sg920
F-2.0
sg928
F-1.0
sg936
g197
sg945
F-1.0
sg956
F0.142063877260615
sg964
F-1.0
sg975
F-2.0
sg983
F-2.0
sg991
g3282
sg999
F-2.0
sg1007
F0.0
sg1015
F-2.0
sg1023
F-1.0
sg1031
F-1.0
sg1039
F-2.0
sg1047
F0.4
sg1055
F-2.0
sg1063
F-1.0
sg1071
F-1.0
sg1082
F-2.0
sg1090
F-1.0
sg1098
F-2.0
ssS'BHMCatS0041P'
p3303
(dp3304
g12
F-1.0
sg20
S'ASAS J162637-5042.8  B'
p3305
sg29
F3.7917898139359
sg37
S'ASAS J162637-5042.8'
p3306
sg46
I41
sg54
F-1.0
sg62
F0.151
sg70
F-1.0
sg78
F0.33
sg86
F2.25
sg94
F-1.0
sg102
F1.246
sg110
F8.87621
sg118
F-1.0
sg126
F-49.2863
sg134
g135
sg143
F-1.0
sg151
F0.33
sg159
S'G1'
p3307
sg161
(lp3308
g163
asg347
F-1.0
sg355
S'EkCat'
p3309
sg364
F3.82900138511398
sg372
F85.6
sg380
S'143'
p3310
sg382
(dp3311
g384
(dp3312
g393
F10.0
sg401
F1.0
sg409
F0.0
sg417
F0.0
sg425
F1.0
sg433
F0.0
sg441
S"'early mars'"
p3313
sg450
F6.0
sg458
F0.0
sg466
F1.000001
sg474
F0.01
sg482
F1.0
sg490
F0.0
sg498
F0.8
sg506
F10.0
sg514
F1.000001
sg522
F10.0
sg530
F1.5
sg538
F44.0
sg546
F0.0
sg554
F1.0
sg562
F10.0
sg570
S"'maximum greenhouse'"
p3314
sg579
F0.3
sg587
F5e+40
sg595
F0.01
sg603
F1.5
sg611
F2.0
sg619
F3.0
sg627
S'BCA98'
p3315
sg636
S'BCA98'
p3316
sg645
F1.0
sg653
F1.0
sg661
F5e+40
sg669
g670
sg678
F0.1
sg686
S'BHMCatS0041P'
p3317
sg695
g696
sg704
F10.0
sg712
S'ASAS J162637-5042.8'
p3318
sg721
S"'recent venus'"
p3319
sg730
S"'runaway greenhouse'"
p3320
sg739
F1.0
sg747
g748
sg756
F0.01
sg764
F0.3
sssg772
F-1.0
sg780
F-1.0
sg796
S'2008AN....329..835B;'
p3321
sg805
F1.469
sg813
F2.55
sg821
F-1.0
sg829
S'0041'
p3322
sg838
F0.13
sg846
F-1.0
sg854
F16.443722222222224
sg862
F0.008
sg870
F19.0
sg878
g197
sg886
F-1.0
sg894
F0.848196051735875
sg902
g903
sg911
S'ASAS J162637-5042.8  A'
p3323
sg920
F-1.0
sg928
F200.0
sg936
g197
sg945
F-1.0
sg956
F0.117112063636364
sg964
F-1.0
sg975
F9.868
sg983
F-1.0
sg991
g3303
sg999
F-1.0
sg1007
F0.007
sg1015
F-1.0
sg1023
F-1.0
sg1031
F-1.0
sg1039
F-1.0
sg1047
F0.019
sg1055
F-1.0
sg1063
F-1.0
sg1071
F-1.0
sg1082
F-1.0
sg1090
F-1.0
sg1098
F-1.0
ssS'BHMCatS0016V'
p3324
(dp3325
g12
F0.0
sg20
S'NICHE-008 B'
p3326
sg29
F-2.0
sg37
S'NICHE-008'
p3327
sg46
I16
sg54
F-2.0
sg62
F-2.0
sg70
F-2.0
sg78
F0.0
sg86
F-2.0
sg94
F-2.0
sg102
F0.7
sg110
F20.0
sg118
g3
(g783
S'0\xa8\x1bgj\x94\x8f?'
p3328
tp3329
Rp3330
sg126
F-2.0
sg134
g1411
sg143
F-2.0
sg151
F0.0
sg159
g197
sg161
(lp3331
g163
asg347
F-1.0
sg355
S'NICHE'
p3332
sg364
F-2.0
sg372
F-2.0
sg380
g1518
sg382
(dp3333
g384
(dp3334
g393
F10.0
sg401
F1.0
sg409
F0.0
sg417
F0.0
sg425
F1.0
sg433
F0.0
sg441
S"'early mars'"
p3335
sg450
F6.0
sg458
F0.0
sg466
F1.000001
sg474
F0.01
sg482
F1.0
sg490
F0.0
sg498
F0.8
sg506
F10.0
sg514
F1.000001
sg522
F10.0
sg530
F1.5
sg538
F44.0
sg546
F0.0
sg554
F1.0
sg562
F10.0
sg570
S"'maximum greenhouse'"
p3336
sg579
F0.3
sg587
F5e+40
sg595
F0.01
sg603
F1.5
sg611
F2.0
sg619
F3.0
sg627
S'BCA98'
p3337
sg636
S'BCA98'
p3338
sg645
F1.0
sg653
F1.0
sg661
F5e+40
sg669
g670
sg678
F0.1
sg686
S'BHMCatS0016V'
p3339
sg695
g696
sg704
F10.0
sg712
S'NICHE-008'
p3340
sg721
S"'recent venus'"
p3341
sg730
S"'runaway greenhouse'"
p3342
sg739
F1.0
sg747
g748
sg756
F0.01
sg764
F0.3
sssg772
F-2.0
sg780
F-1.0
sg796
g197
sg805
F0.85
sg813
F-2.0
sg821
F-2.0
sg829
S'0016'
p3343
sg838
F-2.0
sg846
F-2.0
sg854
F-2.0
sg862
F0.0
sg870
F-1.0
sg878
g197
sg886
F-2.0
sg894
F0.823529411764706
sg902
g903
sg911
S'NICHE-008 A'
p3344
sg920
F-2.0
sg928
F-1.0
sg936
g197
sg945
F-1.0
sg956
F0.166879790842003
sg964
F-1.0
sg975
F-2.0
sg983
F-2.0
sg991
g3324
sg999
F-2.0
sg1007
F0.0
sg1015
F-2.0
sg1023
F-1.0
sg1031
F-1.0
sg1039
F-2.0
sg1047
F0.3
sg1055
F-2.0
sg1063
F-1.0
sg1071
F-1.0
sg1082
F-2.0
sg1090
F-1.0
sg1098
F-2.0
ssS'BHMCatS0002D'
p3345
(dp3346
g12
F-0.263
sg20
S'Kepler-34 B'
p3347
sg29
F4.442
sg37
S'Kepler-34'
p3348
sg46
I2
sg54
F5867.0
sg62
F-1.0
sg70
F-1.0
sg78
F0.003
sg86
F1.093
sg94
F2.9
sg102
F1.021
sg110
F27.796
sg118
g3
(g783
S'\x949l\xffz\xc4\x81?'
p3349
tp3350
Rp3351
sg126
F44.64156111111111
sg134
g1278
sg143
F-1.0
sg151
F0.003
sg159
S'G0V'
p3352
sg161
(lp3353
(dp3354
g171
S'BHMCatP0002'
p3355
sg180
F3.1797327617963234
sg188
F0.182
sg196
S'BHMCatS002D'
p3356
sg205
F0.018
sg213
g3207
sg222
S'2012Natur.481..475W;2012yCatp038048101W'
p3357
sg231
S'Kepler-34b'
p3358
sg240
S'0002'
p3359
sg249
F8.573204834405901
sg257
F0.0009
sg265
S'Kepler-34'
p3360
sg274
F69.95412075951911
sg282
F-1.0
sg290
F1.0896
sg298
F0.072
sg306
F0.0
sg314
F2.069
sg322
F288.822
sg330
g1288
sg339
F0.14587913985245643
sasg347
F71.436
sg355
S'KIC'
p3361
sg364
F-1.0
sg372
F89.8584
sg380
S'8572936'
p3362
sg382
(dp3363
S'BHMCatP0002'
p3364
(dp3365
g393
F10.0
sg401
F1.0
sg409
F0.0
sg417
F0.0
sg425
F2.45
sg433
F-0.263
sg441
S"'early mars'"
p3366
sg450
F6.0
sg458
F0.0
sg466
F8.5732048344059
sg474
F0.01
sg482
F1.0
sg490
F-0.263
sg498
F0.8
sg506
F10.0
sg514
F69.9541207595191
sg522
F10.0
sg530
F1.5
sg538
F44.0
sg546
F0.0
sg554
F1.0
sg562
F10.0
sg570
S"'maximum greenhouse'"
p3367
sg579
F0.3
sg587
F5e+40
sg595
F0.01
sg603
F1.5
sg611
F2.0
sg619
F3.0
sg627
S'BCA98'
p3368
sg636
S'BCA98'
p3369
sg645
F1.0
sg653
F2.45
sg661
F5e+40
sg669
S'BHMCatP0002'
p3370
sg678
F0.1
sg686
S'BHMCatS0002D'
p3371
sg695
S'Kepler-34b'
p3372
sg704
F10.0
sg712
S'Kepler-34'
p3373
sg721
S"'recent venus'"
p3374
sg730
S"'runaway greenhouse'"
p3375
sg739
F2.45
sg747
S"'Earth'"
p3376
sg756
F0.01
sg764
F0.3
sssg772
F0.148
sg780
g3
(g783
S'\x1e6\x10i\xba\xca0@'
p3377
tp3378
Rp3379
sg796
S'2012Natur.481..475W; 2012yCatp038048101W;'
p3380
sg805
F1.048
sg813
F1.162
sg821
F1.5
sg829
S'0002'
p3381
sg838
F-1.0
sg846
F-1.0
sg854
F19.762388055555554
sg862
F0.003
sg870
F-1.0
sg878
S'BHMCatP0002;'
p3382
sg886
F130.0
sg894
F0.974236641221374
sg902
g903
sg911
S'Kepler-34 A'
p3383
sg920
F16.5
sg928
F-1.0
sg936
S'G0V'
p3384
sg945
F-1.0
sg956
F0.2288
sg964
F-1.0
sg975
F14.875
sg983
F5913.0
sg991
g3345
sg999
F-1.0
sg1007
F0.002
sg1015
F0.5
sg1023
F-1.0
sg1031
F-0.263
sg1039
F2.0
sg1047
F0.5209
sg1055
F3.5
sg1063
g3
(g783
S'\x949l\xffz\xc4\x81?'
p3385
tp3386
Rp3387
sg1071
g3
(g783
S'\x90\xab[\n\xd50\x03@'
p3388
tp3389
Rp3390
sg1082
F-1.0
sg1090
g3
(g783
S'\xc4d2\x8d\x9a\xbf\x99@'
p3391
tp3392
Rp3393
sg1098
F130.0
ssS'FieldsType'
p3394
(dp3395
g12
g3
(g4
(S'S5'
p3396
I0
I1
tp3397
Rp3398
(I3
S'|'
p3399
NNNI5
I1
I0
tp3400
bS'float'
p3401
tp3402
Rp3403
sg20
g3
(g4
(S'S3'
p3404
I0
I1
tp3405
Rp3406
(I3
S'|'
p3407
NNNI3
I1
I0
tp3408
bS'str'
p3409
tp3410
Rp3411
sg29
g3
(g4
(S'S5'
p3412
I0
I1
tp3413
Rp3414
(I3
S'|'
p3415
NNNI5
I1
I0
tp3416
bS'float'
p3417
tp3418
Rp3419
sg37
g3
(g4
(S'S3'
p3420
I0
I1
tp3421
Rp3422
(I3
S'|'
p3423
NNNI3
I1
I0
tp3424
bS'str'
p3425
tp3426
Rp3427
sg46
g3
(g4
(S'S3'
p3428
I0
I1
tp3429
Rp3430
(I3
S'|'
p3431
NNNI3
I1
I0
tp3432
bS'int'
p3433
tp3434
Rp3435
sg54
g3
(g4
(S'S5'
p3436
I0
I1
tp3437
Rp3438
(I3
S'|'
p3439
NNNI5
I1
I0
tp3440
bS'float'
p3441
tp3442
Rp3443
sg62
g3
(g4
(S'S5'
p3444
I0
I1
tp3445
Rp3446
(I3
S'|'
p3447
NNNI5
I1
I0
tp3448
bS'float'
p3449
tp3450
Rp3451
sg70
g3
(g4
(S'S5'
p3452
I0
I1
tp3453
Rp3454
(I3
S'|'
p3455
NNNI5
I1
I0
tp3456
bS'float'
p3457
tp3458
Rp3459
sg78
g3
(g4
(S'S5'
p3460
I0
I1
tp3461
Rp3462
(I3
S'|'
p3463
NNNI5
I1
I0
tp3464
bS'float'
p3465
tp3466
Rp3467
sg86
g3
(g4
(S'S5'
p3468
I0
I1
tp3469
Rp3470
(I3
S'|'
p3471
NNNI5
I1
I0
tp3472
bS'float'
p3473
tp3474
Rp3475
sg94
g3
(g4
(S'S5'
p3476
I0
I1
tp3477
Rp3478
(I3
S'|'
p3479
NNNI5
I1
I0
tp3480
bS'float'
p3481
tp3482
Rp3483
sg102
g3
(g4
(S'S5'
p3484
I0
I1
tp3485
Rp3486
(I3
S'|'
p3487
NNNI5
I1
I0
tp3488
bS'float'
p3489
tp3490
Rp3491
sg110
g3
(g4
(S'S5'
p3492
I0
I1
tp3493
Rp3494
(I3
S'|'
p3495
NNNI5
I1
I0
tp3496
bS'float'
p3497
tp3498
Rp3499
sg118
g3
(g4
(S'S5'
p3500
I0
I1
tp3501
Rp3502
(I3
S'|'
p3503
NNNI5
I1
I0
tp3504
bS'float'
p3505
tp3506
Rp3507
sg126
g3
(g4
(S'S3'
p3508
I0
I1
tp3509
Rp3510
(I3
S'|'
p3511
NNNI3
I1
I0
tp3512
bS'dms'
p3513
tp3514
Rp3515
sg134
g3
(g4
(S'S3'
p3516
I0
I1
tp3517
Rp3518
(I3
S'|'
p3519
NNNI3
I1
I0
tp3520
bS'str'
p3521
tp3522
Rp3523
sg143
g3
(g4
(S'S5'
p3524
I0
I1
tp3525
Rp3526
(I3
S'|'
p3527
NNNI5
I1
I0
tp3528
bS'float'
p3529
tp3530
Rp3531
sg151
g3
(g4
(S'S5'
p3532
I0
I1
tp3533
Rp3534
(I3
S'|'
p3535
NNNI5
I1
I0
tp3536
bS'float'
p3537
tp3538
Rp3539
sg159
g3
(g4
(S'S3'
p3540
I0
I1
tp3541
Rp3542
(I3
S'|'
p3543
NNNI3
I1
I0
tp3544
bS'str'
p3545
tp3546
Rp3547
sg347
g3
(g4
(S'S5'
p3548
I0
I1
tp3549
Rp3550
(I3
S'|'
p3551
NNNI5
I1
I0
tp3552
bS'float'
p3553
tp3554
Rp3555
sg355
g3
(g4
(S'S3'
p3556
I0
I1
tp3557
Rp3558
(I3
S'|'
p3559
NNNI3
I1
I0
tp3560
bS'str'
p3561
tp3562
Rp3563
sg364
g3
(g4
(S'S5'
p3564
I0
I1
tp3565
Rp3566
(I3
S'|'
p3567
NNNI5
I1
I0
tp3568
bS'float'
p3569
tp3570
Rp3571
sg372
g3
(g4
(S'S5'
p3572
I0
I1
tp3573
Rp3574
(I3
S'|'
p3575
NNNI5
I1
I0
tp3576
bS'float'
p3577
tp3578
Rp3579
sg380
g3
(g4
(S'S3'
p3580
I0
I1
tp3581
Rp3582
(I3
S'|'
p3583
NNNI3
I1
I0
tp3584
bS'str'
p3585
tp3586
Rp3587
sg772
g3
(g4
(S'S5'
p3588
I0
I1
tp3589
Rp3590
(I3
S'|'
p3591
NNNI5
I1
I0
tp3592
bS'float'
p3593
tp3594
Rp3595
sg780
g3
(g4
(S'S5'
p3596
I0
I1
tp3597
Rp3598
(I3
S'|'
p3599
NNNI5
I1
I0
tp3600
bS'float'
p3601
tp3602
Rp3603
sg796
g3
(g4
(S'S3'
p3604
I0
I1
tp3605
Rp3606
(I3
S'|'
p3607
NNNI3
I1
I0
tp3608
bS'str'
p3609
tp3610
Rp3611
sg805
g3
(g4
(S'S5'
p3612
I0
I1
tp3613
Rp3614
(I3
S'|'
p3615
NNNI5
I1
I0
tp3616
bS'float'
p3617
tp3618
Rp3619
sg813
g3
(g4
(S'S5'
p3620
I0
I1
tp3621
Rp3622
(I3
S'|'
p3623
NNNI5
I1
I0
tp3624
bS'float'
p3625
tp3626
Rp3627
sg821
g3
(g4
(S'S5'
p3628
I0
I1
tp3629
Rp3630
(I3
S'|'
p3631
NNNI5
I1
I0
tp3632
bS'float'
p3633
tp3634
Rp3635
sg829
g3
(g4
(S'S3'
p3636
I0
I1
tp3637
Rp3638
(I3
S'|'
p3639
NNNI3
I1
I0
tp3640
bS'str'
p3641
tp3642
Rp3643
sg838
g3
(g4
(S'S5'
p3644
I0
I1
tp3645
Rp3646
(I3
S'|'
p3647
NNNI5
I1
I0
tp3648
bS'float'
p3649
tp3650
Rp3651
sg846
g3
(g4
(S'S5'
p3652
I0
I1
tp3653
Rp3654
(I3
S'|'
p3655
NNNI5
I1
I0
tp3656
bS'float'
p3657
tp3658
Rp3659
sg854
g3
(g4
(S'S3'
p3660
I0
I1
tp3661
Rp3662
(I3
S'|'
p3663
NNNI3
I1
I0
tp3664
bS'dms'
p3665
tp3666
Rp3667
sg862
g3
(g4
(S'S5'
p3668
I0
I1
tp3669
Rp3670
(I3
S'|'
p3671
NNNI5
I1
I0
tp3672
bS'float'
p3673
tp3674
Rp3675
sg870
g3
(g4
(S'S5'
p3676
I0
I1
tp3677
Rp3678
(I3
S'|'
p3679
NNNI5
I1
I0
tp3680
bS'float'
p3681
tp3682
Rp3683
sg878
g3
(g4
(S'S3'
p3684
I0
I1
tp3685
Rp3686
(I3
S'|'
p3687
NNNI3
I1
I0
tp3688
bS'str'
p3689
tp3690
Rp3691
sg886
g3
(g4
(S'S5'
p3692
I0
I1
tp3693
Rp3694
(I3
S'|'
p3695
NNNI5
I1
I0
tp3696
bS'float'
p3697
tp3698
Rp3699
sg894
g3
(g4
(S'S5'
p3700
I0
I1
tp3701
Rp3702
(I3
S'|'
p3703
NNNI5
I1
I0
tp3704
bS'float'
p3705
tp3706
Rp3707
sg902
g3
(g4
(S'S3'
p3708
I0
I1
tp3709
Rp3710
(I3
S'|'
p3711
NNNI3
I1
I0
tp3712
bS'str'
p3713
tp3714
Rp3715
sg911
g3
(g4
(S'S3'
p3716
I0
I1
tp3717
Rp3718
(I3
S'|'
p3719
NNNI3
I1
I0
tp3720
bS'str'
p3721
tp3722
Rp3723
sg920
g3
(g4
(S'S5'
p3724
I0
I1
tp3725
Rp3726
(I3
S'|'
p3727
NNNI5
I1
I0
tp3728
bS'float'
p3729
tp3730
Rp3731
sg928
g3
(g4
(S'S5'
p3732
I0
I1
tp3733
Rp3734
(I3
S'|'
p3735
NNNI5
I1
I0
tp3736
bS'float'
p3737
tp3738
Rp3739
sg936
g3
(g4
(S'S3'
p3740
I0
I1
tp3741
Rp3742
(I3
S'|'
p3743
NNNI3
I1
I0
tp3744
bS'str'
p3745
tp3746
Rp3747
sg945
g3
(g4
(S'S5'
p3748
I0
I1
tp3749
Rp3750
(I3
S'|'
p3751
NNNI5
I1
I0
tp3752
bS'float'
p3753
tp3754
Rp3755
sg956
g3
(g4
(S'S5'
p3756
I0
I1
tp3757
Rp3758
(I3
S'|'
p3759
NNNI5
I1
I0
tp3760
bS'float'
p3761
tp3762
Rp3763
sg964
g3
(g4
(S'S5'
p3764
I0
I1
tp3765
Rp3766
(I3
S'|'
p3767
NNNI5
I1
I0
tp3768
bS'float'
p3769
tp3770
Rp3771
sg975
g3
(g4
(S'S5'
p3772
I0
I1
tp3773
Rp3774
(I3
S'|'
p3775
NNNI5
I1
I0
tp3776
bS'float'
p3777
tp3778
Rp3779
sg983
g3
(g4
(S'S5'
p3780
I0
I1
tp3781
Rp3782
(I3
S'|'
p3783
NNNI5
I1
I0
tp3784
bS'float'
p3785
tp3786
Rp3787
sg991
g3
(g4
(S'S3'
p3788
I0
I1
tp3789
Rp3790
(I3
S'|'
p3791
NNNI3
I1
I0
tp3792
bS'str'
p3793
tp3794
Rp3795
sg999
g3
(g4
(S'S5'
p3796
I0
I1
tp3797
Rp3798
(I3
S'|'
p3799
NNNI5
I1
I0
tp3800
bS'float'
p3801
tp3802
Rp3803
sg1007
g3
(g4
(S'S5'
p3804
I0
I1
tp3805
Rp3806
(I3
S'|'
p3807
NNNI5
I1
I0
tp3808
bS'float'
p3809
tp3810
Rp3811
sg1015
g3
(g4
(S'S5'
p3812
I0
I1
tp3813
Rp3814
(I3
S'|'
p3815
NNNI5
I1
I0
tp3816
bS'float'
p3817
tp3818
Rp3819
sg1023
g3
(g4
(S'S5'
p3820
I0
I1
tp3821
Rp3822
(I3
S'|'
p3823
NNNI5
I1
I0
tp3824
bS'float'
p3825
tp3826
Rp3827
sg1031
g3
(g4
(S'S5'
p3828
I0
I1
tp3829
Rp3830
(I3
S'|'
p3831
NNNI5
I1
I0
tp3832
bS'float'
p3833
tp3834
Rp3835
sg1039
g3
(g4
(S'S5'
p3836
I0
I1
tp3837
Rp3838
(I3
S'|'
p3839
NNNI5
I1
I0
tp3840
bS'float'
p3841
tp3842
Rp3843
sg1047
g3
(g4
(S'S5'
p3844
I0
I1
tp3845
Rp3846
(I3
S'|'
p3847
NNNI5
I1
I0
tp3848
bS'float'
p3849
tp3850
Rp3851
sg1055
g3
(g4
(S'S5'
p3852
I0
I1
tp3853
Rp3854
(I3
S'|'
p3855
NNNI5
I1
I0
tp3856
bS'float'
p3857
tp3858
Rp3859
sg1063
g3
(g4
(S'S5'
p3860
I0
I1
tp3861
Rp3862
(I3
S'|'
p3863
NNNI5
I1
I0
tp3864
bS'float'
p3865
tp3866
Rp3867
sg1071
g3
(g4
(S'S5'
p3868
I0
I1
tp3869
Rp3870
(I3
S'|'
p3871
NNNI5
I1
I0
tp3872
bS'float'
p3873
tp3874
Rp3875
sg1082
g3
(g4
(S'S5'
p3876
I0
I1
tp3877
Rp3878
(I3
S'|'
p3879
NNNI5
I1
I0
tp3880
bS'float'
p3881
tp3882
Rp3883
sg1090
g3
(g4
(S'S5'
p3884
I0
I1
tp3885
Rp3886
(I3
S'|'
p3887
NNNI5
I1
I0
tp3888
bS'float'
p3889
tp3890
Rp3891
sg1098
g3
(g4
(S'S5'
p3892
I0
I1
tp3893
Rp3894
(I3
S'|'
p3895
NNNI5
I1
I0
tp3896
bS'float'
p3897
tp3898
Rp3899
ss.