(dp0
S'BHMCatS0045P'
p1
(dp2
cnumpy.core.multiarray
scalar
p3
(cnumpy
dtype
p4
(S'S13'
p5
I0
I1
tp6
Rp7
(I3
S'|'
p8
NNNI13
I1
I0
tp9
bS'binary_FeHfit'
p10
tp11
Rp12
F-1.0
sg3
(g4
(S'S16'
p13
I0
I1
tp14
Rp15
(I3
S'|'
p16
NNNI16
I1
I0
tp17
bS'star2_str_StarID'
p18
tp19
Rp20
S'V1143 Cyg B'
p21
sg3
(g4
(S'S9'
p22
I0
I1
tp23
Rp24
(I3
S'|'
p25
NNNI9
I1
I0
tp26
bS'binary_BV'
p27
tp28
Rp29
F-1.0
sg3
(g4
(S'S14'
p30
I0
I1
tp31
Rp32
(I3
S'|'
p33
NNNI14
I1
I0
tp34
bS'star2_vsinierr'
p35
tp36
Rp37
F3.0
sg3
(g4
(S'S2'
p38
I0
I1
tp39
Rp40
(I3
S'|'
p41
NNNI2
I1
I0
tp42
bS'No'
p43
tp44
Rp45
I45
sg3
(g4
(S'S7'
p46
I0
I1
tp47
Rp48
(I3
S'|'
p49
NNNI7
I1
I0
tp50
bS'star2_T'
p51
tp52
Rp53
F6400.0
sg3
(g4
(S'S13'
p54
I0
I1
tp55
Rp56
(I3
S'|'
p57
NNNI13
I1
I0
tp58
bS'star2_loggerr'
p59
tp60
Rp61
F0.016
sg3
(g4
(S'S13'
p62
I0
I1
tp63
Rp64
(I3
S'|'
p65
NNNI13
I1
I0
tp66
bS'star2_Proterr'
p67
tp68
Rp69
F-1.0
sg3
(g4
(S'S10'
p70
I0
I1
tp71
Rp72
(I3
S'|'
p73
NNNI10
I1
I0
tp74
bS'star1_Rerr'
p75
tp76
Rp77
F0.023
sg3
(g4
(S'S7'
p78
I0
I1
tp79
Rp80
(I3
S'|'
p81
NNNI7
I1
I0
tp82
bS'star2_R'
p83
tp84
Rp85
F1.323
sg3
(g4
(S'S13'
p86
I0
I1
tp87
Rp88
(I3
S'|'
p89
NNNI13
I1
I0
tp90
bS'binary_taumax'
p91
tp92
Rp93
F-1.0
sg3
(g4
(S'S7'
p94
I0
I1
tp95
Rp96
(I3
S'|'
p97
NNNI7
I1
I0
tp98
bS'star2_M'
p99
tp100
Rp101
F1.347
sg3
(g4
(S'S16'
p102
I0
I1
tp103
Rp104
(I3
S'|'
p105
NNNI16
I1
I0
tp106
bS'binary_str_SysID'
p107
tp108
Rp109
S'V1143 Cyg'
p110
sg3
(g4
(S'S11'
p111
I0
I1
tp112
Rp113
(I3
S'|'
p114
NNNI11
I1
I0
tp115
bS'binary_Zfit'
p116
tp117
Rp118
F-1.0
sg3
(g4
(S'S3'
p119
I0
I1
tp120
Rp121
(I3
S'|'
p122
NNNI3
I1
I0
tp123
bS'DEC'
p124
tp125
Rp126
F54.973794444444444
sg3
(g4
(S'S4'
p127
I0
I1
tp128
Rp129
(I3
S'|'
p130
NNNI4
I1
I0
tp131
bS'Type'
p132
tp133
Rp134
S'P'
p135
sg3
(g4
(S'S13'
p136
I0
I1
tp137
Rp138
(I3
S'|'
p139
NNNI13
I1
I0
tp140
bS'star1_loggerr'
p141
tp142
Rp143
F0.016
sg3
(g4
(S'S10'
p144
I0
I1
tp145
Rp146
(I3
S'|'
p147
NNNI10
I1
I0
tp148
bS'star2_Rerr'
p149
tp150
Rp151
F0.023
sg3
(g4
(S'S15'
p152
I0
I1
tp153
Rp154
(I3
S'|'
p155
NNNI15
I1
I0
tp156
bS'star1_str_Stype'
p157
tp158
Rp159
S'F5V'
p160
sS'PlanetsData'
p161
(lp162
(dp163
g3
(g4
(S'S7'
p164
I0
I1
tp165
Rp166
(I3
S'|'
p167
NNNI7
I1
I0
tp168
bS'BHMCatP'
p169
tp170
Rp171
S'BHMCatP0000'
p172
sg3
(g4
(S'S11'
p173
I0
I1
tp174
Rp175
(I3
S'|'
p176
NNNI11
I1
I0
tp177
bS'planet_Merr'
p178
tp179
Rp180
F0.0
sg3
(g4
(S'S11'
p181
I0
I1
tp182
Rp183
(I3
S'|'
p184
NNNI11
I1
I0
tp185
bS'planet_eorb'
p186
tp187
Rp188
F0.0
sg3
(g4
(S'S7'
p189
I0
I1
tp190
Rp191
(I3
S'|'
p192
NNNI7
I1
I0
tp193
bS'BHMCatS'
p194
tp195
Rp196
S'-'
p197
sg3
(g4
(S'S14'
p198
I0
I1
tp199
Rp200
(I3
S'|'
p201
NNNI14
I1
I0
tp202
bS'planet_eorberr'
p203
tp204
Rp205
F0.0
sg3
(g4
(S'S3'
p206
I0
I1
tp207
Rp208
(I3
S'|'
p209
NNNI3
I1
I0
tp210
bS'Nop'
p211
tp212
Rp213
S'0'
p214
sg3
(g4
(S'S10'
p215
I0
I1
tp216
Rp217
(I3
S'|'
p218
NNNI10
I1
I0
tp219
bS'planet_ADS'
p220
tp221
Rp222
S'2011Sci...333.1602D;2011ApJ...741L...1W'
p223
sg3
(g4
(S'S8'
p224
I0
I1
tp225
Rp226
(I3
S'|'
p227
NNNI8
I1
I0
tp228
bS'planet_R'
p229
tp230
Rp231
F1.000001
sg3
(g4
(S'S6'
p232
I0
I1
tp233
Rp234
(I3
S'|'
p235
NNNI6
I1
I0
tp236
bS'Nopstr'
p237
tp238
Rp239
S'0000'
p240
sg3
(g4
(S'S11'
p241
I0
I1
tp242
Rp243
(I3
S'|'
p244
NNNI11
I1
I0
tp245
bS'planet_Porb'
p246
tp247
Rp248
F0.0
sg3
(g4
(S'S14'
p249
I0
I1
tp250
Rp251
(I3
S'|'
p252
NNNI14
I1
I0
tp253
bS'planet_aorberr'
p254
tp255
Rp256
F0.0
sg3
(g4
(S'S5'
p257
I0
I1
tp258
Rp259
(I3
S'|'
p260
NNNI5
I1
I0
tp261
bS'SysID'
p262
tp263
Rp264
S'Sun'
p265
sg3
(g4
(S'S8'
p266
I0
I1
tp267
Rp268
(I3
S'|'
p269
NNNI8
I1
I0
tp270
bS'planet_M'
p271
tp272
Rp273
F1.000001
sg3
(g4
(S'S11'
p274
I0
I1
tp275
Rp276
(I3
S'|'
p277
NNNI11
I1
I0
tp278
bS'planet_worb'
p279
tp280
Rp281
F0.0
sg3
(g4
(S'S11'
p282
I0
I1
tp283
Rp284
(I3
S'|'
p285
NNNI11
I1
I0
tp286
bS'planet_aorb'
p287
tp288
Rp289
F1.0
sg3
(g4
(S'S14'
p290
I0
I1
tp291
Rp292
(I3
S'|'
p293
NNNI14
I1
I0
tp294
bS'planet_Porberr'
p295
tp296
Rp297
F0.0
sg3
(g4
(S'S14'
p298
I0
I1
tp299
Rp300
(I3
S'|'
p301
NNNI14
I1
I0
tp302
bS'planet_worberr'
p303
tp304
Rp305
F0.0
sg3
(g4
(S'S11'
p306
I0
I1
tp307
Rp308
(I3
S'|'
p309
NNNI11
I1
I0
tp310
bS'planet_Morb'
p311
tp312
Rp313
F1.0
sg3
(g4
(S'S19'
p314
I0
I1
tp315
Rp316
(I3
S'|'
p317
NNNI19
I1
I0
tp318
bS'planet_str_PlanetID'
p319
tp320
Rp321
S'Earth-like'
p322
sg3
(g4
(S'S4'
p323
I0
I1
tp324
Rp325
(I3
S'|'
p326
NNNI4
I1
I0
tp327
bS'Type'
p328
tp329
Rp330
S'a'
p331
sg3
(g4
(S'S11'
p332
I0
I1
tp333
Rp334
(I3
S'|'
p335
NNNI11
I1
I0
tp336
bS'planet_Rerr'
p337
tp338
Rp339
F0.0
sasg3
(g4
(S'S15'
p340
I0
I1
tp341
Rp342
(I3
S'|'
p343
NNNI15
I1
I0
tp344
bS'star2_str_Stype'
p345
tp346
Rp347
S'F5V'
p348
sg3
(g4
(S'S9'
p349
I0
I1
tp350
Rp351
(I3
S'|'
p352
NNNI9
I1
I0
tp353
bS'SourceCat'
p354
tp355
Rp356
S'EkCat'
p357
sg3
(g4
(S'S10'
p358
I0
I1
tp359
Rp360
(I3
S'|'
p361
NNNI10
I1
I0
tp362
bS'star2_logg'
p363
tp364
Rp365
F4.324
sg3
(g4
(S'S11'
p366
I0
I1
tp367
Rp368
(I3
S'|'
p369
NNNI11
I1
I0
tp370
bS'star2_vsini'
p371
tp372
Rp373
F28.0
sg3
(g4
(S'S8'
p374
I0
I1
tp375
Rp376
(I3
S'|'
p377
NNNI8
I1
I0
tp378
bS'SourceID'
p379
tp380
Rp381
S'199'
p382
sS'PlanetsModel'
p383
(dp384
S'BHMCatP0000'
p385
(dp386
g3
(g4
(S'S10'
p387
I0
I1
tp388
Rp389
(I3
S'|'
p390
NNNI10
I1
I0
tp391
bS'star2_Pini'
p392
tp393
Rp394
F3.0
sg3
(g4
(S'S7'
p395
I0
I1
tp396
Rp397
(I3
S'|'
p398
NNNI7
I1
I0
tp399
bS'star1_a'
p400
tp401
Rp402
F1.0
sg3
(g4
(S'S11'
p403
I0
I1
tp404
Rp405
(I3
S'|'
p406
NNNI11
I1
I0
tp407
bS'star1_taums'
p408
tp409
Rp410
F0.0
sg3
(g4
(S'S7'
p411
I0
I1
tp412
Rp413
(I3
S'|'
p414
NNNI7
I1
I0
tp415
bS'star2_Z'
p416
tp417
Rp418
F0.0
sg3
(g4
(S'S10'
p419
I0
I1
tp420
Rp421
(I3
S'|'
p422
NNNI10
I1
I0
tp423
bS'planet_tau'
p424
tp425
Rp426
F1.0
sg3
(g4
(S'S9'
p427
I0
I1
tp428
Rp429
(I3
S'|'
p430
NNNI9
I1
I0
tp431
bS'star1_FeH'
p432
tp433
Rp434
F0.0
sg3
(g4
(S'S17'
p435
I0
I1
tp436
Rp437
(I3
S'|'
p438
NNNI17
I1
I0
tp439
bS'hz_str_outcrit_wd'
p440
tp441
Rp442
S"'early mars'"
p443
sg3
(g4
(S'S14'
p444
I0
I1
tp445
Rp446
(I3
S'|'
p447
NNNI14
I1
I0
tp448
bS'interaction_nP'
p449
tp450
Rp451
F6.0
sg3
(g4
(S'S11'
p452
I0
I1
tp453
Rp454
(I3
S'|'
p455
NNNI11
I1
I0
tp456
bS'star2_taums'
p457
tp458
Rp459
F0.0
sg3
(g4
(S'S8'
p460
I0
I1
tp461
Rp462
(I3
S'|'
p463
NNNI8
I1
I0
tp464
bS'planet_R'
p465
tp466
Rp467
F1.000001
sg3
(g4
(S'S13'
p468
I0
I1
tp469
Rp470
(I3
S'|'
p471
NNNI13
I1
I0
tp472
bS'star1_taudisk'
p473
tp474
Rp475
F0.01
sg3
(g4
(S'S11'
p476
I0
I1
tp477
Rp478
(I3
S'|'
p479
NNNI11
I1
I0
tp480
bS'planet_Prot'
p481
tp482
Rp483
F1.0
sg3
(g4
(S'S9'
p484
I0
I1
tp485
Rp486
(I3
S'|'
p487
NNNI9
I1
I0
tp488
bS'star2_FeH'
p489
tp490
Rp491
F0.0
sg3
(g4
(S'S11'
p492
I0
I1
tp493
Rp494
(I3
S'|'
p495
NNNI11
I1
I0
tp496
bS'planet_fHHe'
p497
tp498
Rp499
F0.8
sg3
(g4
(S'S16'
p500
I0
I1
tp501
Rp502
(I3
S'|'
p503
NNNI16
I1
I0
tp504
bS'interaction_Mmax'
p505
tp506
Rp507
F10.0
sg3
(g4
(S'S8'
p508
I0
I1
tp509
Rp510
(I3
S'|'
p511
NNNI8
I1
I0
tp512
bS'planet_M'
p513
tp514
Rp515
F1.000001
sg3
(g4
(S'S10'
p516
I0
I1
tp517
Rp518
(I3
S'|'
p519
NNNI10
I1
I0
tp520
bS'star2_wsat'
p521
tp522
Rp523
F30.0
sg3
(g4
(S'S7'
p524
I0
I1
tp525
Rp526
(I3
S'|'
p527
NNNI7
I1
I0
tp528
bS'star2_n'
p529
tp530
Rp531
F1.5
sg3
(g4
(S'S17'
p532
I0
I1
tp533
Rp534
(I3
S'|'
p535
NNNI17
I1
I0
tp536
bS'interaction_muatm'
p537
tp538
Rp539
F44.0
sg3
(g4
(S'S7'
p540
I0
I1
tp541
Rp542
(I3
S'|'
p543
NNNI7
I1
I0
tp544
bS'star1_Z'
p545
tp546
Rp547
F0.0
sg3
(g4
(S'S7'
p548
I0
I1
tp549
Rp550
(I3
S'|'
p551
NNNI7
I1
I0
tp552
bS'star2_a'
p553
tp554
Rp555
F1.0
sg3
(g4
(S'S10'
p556
I0
I1
tp557
Rp558
(I3
S'|'
p559
NNNI10
I1
I0
tp560
bS'star1_wsat'
p561
tp562
Rp563
F30.0
sg3
(g4
(S'S17'
p564
I0
I1
tp565
Rp566
(I3
S'|'
p567
NNNI17
I1
I0
tp568
bS'hz_str_outcrit_nr'
p569
tp570
Rp571
S"'maximum greenhouse'"
p572
sg3
(g4
(S'S17'
p573
I0
I1
tp574
Rp575
(I3
S'|'
p576
NNNI17
I1
I0
tp577
bS'interaction_alpha'
p578
tp579
Rp580
F0.3
sg3
(g4
(S'S8'
p581
I0
I1
tp582
Rp583
(I3
S'|'
p584
NNNI8
I1
I0
tp585
bS'star1_Kw'
p586
tp587
Rp588
F5.5e+39
sg3
(g4
(S'S16'
p589
I0
I1
tp590
Rp591
(I3
S'|'
p592
NNNI16
I1
I0
tp593
bS'interaction_Mmin'
p594
tp595
Rp596
F0.01
sg3
(g4
(S'S7'
p597
I0
I1
tp598
Rp599
(I3
S'|'
p600
NNNI7
I1
I0
tp601
bS'star1_n'
p602
tp603
Rp604
F1.5
sg3
(g4
(S'S18'
p605
I0
I1
tp606
Rp607
(I3
S'|'
p608
NNNI18
I1
I0
tp609
bS'interaction_tauref'
p610
tp611
Rp612
F2.0
sg3
(g4
(S'S14'
p613
I0
I1
tp614
Rp615
(I3
S'|'
p616
NNNI14
I1
I0
tp617
bS'interaction_nM'
p618
tp619
Rp620
F3.0
sg3
(g4
(S'S15'
p621
I0
I1
tp622
Rp623
(I3
S'|'
p624
NNNI15
I1
I0
tp625
bS'star2_str_model'
p626
tp627
Rp628
S'PARSEC'
p629
sg3
(g4
(S'S15'
p630
I0
I1
tp631
Rp632
(I3
S'|'
p633
NNNI15
I1
I0
tp634
bS'star1_str_model'
p635
tp636
Rp637
S'PARSEC'
p638
sg3
(g4
(S'S10'
p639
I0
I1
tp640
Rp641
(I3
S'|'
p642
NNNI10
I1
I0
tp643
bS'rotation_k'
p644
tp645
Rp646
F1.0
sg3
(g4
(S'S9'
p647
I0
I1
tp648
Rp649
(I3
S'|'
p650
NNNI9
I1
I0
tp651
bS'star1_tau'
p652
tp653
Rp654
F1.0
sg3
(g4
(S'S8'
p655
I0
I1
tp656
Rp657
(I3
S'|'
p658
NNNI8
I1
I0
tp659
bS'star2_Kw'
p660
tp661
Rp662
F5.5e+39
sg3
(g4
(S'S7'
p663
I0
I1
tp664
Rp665
(I3
S'|'
p666
NNNI7
I1
I0
tp667
bS'BHMCatP'
p668
tp669
Rp670
S'BHMCatP0000'
p671
sg3
(g4
(S'S18'
p672
I0
I1
tp673
Rp674
(I3
S'|'
p675
NNNI18
I1
I0
tp676
bS'interaction_tauini'
p677
tp678
Rp679
F0.1
sg3
(g4
(S'S7'
p680
I0
I1
tp681
Rp682
(I3
S'|'
p683
NNNI7
I1
I0
tp684
bS'BHMCatS'
p685
tp686
Rp687
S'BHMCatS0045P'
p688
sg3
(g4
(S'S8'
p689
I0
I1
tp690
Rp691
(I3
S'|'
p692
NNNI8
I1
I0
tp693
bS'PlanetID'
p694
tp695
Rp696
S'Earth-like'
p697
sg3
(g4
(S'S10'
p698
I0
I1
tp699
Rp700
(I3
S'|'
p701
NNNI10
I1
I0
tp702
bS'star1_Pini'
p703
tp704
Rp705
F3.0
sg3
(g4
(S'S5'
p706
I0
I1
tp707
Rp708
(I3
S'|'
p709
NNNI5
I1
I0
tp710
bS'SysID'
p711
tp712
Rp713
S'V1143 Cyg'
p714
sg3
(g4
(S'S16'
p715
I0
I1
tp716
Rp717
(I3
S'|'
p718
NNNI16
I1
I0
tp719
bS'hz_str_incrit_wd'
p720
tp721
Rp722
S"'recent venus'"
p723
sg3
(g4
(S'S16'
p724
I0
I1
tp725
Rp726
(I3
S'|'
p727
NNNI16
I1
I0
tp728
bS'hz_str_incrit_nr'
p729
tp730
Rp731
S"'runaway greenhouse'"
p732
sg3
(g4
(S'S9'
p733
I0
I1
tp734
Rp735
(I3
S'|'
p736
NNNI9
I1
I0
tp737
bS'star2_tau'
p738
tp739
Rp740
F1.0
sg3
(g4
(S'S22'
p741
I0
I1
tp742
Rp743
(I3
S'|'
p744
NNNI22
I1
I0
tp745
bS'interaction_str_refobj'
p746
tp747
Rp748
S"'Earth'"
p749
sg3
(g4
(S'S13'
p750
I0
I1
tp751
Rp752
(I3
S'|'
p753
NNNI13
I1
I0
tp754
bS'star2_taudisk'
p755
tp756
Rp757
F0.01
sg3
(g4
(S'S10'
p758
I0
I1
tp759
Rp760
(I3
S'|'
p761
NNNI10
I1
I0
tp762
bS'planet_CMF'
p763
tp764
Rp765
F0.3
sssg3
(g4
(S'S10'
p766
I0
I1
tp767
Rp768
(I3
S'|'
p769
NNNI10
I1
I0
tp770
bS'star1_logg'
p771
tp772
Rp773
F4.323
sg3
(g4
(S'S11'
p774
I0
I1
tp775
Rp776
(I3
S'|'
p777
NNNI11
I1
I0
tp778
bS'star1_Protv'
p779
tp780
Rp781
g3
(g4
(S'f8'
p782
I0
I1
tp783
Rp784
(I3
S'<'
p785
NNNI-1
I-1
I0
tp786
bS'\x05~\xd0\xef,7\x0e@'
p787
tp788
Rp789
sg3
(g4
(S'S10'
p790
I0
I1
tp791
Rp792
(I3
S'|'
p793
NNNI10
I1
I0
tp794
bS'binary_ADS'
p795
tp796
Rp797
S'1987A&A...174..107A;'
p798
sg3
(g4
(S'S7'
p799
I0
I1
tp800
Rp801
(I3
S'|'
p802
NNNI7
I1
I0
tp803
bS'star1_M'
p804
tp805
Rp806
F1.391
sg3
(g4
(S'S7'
p807
I0
I1
tp808
Rp809
(I3
S'|'
p810
NNNI7
I1
I0
tp811
bS'star1_R'
p812
tp813
Rp814
F1.346
sg3
(g4
(S'S13'
p815
I0
I1
tp816
Rp817
(I3
S'|'
p818
NNNI13
I1
I0
tp819
bS'star1_Proterr'
p820
tp821
Rp822
F-1.0
sg3
(g4
(S'S7'
p823
I0
I1
tp824
Rp825
(I3
S'|'
p826
NNNI7
I1
I0
tp827
bS'star1_T'
p828
tp829
Rp830
F6460.0
sg3
(g4
(S'S11'
p831
I0
I1
tp832
Rp833
(I3
S'|'
p834
NNNI11
I1
I0
tp835
bS'binary_ibin'
p836
tp837
Rp838
F87.0
sg3
(g4
(S'S10'
p839
I0
I1
tp840
Rp841
(I3
S'|'
p842
NNNI10
I1
I0
tp843
bS'star2_Prot'
p844
tp845
Rp846
F-1.0
sg3
(g4
(S'S11'
p847
I0
I1
tp848
Rp849
(I3
S'|'
p850
NNNI11
I1
I0
tp851
bS'binary_ebin'
p852
tp853
Rp854
F0.54
sg3
(g4
(S'S10'
p855
I0
I1
tp856
Rp857
(I3
S'|'
p858
NNNI10
I1
I0
tp859
bS'star1_Merr'
p860
tp861
Rp862
F0.016
sg3
(g4
(S'S11'
p863
I0
I1
tp864
Rp865
(I3
S'|'
p866
NNNI11
I1
I0
tp867
bS'binary_derr'
p868
tp869
Rp870
F2.0
sg3
(g4
(S'S7'
p871
I0
I1
tp872
Rp873
(I3
S'|'
p874
NNNI7
I1
I0
tp875
bS'Planets'
p876
tp877
Rp878
g197
sg3
(g4
(S'S10'
p879
I0
I1
tp880
Rp881
(I3
S'|'
p882
NNNI10
I1
I0
tp883
bS'star2_Terr'
p884
tp885
Rp886
F100.0
sg3
(g4
(S'S8'
p887
I0
I1
tp888
Rp889
(I3
S'|'
p890
NNNI8
I1
I0
tp891
bS'binary_q'
p892
tp893
Rp894
F0.968368080517613
sg3
(g4
(S'S5'
p895
I0
I1
tp896
Rp897
(I3
S'|'
p898
NNNI5
I1
I0
tp899
bS'Notes'
p900
tp901
Rp902
S''
p903
sg3
(g4
(S'S16'
p904
I0
I1
tp905
Rp906
(I3
S'|'
p907
NNNI16
I1
I0
tp908
bS'star1_str_StarID'
p909
tp910
Rp911
S'V1143 Cyg A'
p912
sg3
(g4
(S'S2'
p913
I0
I1
tp914
Rp915
(I3
S'|'
p916
NNNI2
I1
I0
tp917
bS'RA'
p918
tp919
Rp920
F19.644772222222223
sg3
(g4
(S'S16'
p921
I0
I1
tp922
Rp923
(I3
S'|'
p924
NNNI16
I1
I0
tp925
bS'binary_FeHfiterr'
p926
tp927
Rp928
F-1.0
sg3
(g4
(S'S10'
p929
I0
I1
tp930
Rp931
(I3
S'|'
p932
NNNI10
I1
I0
tp933
bS'star1_Prot'
p934
tp935
Rp936
F-1.0
sg3
(g4
(S'S8'
p937
I0
I1
tp938
Rp939
(I3
S'|'
p940
NNNI8
I1
I0
tp941
bS'binary_d'
p942
tp943
Rp944
F38.0
sg3
(g4
(S'S11'
p945
I0
I1
tp946
Rp947
(I3
S'|'
p948
NNNI11
I1
I0
tp949
bS'binary_wbin'
p950
tp951
Rp952
F-1.0
sg3
(g4
(S'S14'
p953
I0
I1
tp954
Rp955
(I3
S'|'
p956
NNNI14
I1
I0
tp957
bS'star2_Protverr'
p958
tp959
Rp960
g3
(g784
S'Su\xc7hh]\xd0?'
p961
tp962
Rp963
sg3
(g4
(S'S11'
p964
I0
I1
tp965
Rp966
(I3
S'|'
p967
NNNI11
I1
I0
tp968
bS'binary_abin'
p969
tp970
Rp971
F0.106173536229947
sg3
(g4
(S'S11'
p972
I0
I1
tp973
Rp974
(I3
S'|'
p975
NNNI11
I1
I0
tp976
bS'star2_Protv'
p977
tp978
Rp979
g3
(g784
S'\xe1\x08>z\xa4\x17\x03@'
p980
tp981
Rp982
sg3
(g4
(S'S8'
p983
I0
I1
tp984
Rp985
(I3
S'|'
p986
NNNI8
I1
I0
tp987
bS'binary_V'
p988
tp989
Rp990
F5.887
sg3
(g4
(S'S7'
p991
I0
I1
tp992
Rp993
(I3
S'|'
p994
NNNI7
I1
I0
tp995
bS'BHMCatS'
p996
tp997
Rp998
g1
sg3
(g4
(S'S9'
p999
I0
I1
tp1000
Rp1001
(I3
S'|'
p1002
NNNI9
I1
I0
tp1003
bS'binary_Lx'
p1004
tp1005
Rp1006
F-1.0
sg3
(g4
(S'S10'
p1007
I0
I1
tp1008
Rp1009
(I3
S'|'
p1010
NNNI10
I1
I0
tp1011
bS'star2_Merr'
p1012
tp1013
Rp1014
F0.013
sg3
(g4
(S'S14'
p1015
I0
I1
tp1016
Rp1017
(I3
S'|'
p1018
NNNI14
I1
I0
tp1019
bS'star1_vsinierr'
p1020
tp1021
Rp1022
F2.0
sg3
(g4
(S'S5'
p1023
I0
I1
tp1024
Rp1025
(I3
S'|'
p1026
NNNI5
I1
I0
tp1027
bS'Nostr'
p1028
tp1029
Rp1030
S'0045'
p1031
sg3
(g4
(S'S13'
p1032
I0
I1
tp1033
Rp1034
(I3
S'|'
p1035
NNNI13
I1
I0
tp1036
bS'binary_FeHobs'
p1037
tp1038
Rp1039
F-1.0
sg3
(g4
(S'S13'
p1040
I0
I1
tp1041
Rp1042
(I3
S'|'
p1043
NNNI13
I1
I0
tp1044
bS'binary_taumin'
p1045
tp1046
Rp1047
F-1.0
sg3
(g4
(S'S11'
p1048
I0
I1
tp1049
Rp1050
(I3
S'|'
p1051
NNNI11
I1
I0
tp1052
bS'binary_Pbin'
p1053
tp1054
Rp1055
F7.64075217
sg3
(g4
(S'S11'
p1056
I0
I1
tp1057
Rp1058
(I3
S'|'
p1059
NNNI11
I1
I0
tp1060
bS'star1_vsini'
p1061
tp1062
Rp1063
F18.0
sg3
(g4
(S'S11'
p1064
I0
I1
tp1065
Rp1066
(I3
S'|'
p1067
NNNI11
I1
I0
tp1068
bS'binary_Zobs'
p1069
tp1070
Rp1071
F-1.0
sg3
(g4
(S'S14'
p1072
I0
I1
tp1073
Rp1074
(I3
S'|'
p1075
NNNI14
I1
I0
tp1076
bS'star1_Protverr'
p1077
tp1078
Rp1079
g3
(g784
S'\x04p\x80*\xb6\xdb\xda?'
p1080
tp1081
Rp1082
sg3
(g4
(S'S11'
p1083
I0
I1
tp1084
Rp1085
(I3
S'|'
p1086
NNNI11
I1
I0
tp1087
bS'binary_dmod'
p1088
tp1089
Rp1090
F-1.0
sg3
(g4
(S'S10'
p1091
I0
I1
tp1092
Rp1093
(I3
S'|'
p1094
NNNI10
I1
I0
tp1095
bS'star1_Terr'
p1096
tp1097
Rp1098
F100.0
ssS'FieldsPriority'
p1099
(dp1100
g12
I2
sg20
I1
sg29
I2
sg37
I4
sg45
I100
sg53
I3
sg61
I4
sg69
I4
sg77
I4
sg85
I3
sg93
I3
sg101
I1
sg109
I1
sg118
I2
sg126
I3
sg134
I100
sg143
I4
sg151
I4
sg159
I2
sg347
I2
sg356
I3
sg365
I3
sg373
I3
sg381
I3
sg773
I3
sg781
I3
sg797
I1
sg806
I1
sg814
I3
sg822
I4
sg830
I3
sg838
I2
sg846
I2
sg854
I1
sg862
I4
sg870
I4
sg878
I1
sg886
I4
sg894
I100
sg902
I100
sg911
I1
sg920
I3
sg928
I4
sg936
I2
sg944
I2
sg952
I4
sg960
I4
sg971
I1
sg979
I3
sg990
I2
sg998
I1
sg1006
I3
sg1014
I4
sg1022
I4
sg1030
I1
sg1039
I2
sg1047
I3
sg1055
I1
sg1063
I3
sg1071
I2
sg1079
I4
sg1090
I2
sg1098
I4
ssS'PlanetFieldsType'
p1101
(dp1102
g171
g3
(g4
(S'S3'
p1103
I0
I1
tp1104
Rp1105
(I3
S'|'
p1106
NNNI3
I1
I0
tp1107
bS'str'
p1108
tp1109
Rp1110
sg180
g3
(g4
(S'S5'
p1111
I0
I1
tp1112
Rp1113
(I3
S'|'
p1114
NNNI5
I1
I0
tp1115
bS'float'
p1116
tp1117
Rp1118
sg188
g3
(g4
(S'S5'
p1119
I0
I1
tp1120
Rp1121
(I3
S'|'
p1122
NNNI5
I1
I0
tp1123
bS'float'
p1124
tp1125
Rp1126
sg196
g3
(g4
(S'S3'
p1127
I0
I1
tp1128
Rp1129
(I3
S'|'
p1130
NNNI3
I1
I0
tp1131
bS'str'
p1132
tp1133
Rp1134
sg205
g3
(g4
(S'S5'
p1135
I0
I1
tp1136
Rp1137
(I3
S'|'
p1138
NNNI5
I1
I0
tp1139
bS'float'
p1140
tp1141
Rp1142
sg213
g3
(g4
(S'S3'
p1143
I0
I1
tp1144
Rp1145
(I3
S'|'
p1146
NNNI3
I1
I0
tp1147
bS'str'
p1148
tp1149
Rp1150
sg222
g3
(g4
(S'S3'
p1151
I0
I1
tp1152
Rp1153
(I3
S'|'
p1154
NNNI3
I1
I0
tp1155
bS'str'
p1156
tp1157
Rp1158
sg231
g3
(g4
(S'S5'
p1159
I0
I1
tp1160
Rp1161
(I3
S'|'
p1162
NNNI5
I1
I0
tp1163
bS'float'
p1164
tp1165
Rp1166
sg239
g3
(g4
(S'S3'
p1167
I0
I1
tp1168
Rp1169
(I3
S'|'
p1170
NNNI3
I1
I0
tp1171
bS'str'
p1172
tp1173
Rp1174
sg248
g3
(g4
(S'S5'
p1175
I0
I1
tp1176
Rp1177
(I3
S'|'
p1178
NNNI5
I1
I0
tp1179
bS'float'
p1180
tp1181
Rp1182
sg256
g3
(g4
(S'S5'
p1183
I0
I1
tp1184
Rp1185
(I3
S'|'
p1186
NNNI5
I1
I0
tp1187
bS'float'
p1188
tp1189
Rp1190
sg264
g3
(g4
(S'S3'
p1191
I0
I1
tp1192
Rp1193
(I3
S'|'
p1194
NNNI3
I1
I0
tp1195
bS'str'
p1196
tp1197
Rp1198
sg273
g3
(g4
(S'S5'
p1199
I0
I1
tp1200
Rp1201
(I3
S'|'
p1202
NNNI5
I1
I0
tp1203
bS'float'
p1204
tp1205
Rp1206
sg281
g3
(g4
(S'S5'
p1207
I0
I1
tp1208
Rp1209
(I3
S'|'
p1210
NNNI5
I1
I0
tp1211
bS'float'
p1212
tp1213
Rp1214
sg289
g3
(g4
(S'S5'
p1215
I0
I1
tp1216
Rp1217
(I3
S'|'
p1218
NNNI5
I1
I0
tp1219
bS'float'
p1220
tp1221
Rp1222
sg297
g3
(g4
(S'S5'
p1223
I0
I1
tp1224
Rp1225
(I3
S'|'
p1226
NNNI5
I1
I0
tp1227
bS'float'
p1228
tp1229
Rp1230
sg305
g3
(g4
(S'S5'
p1231
I0
I1
tp1232
Rp1233
(I3
S'|'
p1234
NNNI5
I1
I0
tp1235
bS'float'
p1236
tp1237
Rp1238
sg313
g3
(g4
(S'S5'
p1239
I0
I1
tp1240
Rp1241
(I3
S'|'
p1242
NNNI5
I1
I0
tp1243
bS'float'
p1244
tp1245
Rp1246
sg321
g3
(g4
(S'S3'
p1247
I0
I1
tp1248
Rp1249
(I3
S'|'
p1250
NNNI3
I1
I0
tp1251
bS'str'
p1252
tp1253
Rp1254
sg330
g3
(g4
(S'S3'
p1255
I0
I1
tp1256
Rp1257
(I3
S'|'
p1258
NNNI3
I1
I0
tp1259
bS'str'
p1260
tp1261
Rp1262
sg339
g3
(g4
(S'S5'
p1263
I0
I1
tp1264
Rp1265
(I3
S'|'
p1266
NNNI5
I1
I0
tp1267
bS'float'
p1268
tp1269
Rp1270
ssS'BHMCatS0008D'
p1271
(dp1272
g12
F-0.34
sg20
S'KIC-9632895 B'
p1273
sg29
F0.055
sg37
F-1.0
sg45
I8
sg53
F3309.0
sg61
F0.005
sg69
F-1.0
sg77
F0.011
sg85
F0.2143
sg93
F2.5
sg101
F0.1938
sg109
S'KIC-9632895'
p1274
sg118
g3
(g784
S'\t\xde\r\x1a\x9e\x07~?'
p1275
tp1276
Rp1277
sg126
F46.37846944444445
sg134
S'D'
p1278
sg143
F0.015
sg151
F0.0014
sg159
g197
sg161
(lp1279
(dp1280
g171
S'BHMCatP0009'
p1281
sg180
F-317.9732761796323
sg188
F0.0379
sg196
S'BHMCatS008D'
p1282
sg205
F0.0088
sg213
S'9'
p1283
sg222
S'2014arXiv1409.1605W'
p1284
sg231
F6.165
sg239
S'0009'
p1285
sg248
F240.503
sg256
F0.0028
sg264
S'KIC-9632895'
p1286
sg273
F26.07380864672985
sg281
F-178.59
sg289
F0.7877
sg297
F0.053
sg305
F0.0
sg313
F1.1278
sg321
S'KIC-9632895b'
p1287
sg330
S'b'
p1288
sg339
F0.035
sasg347
g197
sg356
S'KIC'
p1289
sg365
F5.063
sg373
F-1.0
sg381
S'9632895'
p1290
sg383
(dp1291
S'BHMCatP0009'
p1292
(dp1293
g394
F3.0
sg402
F1.0
sg410
F0.0
sg418
F0.0
sg426
F1.75
sg434
F-0.34
sg442
S"'early mars'"
p1294
sg451
F6.0
sg459
F0.0
sg467
F6.165
sg475
F0.01
sg483
F1.0
sg491
F-0.34
sg499
F0.3
sg507
F10.0
sg515
F26.0738086467299
sg523
F30.0
sg531
F1.5
sg539
F44.0
sg547
F0.0
sg555
F1.0
sg563
F30.0
sg571
S"'maximum greenhouse'"
p1295
sg580
F0.3
sg588
F5.5e+39
sg596
F0.01
sg604
F1.5
sg612
F2.0
sg620
F3.0
sg628
S'PARSEC'
p1296
sg637
S'PARSEC'
p1297
sg646
F1.0
sg654
F1.75
sg662
F5.5e+39
sg670
S'BHMCatP0009'
p1298
sg679
F0.1
sg687
S'BHMCatS0008D'
p1299
sg696
S'KIC-9632895b'
p1300
sg705
F3.0
sg713
S'KIC-9632895'
p1301
sg722
S"'recent venus'"
p1302
sg731
S"'runaway greenhouse'"
p1303
sg740
F1.75
sg748
S"'Earth'"
p1304
sg757
F0.01
sg765
F0.3
sssg773
F4.803
sg781
g3
(g784
S'0\xde\x85\r\x9e,6@'
p1305
tp1306
Rp1307
sg797
S'2014arXiv1409.1605W;'
p1308
sg806
F0.934
sg814
F0.833
sg822
F0.47
sg830
F5527.0
sg838
F90.275
sg846
F-1.0
sg854
F0.05099
sg862
F0.01
sg870
F-1.0
sg878
S'BHMCatP0009;'
p1309
sg886
F100.0
sg894
F0.207494646680942
sg902
g903
sg911
S'KIC-9632895 A'
p1310
sg920
F18.882753333333334
sg928
F-1.0
sg936
F20.31
sg944
F-1.0
sg952
F262.86
sg960
F-1.0
sg971
F0.18749
sg979
F-1.0
sg990
F13.552
sg998
g1271
sg1006
F-1.0
sg1014
F0.002
sg1022
F1.0
sg1030
S'0008'
p1311
sg1039
F-0.343
sg1047
F1.0
sg1055
F27.322037
sg1063
F1.9
sg1071
g3
(g784
S'R\xb3\x00z^\xd5}?'
p1312
tp1313
Rp1314
sg1079
g3
(g784
S"\xef\xce\xc2\x00cW'@"
p1315
tp1316
Rp1317
sg1090
g3
(g784
S'\x07\x92[\rg\xf9x@'
p1318
tp1319
Rp1320
sg1098
F100.0
ssS'BHMCatS0028P'
p1321
(dp1322
g12
F-1.0
sg20
S'V69-47 Tuc  B'
p1323
sg29
F-1.0
sg37
F-1.0
sg45
I28
sg53
F5959.0
sg61
F0.006
sg69
F-1.0
sg77
F0.005
sg85
F1.162
sg93
F-1.0
sg101
F0.859
sg109
S'V69-47 Tuc'
p1324
sg118
F-1.0
sg126
F-71.9387
sg134
g135
sg143
F0.004
sg151
F0.006
sg159
S'G type'
p1325
sg161
(lp1326
g163
asg347
S'G type'
p1327
sg356
S'EkCat'
p1328
sg365
F4.1
sg373
F-1.0
sg381
S'3'
p1329
sg383
(dp1330
g385
(dp1331
g394
F3.0
sg402
F1.0
sg410
F0.0
sg418
F0.0
sg426
F1.0
sg434
F0.0
sg442
S"'early mars'"
p1332
sg451
F6.0
sg459
F0.0
sg467
F1.000001
sg475
F0.01
sg483
F1.0
sg491
F0.0
sg499
F0.8
sg507
F10.0
sg515
F1.000001
sg523
F30.0
sg531
F1.5
sg539
F44.0
sg547
F0.0
sg555
F1.0
sg563
F30.0
sg571
S"'maximum greenhouse'"
p1333
sg580
F0.3
sg588
F5.5e+39
sg596
F0.01
sg604
F1.5
sg612
F2.0
sg620
F3.0
sg628
S'PARSEC'
p1334
sg637
S'PARSEC'
p1335
sg646
F1.0
sg654
F1.0
sg662
F5.5e+39
sg670
g671
sg679
F0.1
sg687
S'BHMCatS0028P'
p1336
sg696
g697
sg705
F3.0
sg713
S'V69-47 Tuc'
p1337
sg722
S"'recent venus'"
p1338
sg731
S"'runaway greenhouse'"
p1339
sg740
F1.0
sg748
g749
sg757
F0.01
sg765
F0.3
sssg773
F4.1
sg781
F-1.0
sg797
S'2010AJ....139..329T ;'
p1340
sg806
F0.876
sg814
F1.315
sg822
F-1.0
sg830
F5945.0
sg838
F89.77
sg846
F-1.0
sg854
F0.056
sg862
F0.005
sg870
F166.0
sg878
g197
sg886
F150.0
sg894
F0.980593607305936
sg902
S'DEBCat'
p1341
sg911
S'V69-47 Tuc  A'
p1342
sg920
F0.38137499999999996
sg928
F-1.0
sg936
F-1.0
sg944
F4418.0
sg952
F-1.0
sg960
F-1.0
sg971
F0.224821648395722
sg979
F-1.0
sg990
F16.85
sg998
g1321
sg1006
F-1.0
sg1014
F0.006
sg1022
F-1.0
sg1030
S'0028'
p1343
sg1039
F-1.0
sg1047
F-1.0
sg1055
F29.53975
sg1063
F-1.0
sg1071
F-1.0
sg1079
F-1.0
sg1090
F-1.0
sg1098
F150.0
ssS'BHMCatS0032P'
p1344
(dp1345
g12
F-1.0
sg20
S'LV Her B'
p1346
sg29
F-1.0
sg37
F1.0
sg45
I32
sg53
F6030.0
sg61
F0.008
sg69
F-1.0
sg77
F0.012
sg85
F1.313
sg93
F-1.0
sg101
F1.17
sg109
S'LV Her'
p1347
sg118
F-1.0
sg126
F23.17516666666667
sg134
g135
sg143
F0.008
sg151
F0.011
sg159
S'F9V'
p1348
sg161
(lp1349
g163
asg347
S'F9V'
p1350
sg356
S'EkCat'
p1351
sg365
F4.27
sg373
F13.0
sg381
S'154'
p1352
sg383
(dp1353
g385
(dp1354
g394
F3.0
sg402
F1.0
sg410
F0.0
sg418
F0.0
sg426
F1.0
sg434
F0.0
sg442
S"'early mars'"
p1355
sg451
F6.0
sg459
F0.0
sg467
F1.000001
sg475
F0.01
sg483
F1.0
sg491
F0.0
sg499
F0.8
sg507
F10.0
sg515
F1.000001
sg523
F30.0
sg531
F1.5
sg539
F44.0
sg547
F0.0
sg555
F1.0
sg563
F30.0
sg571
S"'maximum greenhouse'"
p1356
sg580
F0.3
sg588
F5.5e+39
sg596
F0.01
sg604
F1.5
sg612
F2.0
sg620
F3.0
sg628
S'PARSEC'
p1357
sg637
S'PARSEC'
p1358
sg646
F1.0
sg654
F1.0
sg662
F5.5e+39
sg670
g671
sg679
F0.1
sg687
S'BHMCatS0032P'
p1359
sg696
g697
sg705
F3.0
sg713
S'LV Her'
p1360
sg722
S"'recent venus'"
p1361
sg731
S"'runaway greenhouse'"
p1362
sg740
F1.0
sg748
g749
sg757
F0.01
sg765
F0.3
sssg773
F4.249
sg781
g3
(g784
S'\x96L\xb1\x9e\x1c"\x15@'
p1363
tp1364
Rp1365
sg797
S'2009AJ....138.1622T;'
p1366
sg806
F1.193
sg814
F1.358
sg822
F-1.0
sg830
F6060.0
sg838
F89.55
sg846
F-1.0
sg854
F0.613
sg862
F0.01
sg870
F24.0
sg878
g197
sg886
F150.0
sg894
F0.980720871751886
sg902
S'DEBCat'
p1367
sg911
S'LV Her A'
p1368
sg920
F17.592333333333332
sg928
F-1.0
sg936
F-1.0
sg944
F352.0
sg952
F-1.0
sg960
g3
(g784
S'\x14\ni\x0f\xf4%\xd9?'
p1369
tp1370
Rp1371
sg971
F0.182091571122995
sg979
g3
(g784
S'0X\x85L\xd6n\x14@'
p1372
tp1373
Rp1374
sg990
F10.984
sg998
g1344
sg1006
F-1.0
sg1014
F0.008
sg1022
F1.0
sg1030
S'0032'
p1375
sg1039
F-1.0
sg1047
F-1.0
sg1055
F18.4359535
sg1063
F13.0
sg1071
F-1.0
sg1079
g3
(g784
S'\xe06\xda`\x99\x02\xda?'
p1376
tp1377
Rp1378
sg1090
F-1.0
sg1098
F150.0
ssS'BHMCatS0024P'
p1379
(dp1380
g12
F-1.0
sg20
S'EW Ori B'
p1381
sg29
F0.57
sg37
F-1.0
sg45
I24
sg53
F5902.0
sg61
F-1.0
sg69
F-1.0
sg77
F0.005
sg85
F1.097
sg93
F-1.0
sg101
F1.123
sg109
S'EW Ori'
p1382
sg118
F-1.0
sg126
F2.044436111111111
sg134
g135
sg143
F-1.0
sg151
F0.005
sg159
S'G0V'
p1383
sg161
(lp1384
g163
asg347
S'G2V'
p1385
sg356
S'DEBCat'
p1386
sg365
F-1.0
sg373
F-1.0
sg381
S'27'
p1387
sg383
(dp1388
g385
(dp1389
g394
F3.0
sg402
F1.0
sg410
F0.0
sg418
F0.0
sg426
F1.0
sg434
F0.0
sg442
S"'early mars'"
p1390
sg451
F6.0
sg459
F0.0
sg467
F1.000001
sg475
F0.01
sg483
F1.0
sg491
F0.0
sg499
F0.8
sg507
F10.0
sg515
F1.000001
sg523
F30.0
sg531
F1.5
sg539
F44.0
sg547
F0.0
sg555
F1.0
sg563
F30.0
sg571
S"'maximum greenhouse'"
p1391
sg580
F0.3
sg588
F5.5e+39
sg596
F0.01
sg604
F1.5
sg612
F2.0
sg620
F3.0
sg628
S'PARSEC'
p1392
sg637
S'PARSEC'
p1393
sg646
F1.0
sg654
F1.0
sg662
F5.5e+39
sg670
g671
sg679
F0.1
sg687
S'BHMCatS0024P'
p1394
sg696
g697
sg705
F3.0
sg713
S'EW Ori'
p1395
sg722
S"'recent venus'"
p1396
sg731
S"'runaway greenhouse'"
p1397
sg740
F1.0
sg748
g749
sg757
F0.01
sg765
F0.3
sssg773
F-1.0
sg781
F-1.0
sg797
S'2010A%26A...511A..22C;'
p1398
sg806
F1.173
sg814
F1.168
sg822
F-1.0
sg830
F6067.0
sg838
F-1.0
sg846
F-1.0
sg854
F0.0758
sg862
F0.011
sg870
F-1.0
sg878
g197
sg886
F-1.0
sg894
F0.957374254049446
sg902
g903
sg911
S'EW Ori A'
p1399
sg920
F5.335875
sg928
F-1.0
sg936
F-1.0
sg944
F-1.0
sg952
F-1.0
sg960
F-1.0
sg971
F0.0946
sg979
F-1.0
sg990
F9.09
sg998
g1379
sg1006
F-1.0
sg1014
F0.009
sg1022
F-1.0
sg1030
S'0024'
p1400
sg1039
F-1.0
sg1047
F-1.0
sg1055
F6.937
sg1063
F-1.0
sg1071
F-1.0
sg1079
F-1.0
sg1090
g3
(g784
S'\xcaW.o\xfe\x1b^@'
p1401
tp1402
Rp1403
sg1098
F-1.0
ssS'BHMCatS0018V'
p1404
(dp1405
g12
F0.0
sg20
S'NICHE-010 B'
p1406
sg29
F-2.0
sg37
F-2.0
sg45
I18
sg53
F-2.0
sg61
F-2.0
sg69
F-2.0
sg77
F0.0
sg85
F-2.0
sg93
F-2.0
sg101
F0.7
sg109
S'NICHE-010'
p1407
sg118
g3
(g784
S'0\xa8\x1bgj\x94\x8f?'
p1408
tp1409
Rp1410
sg126
F-2.0
sg134
S'V'
p1411
sg143
F-2.0
sg151
F0.0
sg159
g197
sg161
(lp1412
g163
asg347
g197
sg356
S'NICHE'
p1413
sg365
F-2.0
sg373
F-2.0
sg381
S'10'
p1414
sg383
(dp1415
g385
(dp1416
g394
F3.0
sg402
F1.0
sg410
F0.0
sg418
F0.0
sg426
F1.0
sg434
F0.0
sg442
S"'early mars'"
p1417
sg451
F6.0
sg459
F0.0
sg467
F1.000001
sg475
F0.01
sg483
F1.0
sg491
F0.0
sg499
F0.8
sg507
F10.0
sg515
F1.000001
sg523
F30.0
sg531
F1.5
sg539
F44.0
sg547
F0.0
sg555
F1.0
sg563
F30.0
sg571
S"'maximum greenhouse'"
p1418
sg580
F0.3
sg588
F5.5e+39
sg596
F0.01
sg604
F1.5
sg612
F2.0
sg620
F3.0
sg628
S'PARSEC'
p1419
sg637
S'PARSEC'
p1420
sg646
F1.0
sg654
F1.0
sg662
F5.5e+39
sg670
g671
sg679
F0.1
sg687
S'BHMCatS0018V'
p1421
sg696
g697
sg705
F3.0
sg713
S'NICHE-010'
p1422
sg722
S"'recent venus'"
p1423
sg731
S"'runaway greenhouse'"
p1424
sg740
F1.0
sg748
g749
sg757
F0.01
sg765
F0.3
sssg773
F-2.0
sg781
F-1.0
sg797
g197
sg806
F0.7
sg814
F-2.0
sg822
F-2.0
sg830
F-2.0
sg838
F-2.0
sg846
F-2.0
sg854
F0.4
sg862
F0.0
sg870
F-1.0
sg878
g197
sg886
F-2.0
sg894
F1.0
sg902
g903
sg911
S'NICHE-010 A'
p1425
sg920
F-2.0
sg928
F-1.0
sg936
F-2.0
sg944
F-1.0
sg952
F-1.0
sg960
F-1.0
sg971
F0.150371038433526
sg979
F-1.0
sg990
F-2.0
sg998
g1404
sg1006
F-2.0
sg1014
F0.0
sg1022
F-2.0
sg1030
S'0018'
p1426
sg1039
F-1.0
sg1047
F-2.0
sg1055
F18.0
sg1063
F-2.0
sg1071
F-1.0
sg1079
F-1.0
sg1090
F-1.0
sg1098
F-2.0
ssS'BHMCatS0026P'
p1427
(dp1428
g12
F-1.0
sg20
S'M4-V69 B'
p1429
sg29
F0.902
sg37
F-1.0
sg45
I26
sg53
F5915.0
sg61
F0.119
sg69
F-1.0
sg77
F0.01
sg85
F0.807
sg93
F11.23
sg101
F0.728
sg109
S'M4-V69'
p1430
sg118
F-1.0
sg126
F-25.378333333333334
sg134
g135
sg143
F0.132
sg151
F0.008
sg159
S'F type'
p1431
sg161
(lp1432
g163
asg347
S'G type'
p1433
sg356
S'EkCat'
p1434
sg365
F4.483
sg373
F-1.0
sg381
S'141'
p1435
sg383
(dp1436
g385
(dp1437
g394
F3.0
sg402
F1.0
sg410
F0.0
sg418
F0.0
sg426
F1.0
sg434
F0.0
sg442
S"'early mars'"
p1438
sg451
F6.0
sg459
F0.0
sg467
F1.000001
sg475
F0.01
sg483
F1.0
sg491
F0.0
sg499
F0.8
sg507
F10.0
sg515
F1.000001
sg523
F30.0
sg531
F1.5
sg539
F44.0
sg547
F0.0
sg555
F1.0
sg563
F30.0
sg571
S"'maximum greenhouse'"
p1439
sg580
F0.3
sg588
F5.5e+39
sg596
F0.01
sg604
F1.5
sg612
F2.0
sg620
F3.0
sg628
S'PARSEC'
p1440
sg637
S'PARSEC'
p1441
sg646
F1.0
sg654
F10.9
sg662
F5.5e+39
sg670
g671
sg679
F0.1
sg687
S'BHMCatS0026P'
p1442
sg696
g697
sg705
F3.0
sg713
S'M4-V69'
p1443
sg722
S"'recent venus'"
p1444
sg731
S"'runaway greenhouse'"
p1445
sg740
F10.9
sg748
g749
sg757
F0.01
sg765
F0.3
sssg773
F4.444
sg781
F-1.0
sg797
S'2013AJ....145...43K;'
p1446
sg806
F0.766
sg814
F0.866
sg822
F-1.0
sg830
F6084.0
sg838
F89.79
sg846
F-1.0
sg854
F0.384
sg862
F0.005
sg870
F30.0
sg878
g197
sg886
F137.0
sg894
F0.950391644908616
sg902
g903
sg911
S'M4-V69 A'
p1447
sg920
F16.39944722222222
sg928
F-1.0
sg936
F-1.0
sg944
F1850.0
sg952
F65.25
sg960
F-1.0
sg971
F0.296410819251337
sg979
F-1.0
sg990
F17.01
sg998
g1427
sg1006
F-1.0
sg1014
F0.004
sg1022
F-1.0
sg1030
S'0026'
p1448
sg1039
F-1.0
sg1047
F10.57
sg1055
F48.1882687
sg1063
F-1.0
sg1071
F-1.0
sg1079
F-1.0
sg1090
F-1.0
sg1098
F121.0
ssS'BHMCatS0030P'
p1449
(dp1450
g12
F-1.0
sg20
S'LL Aqr B'
p1451
sg29
F-1.0
sg37
F-1.0
sg45
I30
sg53
F6200.0
sg61
F0.01
sg69
F-1.0
sg77
F0.02
sg85
F1.005
sg93
F-1.0
sg101
F1.056
sg109
S'LL Aqr'
p1452
sg118
F-1.0
sg126
F-2.4005083333333332
sg134
g135
sg143
F0.009
sg151
F0.016
sg159
S'F3V'
p1453
sg161
(lp1454
g163
asg347
S'F6V'
p1455
sg356
S'EkCat'
p1456
sg365
F4.457
sg373
F-1.0
sg381
S'238'
p1457
sg383
(dp1458
g385
(dp1459
g394
F3.0
sg402
F1.0
sg410
F0.0
sg418
F0.0
sg426
F1.0
sg434
F0.0
sg442
S"'early mars'"
p1460
sg451
F6.0
sg459
F0.0
sg467
F1.000001
sg475
F0.01
sg483
F1.0
sg491
F0.0
sg499
F0.8
sg507
F10.0
sg515
F1.000001
sg523
F30.0
sg531
F1.5
sg539
F44.0
sg547
F0.0
sg555
F1.0
sg563
F30.0
sg571
S"'maximum greenhouse'"
p1461
sg580
F0.3
sg588
F5.5e+39
sg596
F0.01
sg604
F1.5
sg612
F2.0
sg620
F3.0
sg628
S'PARSEC'
p1462
sg637
S'PARSEC'
p1463
sg646
F1.0
sg654
F1.0
sg662
F5.5e+39
sg670
g671
sg679
F0.1
sg687
S'BHMCatS0030P'
p1464
sg696
g697
sg705
F3.0
sg713
S'LL Aqr'
p1465
sg722
S"'recent venus'"
p1466
sg731
S"'runaway greenhouse'"
p1467
sg740
F1.0
sg748
g749
sg757
F0.01
sg765
F0.3
sssg773
F4.281
sg781
F-1.0
sg797
S'2008MNRAS.390..958I;'
p1468
sg806
F1.223
sg814
F1.325
sg822
F-1.0
sg830
F6680.0
sg838
F89.51
sg846
F-1.0
sg854
F0.31
sg862
F0.058
sg870
F9.0
sg878
g197
sg886
F160.0
sg894
F0.863450531479967
sg902
S'DEBCat'
p1469
sg911
S'LL Aqr A'
p1470
sg920
F22.578375
sg928
F-1.0
sg936
F-1.0
sg944
F123.0
sg952
F-1.0
sg960
F-1.0
sg971
F0.190982033823529
sg979
F-1.0
sg990
F9.317
sg998
g1449
sg1006
F-1.0
sg1014
F0.051
sg1022
F-1.0
sg1030
S'0030'
p1471
sg1039
F-1.0
sg1047
F-1.0
sg1055
F20.178241
sg1063
F-1.0
sg1071
F-1.0
sg1079
F-1.0
sg1090
F-1.0
sg1098
F160.0
ssS'BHMCatS0036P'
p1472
(dp1473
g12
F-1.0
sg20
S'BF Dra B'
p1474
sg29
F-1.0
sg37
F1.8
sg45
I36
sg53
F6400.0
sg61
F0.005
sg69
F-1.0
sg77
F0.012
sg85
F1.922
sg93
F-1.0
sg101
F1.375
sg109
S'BF Dra'
p1475
sg118
F-1.0
sg126
F69.88263333333333
sg134
g135
sg143
F0.005
sg151
F0.012
sg159
S'F6V'
p1476
sg161
(lp1477
g163
asg347
S'F6V'
p1478
sg356
S'EkCat'
p1479
sg365
F4.008
sg373
F9.0
sg381
S'173'
p1480
sg383
(dp1481
g385
(dp1482
g394
F3.0
sg402
F1.0
sg410
F0.0
sg418
F0.0
sg426
F1.0
sg434
F0.0
sg442
S"'early mars'"
p1483
sg451
F6.0
sg459
F0.0
sg467
F1.000001
sg475
F0.01
sg483
F1.0
sg491
F0.0
sg499
F0.8
sg507
F10.0
sg515
F1.000001
sg523
F30.0
sg531
F1.5
sg539
F44.0
sg547
F0.0
sg555
F1.0
sg563
F30.0
sg571
S"'maximum greenhouse'"
p1484
sg580
F0.3
sg588
F5.5e+39
sg596
F0.01
sg604
F1.5
sg612
F2.0
sg620
F3.0
sg628
S'PARSEC'
p1485
sg637
S'PARSEC'
p1486
sg646
F1.0
sg654
F1.0
sg662
F5.5e+39
sg670
g671
sg679
F0.1
sg687
S'BHMCatS0036P'
p1487
sg696
g697
sg705
F3.0
sg713
S'BF Dra'
p1488
sg722
S"'recent venus'"
p1489
sg731
S"'runaway greenhouse'"
p1490
sg740
F1.0
sg748
g749
sg757
F0.01
sg765
F0.3
sssg773
F3.95
sg781
g3
(g784
S'\x8f\x91\xba\xea\xb8\x16$@'
p1491
tp1492
Rp1493
sg797
S'2012AJ....143..129S;'
p1494
sg806
F1.414
sg814
F2.086
sg822
F-1.0
sg830
F6360.0
sg838
F88.42
sg846
F-1.0
sg854
F0.387
sg862
F0.003
sg870
F27.0
sg878
g197
sg886
F150.0
sg894
F0.972418670438472
sg902
g903
sg911
S'BF Dra A'
p1495
sg920
F18.849819444444442
sg928
F-1.0
sg936
F-1.0
sg944
F354.0
sg952
F-1.0
sg960
g3
(g784
S'\x95\x8e\xd4\xd7\x82F\x01@'
p1496
tp1497
Rp1498
sg971
F0.0960728534759358
sg979
g3
(g784
S';\xb2\xc9\x8d#\x98%@'
p1499
tp1500
Rp1501
sg990
F9.77
sg998
g1472
sg1006
F-1.0
sg1014
F0.003
sg1022
F1.8
sg1030
S'0036'
p1502
sg1039
F-1.0
sg1047
F-1.0
sg1055
F11.2110047
sg1063
F10.5
sg1071
F-1.0
sg1079
g3
(g784
S'HK\xdbW\xe0\x8c\xfb?'
p1503
tp1504
Rp1505
sg1090
F-1.0
sg1098
F150.0
ssS'BHMCatS0007D'
p1506
(dp1507
g12
F-0.2
sg20
S'Kepler-413 B'
p1508
sg29
F0.073
sg37
F-1.0
sg45
I7
sg53
F3460.0
sg61
F-1.0
sg69
F-1.0
sg77
F0.008
sg85
F0.484
sg93
F-1.0
sg101
F0.542
sg109
S'Kepler-413'
p1509
sg118
g3
(g784
S'\xff\x07\xf4,5d\x84?'
p1510
tp1511
Rp1512
sg126
F51.16246944444444
sg134
g1278
sg143
F-1.0
sg151
F0.02
sg159
S'K type'
p1513
sg161
(lp1514
(dp1515
g171
S'BHMCatP0008'
p1516
sg180
F20.986236227855734
sg188
F0.1181
sg196
S'BHMCatS007D'
p1517
sg205
F0.002
sg213
S'8'
p1518
sg222
S'2014ApJ...784...14K'
p1519
sg231
F4.351686956521739
sg239
S'0008'
p1520
sg248
F66.262
sg256
F-1.0
sg264
S'Kepler-413'
p1521
sg273
F67.02876661866648
sg281
F-1.0
sg289
F0.3553
sg297
F-1.0
sg305
F0.0
sg313
F1.362
sg321
S'Kepler-413b'
p1522
sg330
g1288
sg339
F0.09874895620781668
sasg347
S'M type'
p1523
sg356
S'KIC'
p1524
sg365
F-1.0
sg373
F-1.0
sg381
S'12351927'
p1525
sg383
(dp1526
S'BHMCatP0008'
p1527
(dp1528
g394
F3.0
sg402
F1.0
sg410
F0.0
sg418
F0.0
sg426
F1.0
sg434
F-0.2
sg442
S"'early mars'"
p1529
sg451
F6.0
sg459
F0.0
sg467
F4.35168695652174
sg475
F0.01
sg483
F1.0
sg491
F-0.2
sg499
F0.8
sg507
F10.0
sg515
F67.0287666186665
sg523
F30.0
sg531
F1.5
sg539
F44.0
sg547
F0.0
sg555
F1.0
sg563
F30.0
sg571
S"'maximum greenhouse'"
p1530
sg580
F0.3
sg588
F5.5e+39
sg596
F0.01
sg604
F1.5
sg612
F2.0
sg620
F3.0
sg628
S'PARSEC'
p1531
sg637
S'PARSEC'
p1532
sg646
F1.0
sg654
F1.0
sg662
F5.5e+39
sg670
S'BHMCatP0008'
p1533
sg679
F0.1
sg687
S'BHMCatS0007D'
p1534
sg696
S'Kepler-413b'
p1535
sg705
F3.0
sg713
S'Kepler-413'
p1536
sg722
S"'recent venus'"
p1537
sg731
S"'runaway greenhouse'"
p1538
sg740
F1.0
sg748
S"'Earth'"
p1539
sg757
F0.01
sg765
F0.3
sssg773
F4.727
sg781
g3
(g784
S'j\xeb\xf4\xf1f]\x1f@'
p1540
tp1541
Rp1542
sg797
S'2014ApJ...784...14K;'
p1543
sg806
F0.82
sg814
F0.776
sg822
F0.15
sg830
F4700.0
sg838
F87.33
sg846
F-1.0
sg854
F0.0372
sg862
F0.015
sg870
F-1.0
sg878
S'BHMCatP0008;'
p1544
sg886
F-1.0
sg894
F0.660975609756098
sg902
g903
sg911
S'Kepler-413 A'
p1545
sg920
F19.234041666666666
sg928
F-1.0
sg936
F13.15
sg944
F-1.0
sg952
F279.54
sg960
F-1.0
sg971
F0.1015
sg979
F-1.0
sg990
F15.52
sg998
g1506
sg1006
F-1.0
sg1014
F0.008
sg1022
F2.0
sg1030
S'0007'
p1546
sg1039
F-1.431
sg1047
F-1.0
sg1055
F10.116
sg1063
F5.0
sg1071
g3
(g784
S'\xa5"\xf8\xd1\xa4/F?'
p1547
tp1548
Rp1549
sg1079
g3
(g784
S'"\x89]\x8e\x85\x17\t@'
p1550
tp1551
Rp1552
sg1090
g3
(g784
S'R\xcf\x91\x8fZ\xc0\x82@'
p1553
tp1554
Rp1555
sg1098
F-1.0
ssS'BHMCatS0037P'
p1556
(dp1557
g12
F-1.0
sg20
S'HP Dra B'
p1558
sg29
F-1.0
sg37
F0.01
sg45
I37
sg53
F5895.0
sg61
F0.011
sg69
F-1.0
sg77
F0.012
sg85
F1.052
sg93
F-1.0
sg101
F1.094
sg109
S'HP Dra'
p1559
sg118
F-1.0
sg126
F51.308274999999995
sg134
g135
sg143
F0.01
sg151
F0.01
sg159
S'F9V'
p1560
sg161
(lp1561
g163
asg347
S'F9V'
p1562
sg356
S'EkCat'
p1563
sg365
F4.433
sg373
F4.43
sg381
S'176'
p1564
sg383
(dp1565
g385
(dp1566
g394
F3.0
sg402
F1.0
sg410
F0.0
sg418
F0.0
sg426
F1.0
sg434
F0.0
sg442
S"'early mars'"
p1567
sg451
F6.0
sg459
F0.0
sg467
F1.000001
sg475
F0.01
sg483
F1.0
sg491
F0.0
sg499
F0.8
sg507
F10.0
sg515
F1.000001
sg523
F30.0
sg531
F1.5
sg539
F44.0
sg547
F0.0
sg555
F1.0
sg563
F30.0
sg571
S"'maximum greenhouse'"
p1568
sg580
F0.3
sg588
F5.5e+39
sg596
F0.01
sg604
F1.5
sg612
F2.0
sg620
F3.0
sg628
S'PARSEC'
p1569
sg637
S'PARSEC'
p1570
sg646
F1.0
sg654
F1.0
sg662
F5.5e+39
sg670
g671
sg679
F0.1
sg687
S'BHMCatS0037P'
p1571
sg696
g697
sg705
F3.0
sg713
S'HP Dra'
p1572
sg722
S"'recent venus'"
p1573
sg731
S"'runaway greenhouse'"
p1574
sg740
F1.0
sg748
g749
sg757
F0.01
sg765
F0.3
sssg773
F4.218
sg781
g3
(g784
S'V\x1a\x88\xcd\x86k0@'
p1575
tp1576
Rp1577
sg797
S'2010AJ....140..129M;'
p1578
sg806
F1.133
sg814
F1.371
sg822
F-1.0
sg830
F6000.0
sg838
F87.82
sg846
F-1.0
sg854
F0.037
sg862
F0.005
sg870
F3.0
sg878
g197
sg886
F150.0
sg894
F0.965578111209179
sg902
S'DEBCat'
p1579
sg911
S'HP Dra A'
p1580
sg920
F18.914855555555555
sg928
F-1.0
sg936
F-1.0
sg944
F77.0
sg952
F-1.0
sg960
g3
(g784
S'\xb3\t\xa1\x87D\xbe\x9b?'
p1581
tp1582
Rp1583
sg971
F0.124699212433155
sg979
g3
(g784
S'\xe4\xd5YK \x01(@'
p1584
tp1585
Rp1586
sg990
F7.951
sg998
g1556
sg1006
F-1.0
sg1014
F0.007
sg1022
F0.01
sg1030
S'0037'
p1587
sg1039
F-1.0
sg1047
F-1.0
sg1055
F10.76152
sg1063
F4.22
sg1071
F-1.0
sg1079
g3
(g784
S'kJ\x8ff\x03\xec\xa3?'
p1588
tp1589
Rp1590
sg1090
F-1.0
sg1098
F150.0
ssS'BHMCatS0035P'
p1591
(dp1592
g12
F-1.0
sg20
S'TYC 176-2950-1 B'
p1593
sg29
F-1.0
sg37
F-1.0
sg45
I35
sg53
F-1.0
sg61
F0.015
sg69
F-1.0
sg77
F0.03
sg85
F1.18
sg93
F-1.0
sg101
F1.041
sg109
S'TYC 176-2950-1'
p1594
sg118
F-1.0
sg126
F5.814813888888889
sg134
g135
sg143
F0.016
sg151
F0.02
sg159
S'G6'
p1595
sg161
(lp1596
g163
asg347
g197
sg356
S'EkCat'
p1597
sg365
F4.31153509391184
sg373
F-1.0
sg381
S'74'
p1598
sg383
(dp1599
g385
(dp1600
g394
F3.0
sg402
F1.0
sg410
F0.0
sg418
F0.0
sg426
F1.0
sg434
F0.0
sg442
S"'early mars'"
p1601
sg451
F6.0
sg459
F0.0
sg467
F1.000001
sg475
F0.01
sg483
F1.0
sg491
F0.0
sg499
F0.8
sg507
F10.0
sg515
F1.000001
sg523
F30.0
sg531
F1.5
sg539
F44.0
sg547
F0.0
sg555
F1.0
sg563
F30.0
sg571
S"'maximum greenhouse'"
p1602
sg580
F0.3
sg588
F5.5e+39
sg596
F0.01
sg604
F1.5
sg612
F2.0
sg620
F3.0
sg628
S'PARSEC'
p1603
sg637
S'PARSEC'
p1604
sg646
F1.0
sg654
F1.0
sg662
F5.5e+39
sg670
g671
sg679
F0.1
sg687
S'BHMCatS0035P'
p1605
sg696
g697
sg705
F3.0
sg713
S'TYC 176-2950-1'
p1606
sg722
S"'recent venus'"
p1607
sg731
S"'runaway greenhouse'"
p1608
sg740
F1.0
sg748
g749
sg757
F0.01
sg765
F0.3
sssg773
F4.02613295021946
sg781
F-1.0
sg797
S'2008AN....329..835B;'
p1609
sg806
F1.055
sg814
F1.65
sg822
F-1.0
sg830
F-1.0
sg838
F88.2
sg846
F-1.0
sg854
F0.21
sg862
F0.008
sg870
F17.0
sg878
g197
sg886
F-1.0
sg894
F0.986729857819905
sg902
g903
sg911
S'TYC 176-2950-1 A'
p1610
sg920
F7.273766666666667
sg928
F-1.0
sg936
F-1.0
sg944
F177.0
sg952
F-1.0
sg960
F-1.0
sg971
F0.128004044117647
sg979
F-1.0
sg990
F10.215
sg998
g1591
sg1006
F-1.0
sg1014
F0.008
sg1022
F-1.0
sg1030
S'0035'
p1611
sg1039
F-1.0
sg1047
F-1.0
sg1055
F11.55478
sg1063
F-1.0
sg1071
F-1.0
sg1079
F-1.0
sg1090
F-1.0
sg1098
F-1.0
ssS'BHMCatS0046P'
p1612
(dp1613
g12
F-1.0
sg20
S'ASAS J085524-4411.3  B'
p1614
sg29
F-1.0
sg37
F-1.0
sg45
I46
sg53
F-1.0
sg61
F0.009
sg69
F-1.0
sg77
F0.02
sg85
F1.634
sg93
F-1.0
sg101
F1.056
sg109
S'ASAS J085524-4411.3'
p1615
sg118
F-1.0
sg126
F-43.81263055555556
sg134
g135
sg143
F0.009
sg151
F0.016
sg159
S'F7'
p1616
sg161
(lp1617
g163
asg347
g197
sg356
S'EkCat'
p1618
sg365
F4.03509043777324
sg373
F-1.0
sg381
S'95'
p1619
sg383
(dp1620
g385
(dp1621
g394
F3.0
sg402
F1.0
sg410
F0.0
sg418
F0.0
sg426
F1.0
sg434
F0.0
sg442
S"'early mars'"
p1622
sg451
F6.0
sg459
F0.0
sg467
F1.000001
sg475
F0.01
sg483
F1.0
sg491
F0.0
sg499
F0.8
sg507
F10.0
sg515
F1.000001
sg523
F30.0
sg531
F1.5
sg539
F44.0
sg547
F0.0
sg555
F1.0
sg563
F30.0
sg571
S"'maximum greenhouse'"
p1623
sg580
F0.3
sg588
F5.5e+39
sg596
F0.01
sg604
F1.5
sg612
F2.0
sg620
F3.0
sg628
S'PARSEC'
p1624
sg637
S'PARSEC'
p1625
sg646
F1.0
sg654
F1.0
sg662
F5.5e+39
sg670
g671
sg679
F0.1
sg687
S'BHMCatS0046P'
p1626
sg696
g697
sg705
F3.0
sg713
S'ASAS J085524-4411.3'
p1627
sg722
S"'recent venus'"
p1628
sg731
S"'runaway greenhouse'"
p1629
sg740
F1.0
sg748
g749
sg757
F0.01
sg765
F0.3
sssg773
F3.97479165286237
sg781
F-1.0
sg797
S'2008AN....329..835B;'
p1630
sg806
F1.204
sg814
F1.87
sg822
F-1.0
sg830
F-1.0
sg838
F86.4
sg846
F-1.0
sg854
F0.0
sg862
F0.003
sg870
F27.0
sg878
g197
sg886
F-1.0
sg894
F0.877076411960133
sg902
g903
sg911
S'ASAS J085524-4411.3  A'
p1631
sg920
F8.923344444444444
sg928
F-1.0
sg936
F-1.0
sg944
F271.0
sg952
F-1.0
sg960
F-1.0
sg971
F0.094397164171123
sg979
F-1.0
sg990
F9.984
sg998
g1612
sg1006
F-1.0
sg1014
F0.003
sg1022
F-1.0
sg1030
S'0046'
p1632
sg1039
F-1.0
sg1047
F-1.0
sg1055
F7.040274
sg1063
F-1.0
sg1071
F-1.0
sg1079
F-1.0
sg1090
F-1.0
sg1098
F-1.0
ssS'BHMCatS0001D'
p1633
(dp1634
g12
F-0.3
sg20
S'Kepler-16 B'
p1635
sg29
F0.012
sg37
F-1.0
sg45
I1
sg53
F-1.0
sg61
F0.0016
sg69
F-1.0
sg77
F0.001
sg85
F0.226
sg93
F4.0
sg101
F0.203
sg109
S'Kepler-16'
p1636
sg118
g3
(g784
S'\xe7C\xb1\xc2\x0bc\x80?'
p1637
tp1638
Rp1639
sg126
F51.75743888888889
sg134
g1278
sg143
F0.0017
sg151
F0.001
sg159
S'K type'
p1640
sg161
(lp1641
(dp1642
g171
S'BHMCatP0001'
p1643
sg180
F5.087572418874117
sg188
F0.0069
sg196
S'BHMCatS001D'
p1644
sg205
F0.001
sg213
S'1'
p1645
sg222
S'2012Natur.481..475W;2012yCatp038048101W'
p1646
sg231
F8.458745816983205
sg239
S'0001'
p1647
sg248
F228.776
sg256
F0.0011
sg264
S'Kepler-16'
p1648
sg273
F105.88510096781756
sg281
F-1.0
sg289
F0.7048
sg297
F0.028
sg305
F0.0
sg313
F0.893
sg321
S'Kepler-16b'
p1649
sg330
g1288
sg339
F0.02749260712603987
sasg347
S'M type'
p1650
sg356
S'KIC'
p1651
sg365
F5.0358
sg373
F-1.0
sg381
S'12644769'
p1652
sg383
(dp1653
S'BHMCatP0001'
p1654
(dp1655
g394
F3.0
sg402
F1.0
sg410
F0.0
sg418
F0.0
sg426
F3.0
sg434
F-0.3
sg442
S"'early mars'"
p1656
sg451
F6.0
sg459
F0.0
sg467
F8.45874581698321
sg475
F0.01
sg483
F1.0
sg491
F-0.3
sg499
F0.8
sg507
F10.0
sg515
F105.885100967818
sg523
F30.0
sg531
F1.5
sg539
F44.0
sg547
F0.0
sg555
F1.0
sg563
F30.0
sg571
S"'maximum greenhouse'"
p1657
sg580
F0.3
sg588
F5.5e+39
sg596
F0.01
sg604
F1.5
sg612
F2.0
sg620
F3.0
sg628
S'PARSEC'
p1658
sg637
S'PARSEC'
p1659
sg646
F1.0
sg654
F3.0
sg662
F5.5e+39
sg670
S'BHMCatP0001'
p1660
sg679
F0.1
sg687
S'BHMCatS0001D'
p1661
sg696
S'Kepler-16b'
p1662
sg705
F3.0
sg713
S'Kepler-16'
p1663
sg722
S"'recent venus'"
p1664
sg731
S"'runaway greenhouse'"
p1665
sg740
F3.0
sg748
S"'Earth'"
p1666
sg757
F0.01
sg765
F0.3
sssg773
F4.479
sg781
g3
(g784
S'\xa1\xffg\xf2\xe8\xd6A@'
p1667
tp1668
Rp1669
sg797
S'2011Sci...333.1602D; 2011ApJ...741L...1W;'
p1670
sg806
F0.69
sg814
F0.649
sg822
F1.0
sg830
F4337.0
sg838
F90.3401
sg846
F-1.0
sg854
F0.1594
sg862
F0.004
sg870
F-1.0
sg878
S'BHMCatP0001;'
p1671
sg886
F-1.0
sg894
F0.294202898550725
sg902
g903
sg911
S'Kepler-16 A'
p1672
sg920
F19.27171388888889
sg928
F0.2
sg936
F35.1
sg944
F-1.0
sg952
F263.464
sg960
F-1.0
sg971
F0.2243
sg979
F-1.0
sg990
F11.762
sg998
g1633
sg1006
F-1.0
sg1014
F0.001
sg1022
F0.025
sg1030
S'0001'
p1673
sg1039
F-0.2
sg1047
F2.0
sg1055
F41.079
sg1063
F0.92
sg1071
g3
(g784
S'\xff\x07\xf4,5d\x84?'
p1674
tp1675
Rp1676
sg1079
g3
(g784
S'#B\xd6\xbbs\x06\xef?'
p1677
tp1678
Rp1679
sg1090
F-1.0
sg1098
F80.0
ssS'BHMCatS0011V'
p1680
(dp1681
g12
F0.0
sg20
S'NICHE-003 B'
p1682
sg29
F-2.0
sg37
F-2.0
sg45
I11
sg53
F-2.0
sg61
F-2.0
sg69
F-2.0
sg77
F0.0
sg85
F-2.0
sg93
F-2.0
sg101
F1.0
sg109
S'NICHE-003'
p1683
sg118
g3
(g784
S'0\xa8\x1bgj\x94\x8f?'
p1684
tp1685
Rp1686
sg126
F-2.0
sg134
g1411
sg143
F-2.0
sg151
F0.0
sg159
g197
sg161
(lp1687
g163
asg347
g197
sg356
S'NICHE'
p1688
sg365
F-2.0
sg373
F-2.0
sg381
g1329
sg383
(dp1689
g385
(dp1690
g394
F3.0
sg402
F1.0
sg410
F0.0
sg418
F0.0
sg426
F1.0
sg434
F0.0
sg442
S"'early mars'"
p1691
sg451
F6.0
sg459
F0.0
sg467
F1.000001
sg475
F0.01
sg483
F1.0
sg491
F0.0
sg499
F0.8
sg507
F10.0
sg515
F1.000001
sg523
F30.0
sg531
F1.5
sg539
F44.0
sg547
F0.0
sg555
F1.0
sg563
F30.0
sg571
S"'maximum greenhouse'"
p1692
sg580
F0.3
sg588
F5.5e+39
sg596
F0.01
sg604
F1.5
sg612
F2.0
sg620
F3.0
sg628
S'PARSEC'
p1693
sg637
S'PARSEC'
p1694
sg646
F1.0
sg654
F1.0
sg662
F5.5e+39
sg670
g671
sg679
F0.1
sg687
S'BHMCatS0011V'
p1695
sg696
g697
sg705
F3.0
sg713
S'NICHE-003'
p1696
sg722
S"'recent venus'"
p1697
sg731
S"'runaway greenhouse'"
p1698
sg740
F1.0
sg748
g749
sg757
F0.01
sg765
F0.3
sssg773
F-2.0
sg781
F-1.0
sg797
g197
sg806
F1.0
sg814
F-2.0
sg822
F-2.0
sg830
F-2.0
sg838
F-2.0
sg846
F-2.0
sg854
F0.3
sg862
F0.0
sg870
F-1.0
sg878
g197
sg886
F-2.0
sg894
F1.0
sg902
g903
sg911
S'NICHE-003 A'
p1699
sg920
F-2.0
sg928
F-1.0
sg936
F-2.0
sg944
F-1.0
sg952
F-1.0
sg960
F-1.0
sg971
F0.288396405427895
sg979
F-1.0
sg990
F-2.0
sg998
g1680
sg1006
F-2.0
sg1014
F0.0
sg1022
F-2.0
sg1030
S'0011'
p1700
sg1039
F-1.0
sg1047
F-2.0
sg1055
F40.0
sg1063
F-2.0
sg1071
F-1.0
sg1079
F-1.0
sg1090
F-1.0
sg1098
F-2.0
ssS'PlanetFields'
p1701
(lp1702
g213
ag239
ag330
ag171
ag196
ag264
ag321
ag273
ag180
ag231
ag339
ag313
ag289
ag256
ag248
ag297
ag188
ag205
ag281
ag305
ag222
asS'BHMCatS0005D'
p1703
(dp1704
g12
F-0.25
sg20
S'Kepler-47 B'
p1705
sg29
F0.126
sg37
F-1.0
sg45
I5
sg53
F3357.0
sg61
F-1.0
sg69
F-1.0
sg77
F0.017
sg85
F0.35
sg93
F-1.0
sg101
F0.362
sg109
S'Kepler-47'
p1706
sg118
g3
(g784
S'\x17\xc4\xeb\x8f\x9cG\x82?'
p1707
tp1708
Rp1709
sg126
F46.92046666666666
sg134
g1278
sg143
F0.1
sg151
F0.006
sg159
g197
sg161
(lp1710
(dp1711
g171
S'BHMCatP0005'
p1712
sg180
F0.0
sg188
F0.035
sg196
S'BHMCatS005D'
p1713
sg205
F-1.0
sg213
S'5'
p1714
sg222
S'2013ApJ...768..127S;2013ApJ...770...52K'
p1715
sg231
F3.029797520012557
sg239
S'0005'
p1716
sg248
F49.514
sg256
F0.0047
sg264
S'Kepler-47'
p1717
sg273
F7.631358628311175
sg281
F-1.0
sg289
F0.2956
sg297
F0.04
sg305
F0.0
sg313
F1.405
sg321
S'Kepler-47b'
p1718
sg330
g1288
sg339
F0.12343619525977083
sa(dp1719
g171
S'BHMCatP0006'
p1720
sg180
F0.0
sg188
F0.09
sg196
S'BHMCatS005D'
p1721
sg205
F-1.0
sg213
S'6'
p1722
sg222
S'2014ApJ...784...14K'
p1723
sg231
F4.600803641500549
sg239
S'0006'
p1724
sg248
F303.158
sg256
F0.016
sg264
S'Kepler-47'
p1725
sg273
F28.617594856166907
sg281
F-1.0
sg289
F0.989
sg297
F0.072
sg305
F0.0
sg313
F1.405
sg321
S'Kepler-47c'
p1726
sg330
S'c'
p1727
sg339
F0.20198650133417043
sasg347
g197
sg356
S'KIC'
p1728
sg365
F-1.0
sg373
F-1.0
sg381
S'10020423'
p1729
sg383
(dp1730
S'BHMCatP0005'
p1731
(dp1732
g394
F3.0
sg402
F1.0
sg410
F0.0
sg418
F0.0
sg426
F1.0
sg434
F-0.25
sg442
S"'early mars'"
p1733
sg451
F6.0
sg459
F0.0
sg467
F3.02979752001256
sg475
F0.01
sg483
F1.0
sg491
F-0.25
sg499
F0.8
sg507
F10.0
sg515
F7.63135862831118
sg523
F30.0
sg531
F1.5
sg539
F44.0
sg547
F0.0
sg555
F1.0
sg563
F30.0
sg571
S"'maximum greenhouse'"
p1734
sg580
F0.3
sg588
F5.5e+39
sg596
F0.01
sg604
F1.5
sg612
F2.0
sg620
F3.0
sg628
S'PARSEC'
p1735
sg637
S'PARSEC'
p1736
sg646
F1.0
sg654
F1.0
sg662
F5.5e+39
sg670
S'BHMCatP0005'
p1737
sg679
F0.1
sg687
S'BHMCatS0005D'
p1738
sg696
S'Kepler-47b'
p1739
sg705
F3.0
sg713
S'Kepler-47'
p1740
sg722
S"'recent venus'"
p1741
sg731
S"'runaway greenhouse'"
p1742
sg740
F1.0
sg748
S"'Earth'"
p1743
sg757
F0.01
sg765
F0.3
ssS'BHMCatP0006'
p1744
(dp1745
g394
F3.0
sg402
F1.0
sg410
F0.0
sg418
F0.0
sg426
F1.0
sg434
F-0.25
sg442
g1733
sg451
F6.0
sg459
F0.0
sg467
F4.60080364150055
sg475
F0.01
sg483
F1.0
sg491
F-0.25
sg499
F0.3
sg507
F10.0
sg515
F28.6175948561669
sg523
F30.0
sg531
F1.5
sg539
F44.0
sg547
F0.0
sg555
F1.0
sg563
F30.0
sg571
g1734
sg580
F0.3
sg588
F5.5e+39
sg596
F0.01
sg604
F1.5
sg612
F2.0
sg620
F3.0
sg628
g1735
sg637
g1736
sg646
F1.0
sg654
F1.0
sg662
F5.5e+39
sg670
S'BHMCatP0006'
p1746
sg679
F0.1
sg687
g1738
sg696
S'Kepler-47c'
p1747
sg705
F3.0
sg713
g1740
sg722
g1741
sg731
g1742
sg740
F1.0
sg748
S"'Earth'"
p1748
sg757
F0.01
sg765
F0.3
sssg773
F4.682
sg781
g3
(g784
S"\xca<\xdd\xec\xa2\xc8'@"
p1749
tp1750
Rp1751
sg797
S'2012Sci...337.1511O;'
p1752
sg806
F1.043
sg814
F0.964
sg822
F0.022
sg830
F5636.0
sg838
F89.69
sg846
F-1.0
sg854
F0.0234
sg862
F0.055
sg870
F-1.0
sg878
S'BHMCatP0005;BHMCatP0006;'
p1753
sg886
F100.0
sg894
F0.347075743048897
sg902
g903
sg911
S'Kepler-47 A'
p1754
sg920
F19.686527777777776
sg928
F-1.0
sg936
F7.775
sg944
F-1.0
sg952
F212.3
sg960
F-1.0
sg971
F0.0836
sg979
F-1.0
sg990
F15.178
sg998
g1703
sg1006
F-1.0
sg1014
F0.013
sg1022
F0.5
sg1030
S'0005'
p1755
sg1039
F-0.252
sg1047
F-1.0
sg1055
F7.448
sg1063
F4.1
sg1071
g3
(g784
S'\xf5aR\xa613\x82?'
p1756
tp1757
Rp1758
sg1079
g3
(g784
S'\x87Z\xcb\x12"4\xf7?'
p1759
tp1760
Rp1761
sg1090
g3
(g784
S'\xb6Y6\x15\x84!\x90@'
p1762
tp1763
Rp1764
sg1098
F100.0
ssS'BHMCatS0050P'
p1765
(dp1766
g12
F-1.0
sg20
S'NGC188 KR V12 B'
p1767
sg29
F-1.0
sg37
F-1.0
sg45
I50
sg53
F5875.0
sg61
F0.013
sg69
F-1.0
sg77
F0.019
sg85
F1.373
sg93
F-1.0
sg101
F1.081
sg109
S'NGC188 KR V12'
p1768
sg118
F-1.0
sg126
F85.17629166666667
sg134
g135
sg143
F0.012
sg151
F0.019
sg159
S'G type'
p1769
sg161
(lp1770
g163
asg347
S'G type'
p1771
sg356
S'EkCat'
p1772
sg365
F4.196
sg373
F17.0
sg381
g1714
sg383
(dp1773
g385
(dp1774
g394
F3.0
sg402
F1.0
sg410
F0.0
sg418
F0.0
sg426
F1.0
sg434
F0.0
sg442
S"'early mars'"
p1775
sg451
F6.0
sg459
F0.0
sg467
F1.000001
sg475
F0.01
sg483
F1.0
sg491
F0.0
sg499
F0.8
sg507
F10.0
sg515
F1.000001
sg523
F30.0
sg531
F1.5
sg539
F44.0
sg547
F0.0
sg555
F1.0
sg563
F30.0
sg571
S"'maximum greenhouse'"
p1776
sg580
F0.3
sg588
F5.5e+39
sg596
F0.01
sg604
F1.5
sg612
F2.0
sg620
F3.0
sg628
S'PARSEC'
p1777
sg637
S'PARSEC'
p1778
sg646
F1.0
sg654
F1.0
sg662
F5.5e+39
sg670
g671
sg679
F0.1
sg687
S'BHMCatS0050P'
p1779
sg696
g697
sg705
F3.0
sg713
S'NGC188 KR V12'
p1780
sg722
S"'recent venus'"
p1781
sg731
S"'runaway greenhouse'"
p1782
sg740
F1.0
sg748
g749
sg757
F0.01
sg765
F0.3
sssg773
F4.174
sg781
g3
(g784
S"\xa9\x8d'\xff]3\x13@"
p1783
tp1784
Rp1785
sg797
S'2009AJ....137.5086M;'
p1786
sg806
F1.103
sg814
F1.424
sg822
F-1.0
sg830
F5900.0
sg838
F88.62
sg846
F-1.0
sg854
F0.0
sg862
F0.007
sg870
F75.0
sg878
g197
sg886
F100.0
sg894
F0.980054397098821
sg902
g903
sg911
S'NGC188 KR V12 A'
p1787
sg920
F0.8770944444444445
sg928
F-1.0
sg936
F-1.0
sg944
F1770.0
sg952
F-1.0
sg960
F-1.0
sg971
F0.0884857046791444
sg979
g3
(g784
S'\xaf\xfaO\xef\xc1U\x10@'
p1788
tp1789
Rp1790
sg990
F14.64
sg998
g1765
sg1006
F-1.0
sg1014
F0.007
sg1022
F-1.0
sg1030
S'0050'
p1791
sg1039
F-1.0
sg1047
F-1.0
sg1055
F6.5042969
sg1063
F15.0
sg1071
F-1.0
sg1079
F-1.0
sg1090
F-1.0
sg1098
F100.0
ssS'BHMCatS0009V'
p1792
(dp1793
g12
F0.0
sg20
S'NICHE-001 B'
p1794
sg29
F-2.0
sg37
F-2.0
sg45
I9
sg53
F-2.0
sg61
F-2.0
sg69
F-2.0
sg77
F0.0
sg85
F-2.0
sg93
F-2.0
sg101
F1.0
sg109
S'NICHE-001'
p1795
sg118
g3
(g784
S'0\xa8\x1bgj\x94\x8f?'
p1796
tp1797
Rp1798
sg126
F-2.0
sg134
g1411
sg143
F-2.0
sg151
F0.0
sg159
g197
sg161
(lp1799
g163
asg347
g197
sg356
S'NICHE'
p1800
sg365
F-2.0
sg373
F-2.0
sg381
g1645
sg383
(dp1801
g385
(dp1802
g394
F3.0
sg402
F1.0
sg410
F0.0
sg418
F0.0
sg426
F1.0
sg434
F0.0
sg442
S"'early mars'"
p1803
sg451
F6.0
sg459
F0.0
sg467
F1.000001
sg475
F0.01
sg483
F1.0
sg491
F0.0
sg499
F0.8
sg507
F10.0
sg515
F1.000001
sg523
F30.0
sg531
F1.5
sg539
F44.0
sg547
F0.0
sg555
F1.0
sg563
F30.0
sg571
S"'maximum greenhouse'"
p1804
sg580
F0.3
sg588
F5.5e+39
sg596
F0.01
sg604
F1.5
sg612
F2.0
sg620
F3.0
sg628
S'PARSEC'
p1805
sg637
S'PARSEC'
p1806
sg646
F1.0
sg654
F1.0
sg662
F5.5e+39
sg670
g671
sg679
F0.1
sg687
S'BHMCatS0009V'
p1807
sg696
g697
sg705
F3.0
sg713
S'NICHE-001'
p1808
sg722
S"'recent venus'"
p1809
sg731
S"'runaway greenhouse'"
p1810
sg740
F1.0
sg748
g749
sg757
F0.01
sg765
F0.3
sssg773
F-2.0
sg781
F-1.0
sg797
g197
sg806
F1.0
sg814
F-2.0
sg822
F-2.0
sg830
F-2.0
sg838
F-2.0
sg846
F-2.0
sg854
F0.1
sg862
F0.0
sg870
F-1.0
sg878
g197
sg886
F-2.0
sg894
F1.0
sg902
g903
sg911
S'NICHE-001 A'
p1811
sg920
F-2.0
sg928
F-1.0
sg936
F-2.0
sg944
F-1.0
sg952
F-1.0
sg960
F-1.0
sg971
F0.149972174389221
sg979
F-1.0
sg990
F-2.0
sg998
g1792
sg1006
F-2.0
sg1014
F0.0
sg1022
F-2.0
sg1030
S'0009'
p1812
sg1039
F-1.0
sg1047
F-2.0
sg1055
F15.0
sg1063
F-2.0
sg1071
F-1.0
sg1079
F-1.0
sg1090
F-1.0
sg1098
F-2.0
ssS'BHMCatS0039P'
p1813
(dp1814
g12
F-1.0
sg20
S'HS Aur B'
p1815
sg29
F-1.0
sg37
F-1.0
sg45
I39
sg53
F5200.0
sg61
F0.03
sg69
F-1.0
sg77
F0.023
sg85
F0.874
sg93
F-1.0
sg101
F0.877
sg109
S'HS Aur'
p1816
sg118
F-1.0
sg126
F47.67337777777777
sg134
g135
sg143
F0.02
sg151
F0.03
sg159
S'G8V'
p1817
sg161
(lp1818
g163
asg347
S'K0V'
p1819
sg356
S'EkCat'
p1820
sg365
F4.5
sg373
F-1.0
sg381
S'68'
p1821
sg383
(dp1822
g385
(dp1823
g394
F3.0
sg402
F1.0
sg410
F0.0
sg418
F0.0
sg426
F1.0
sg434
F0.0
sg442
S"'early mars'"
p1824
sg451
F6.0
sg459
F0.0
sg467
F1.000001
sg475
F0.01
sg483
F1.0
sg491
F0.0
sg499
F0.8
sg507
F10.0
sg515
F1.000001
sg523
F30.0
sg531
F1.5
sg539
F44.0
sg547
F0.0
sg555
F1.0
sg563
F30.0
sg571
S"'maximum greenhouse'"
p1825
sg580
F0.3
sg588
F5.5e+39
sg596
F0.01
sg604
F1.5
sg612
F2.0
sg620
F3.0
sg628
S'PARSEC'
p1826
sg637
S'PARSEC'
p1827
sg646
F1.0
sg654
F1.0
sg662
F5.5e+39
sg670
g671
sg679
F0.1
sg687
S'BHMCatS0039P'
p1828
sg696
g697
sg705
F3.0
sg713
S'HS Aur'
p1829
sg722
S"'recent venus'"
p1830
sg731
S"'runaway greenhouse'"
p1831
sg740
F1.0
sg748
g749
sg757
F0.01
sg765
F0.3
sssg773
F4.39
sg781
F-1.0
sg797
S'1986AJ.....91..383P;'
p1832
sg806
F0.898
sg814
F1.005
sg822
F-1.0
sg830
F5350.0
sg838
F90.0
sg846
F-1.0
sg854
F0.0
sg862
F0.019
sg870
F5.0
sg878
g197
sg886
F72.0
sg894
F0.976614699331848
sg902
S'DEBCat'
p1833
sg911
S'HS Aur A'
p1834
sg920
F6.855130555555555
sg928
F-1.0
sg936
F-1.0
sg944
F130.0
sg952
F-1.0
sg960
F-1.0
sg971
F0.108780164037433
sg979
F-1.0
sg990
F10.036
sg998
g1813
sg1006
F-1.0
sg1014
F0.017
sg1022
F-1.0
sg1030
S'0039'
p1835
sg1039
F-1.0
sg1047
F-1.0
sg1055
F9.815377
sg1063
F-1.0
sg1071
F-1.0
sg1079
F-1.0
sg1090
F-1.0
sg1098
F70.0
ssS'BHMCatS0042P'
p1836
(dp1837
g12
F-1.0
sg20
S'2MASS J19071662+4639532  B'
p1838
sg29
F-1.0
sg37
F2.3
sg45
I42
sg53
F3700.0
sg61
F0.086
sg69
F-1.0
sg77
F0.043
sg85
F0.525
sg93
F-1.0
sg101
F0.523
sg109
S'2MASS J19071662+4639532'
p1839
sg118
F-1.0
sg126
F46.66478055555555
sg134
g135
sg143
F0.059
sg151
F0.052
sg159
S'K5V'
p1840
sg161
(lp1841
g163
asg347
S'M0V'
p1842
sg356
S'EkCat'
p1843
sg365
F4.718
sg373
F5.1
sg381
S'181'
p1844
sg383
(dp1845
g385
(dp1846
g394
F3.0
sg402
F1.0
sg410
F0.0
sg418
F0.0
sg426
F1.0
sg434
F0.0
sg442
S"'early mars'"
p1847
sg451
F6.0
sg459
F0.0
sg467
F1.000001
sg475
F0.01
sg483
F1.0
sg491
F0.0
sg499
F0.8
sg507
F10.0
sg515
F1.000001
sg523
F30.0
sg531
F1.5
sg539
F44.0
sg547
F0.0
sg555
F1.0
sg563
F30.0
sg571
S"'maximum greenhouse'"
p1848
sg580
F0.3
sg588
F5.5e+39
sg596
F0.01
sg604
F1.5
sg612
F2.0
sg620
F3.0
sg628
S'PARSEC'
p1849
sg637
S'PARSEC'
p1850
sg646
F1.0
sg654
F1.0
sg662
F5.5e+39
sg670
g671
sg679
F0.1
sg687
S'BHMCatS0042P'
p1851
sg696
g697
sg705
F3.0
sg713
S'2MASS J19071662+4639532'
p1852
sg722
S"'recent venus'"
p1853
sg731
S"'runaway greenhouse'"
p1854
sg740
F1.0
sg748
g749
sg757
F0.01
sg765
F0.3
sssg773
F4.666
sg781
g3
(g784
S'\x06o\xaej\xbe\xe6\x16@'
p1855
tp1856
Rp1857
sg797
S'2008ApJ...687.1253D;'
p1858
sg806
F0.68
sg814
F0.634
sg822
F-1.0
sg830
F4150.0
sg838
F89.02
sg846
F-1.0
sg854
F0.0
sg862
F0.01
sg870
F20.0
sg878
g197
sg886
F-1.0
sg894
F0.769117647058823
sg902
g903
sg911
S'2MASS J19071662+4639532  A'
p1859
sg920
F19.121283333333334
sg928
F-1.0
sg936
F-1.0
sg944
F230.0
sg952
F-1.0
sg960
g3
(g784
S'\xfe\xfa\xfe\t"\xc8\x02@'
p1860
tp1861
Rp1862
sg971
F0.0862514522727273
sg979
g3
(g784
S'~\xd3\xa5\x90\xc1\xd2\x14@'
p1863
tp1864
Rp1865
sg990
F14.37
sg998
g1836
sg1006
F-1.0
sg1014
F0.006
sg1022
F2.0
sg1030
S'0042'
p1866
sg1039
F-1.0
sg1047
F-1.0
sg1055
F8.429441
sg1063
F5.6
sg1071
F-1.0
sg1079
g3
(g784
S')\x06X\x95\xac[\x00@'
p1867
tp1868
Rp1869
sg1090
F-1.0
sg1098
F-1.0
ssS'BHMCatS0038P'
p1870
(dp1871
g12
F-1.0
sg20
S'RW Lac B'
p1872
sg29
F-1.0
sg37
F-1.0
sg45
I38
sg53
F5560.0
sg61
F0.004
sg69
F-1.0
sg77
F0.004
sg85
F0.964
sg93
F-1.0
sg101
F0.87
sg109
S'RW Lac'
p1873
sg118
F-1.0
sg126
F49.65765833333333
sg134
g135
sg143
F0.003
sg151
F0.004
sg159
S'G5V'
p1874
sg161
(lp1875
g163
asg347
S'G7V'
p1876
sg356
S'EkCat'
p1877
sg365
F4.409
sg373
F-1.0
sg381
S'239'
p1878
sg383
(dp1879
g385
(dp1880
g394
F3.0
sg402
F1.0
sg410
F0.0
sg418
F0.0
sg426
F1.0
sg434
F0.0
sg442
S"'early mars'"
p1881
sg451
F6.0
sg459
F0.0
sg467
F1.000001
sg475
F0.01
sg483
F1.0
sg491
F0.0
sg499
F0.8
sg507
F10.0
sg515
F1.000001
sg523
F30.0
sg531
F1.5
sg539
F44.0
sg547
F0.0
sg555
F1.0
sg563
F30.0
sg571
S"'maximum greenhouse'"
p1882
sg580
F0.3
sg588
F5.5e+39
sg596
F0.01
sg604
F1.5
sg612
F2.0
sg620
F3.0
sg628
S'PARSEC'
p1883
sg637
S'PARSEC'
p1884
sg646
F1.0
sg654
F1.0
sg662
F5.5e+39
sg670
g671
sg679
F0.1
sg687
S'BHMCatS0038P'
p1885
sg696
g697
sg705
F3.0
sg713
S'RW Lac'
p1886
sg722
S"'recent venus'"
p1887
sg731
S"'runaway greenhouse'"
p1888
sg740
F1.0
sg748
g749
sg757
F0.01
sg765
F0.3
sssg773
F4.257
sg781
g3
(g784
S'x\xc1G\x89\xde\xfd=@'
p1889
tp1890
Rp1891
sg797
S'2005AJ....130.2838L;'
p1892
sg806
F0.928
sg814
F1.186
sg822
F-1.0
sg830
F5760.0
sg838
F89.49
sg846
F-1.0
sg854
F0.01
sg862
F0.006
sg870
F10.0
sg878
g197
sg886
F150.0
sg894
F0.9375
sg902
S'DEBCat'
p1893
sg911
S'RW Lac A'
p1894
sg920
F22.749194444444445
sg928
F-1.0
sg936
F-1.0
sg944
F190.0
sg952
F-1.0
sg960
F-1.0
sg971
F0.112550464973262
sg979
F-1.0
sg990
F10.789
sg998
g1870
sg1006
F-1.0
sg1014
F0.004
sg1022
F2.0
sg1030
S'0038'
p1895
sg1039
F-1.0
sg1047
F-1.0
sg1055
F10.3692046
sg1063
F2.0
sg1071
F-1.0
sg1079
g3
(g784
S'x\xc1G\x89\xde\xfd=@'
p1896
tp1897
Rp1898
sg1090
F-1.0
sg1098
F100.0
ssS'BHMCatS0040P'
p1899
(dp1900
g12
F-1.0
sg20
S'TV Cet B'
p1901
sg29
F-1.0
sg37
F-1.0
sg45
I40
sg53
F6575.0
sg61
F0.019
sg69
F-1.0
sg77
F0.02
sg85
F1.21
sg93
F-1.0
sg101
F1.23
sg109
S'TV Cet'
p1902
sg118
F-1.0
sg126
F2.7545555555555556
sg134
g135
sg143
F0.02
sg151
F0.01
sg159
S'F2V'
p1903
sg161
(lp1904
g163
asg347
S'F5V'
p1905
sg356
S'EkCat'
p1906
sg365
F4.362
sg373
F-1.0
sg381
S'27'
p1907
sg383
(dp1908
g385
(dp1909
g394
F3.0
sg402
F1.0
sg410
F0.0
sg418
F0.0
sg426
F1.0
sg434
F0.0
sg442
S"'early mars'"
p1910
sg451
F6.0
sg459
F0.0
sg467
F1.000001
sg475
F0.01
sg483
F1.0
sg491
F0.0
sg499
F0.8
sg507
F10.0
sg515
F1.000001
sg523
F30.0
sg531
F1.5
sg539
F44.0
sg547
F0.0
sg555
F1.0
sg563
F30.0
sg571
S"'maximum greenhouse'"
p1911
sg580
F0.3
sg588
F5.5e+39
sg596
F0.01
sg604
F1.5
sg612
F2.0
sg620
F3.0
sg628
S'PARSEC'
p1912
sg637
S'PARSEC'
p1913
sg646
F1.0
sg654
F1.0
sg662
F5.5e+39
sg670
g671
sg679
F0.1
sg687
S'BHMCatS0040P'
p1914
sg696
g697
sg705
F3.0
sg713
S'TV Cet'
p1915
sg722
S"'recent venus'"
p1916
sg731
S"'runaway greenhouse'"
p1917
sg740
F1.0
sg748
g749
sg757
F0.01
sg765
F0.3
sssg773
F4.231
sg781
F-1.0
sg797
S'2010NewA...15..356B;'
p1918
sg806
F1.34
sg814
F1.47
sg822
F-1.0
sg830
F6902.0
sg838
F90.38
sg846
F-1.0
sg854
F0.04
sg862
F0.05
sg870
F6.0
sg878
g197
sg886
F150.0
sg894
F0.917910447761194
sg902
g903
sg911
S'TV Cet A'
p1919
sg920
F3.243475
sg928
F-1.0
sg936
F-1.0
sg944
F144.0
sg952
F-1.0
sg960
F-1.0
sg971
F0.11706551671123
sg979
F-1.0
sg990
F8.6
sg998
g1899
sg1006
F-1.0
sg1014
F0.05
sg1022
F-1.0
sg1030
S'0040'
p1920
sg1039
F-1.0
sg1047
F-1.0
sg1055
F9.103291
sg1063
F-1.0
sg1071
F-1.0
sg1079
F-1.0
sg1090
F-1.0
sg1098
F150.0
ssS'BHMCatS0029P'
p1921
(dp1922
g12
F-1.0
sg20
S'AI Phe B'
p1923
sg29
F-1.0
sg37
F1.0
sg45
I29
sg53
F5010.0
sg61
F0.012
sg69
F-1.0
sg77
F0.048
sg85
F1.816
sg93
F-1.0
sg101
F1.195
sg109
S'AI Phe'
p1924
sg118
F-1.0
sg126
F-45.73441944444444
sg134
g135
sg143
F0.014
sg151
F0.024
sg159
S'F7V'
p1925
sg161
(lp1926
g163
asg347
S'K0IV'
p1927
sg356
S'EkCat'
p1928
sg365
F3.997
sg373
F4.0
sg381
g1283
sg383
(dp1929
g385
(dp1930
g394
F3.0
sg402
F1.0
sg410
F0.0
sg418
F0.0
sg426
F1.0
sg434
F0.0
sg442
S"'early mars'"
p1931
sg451
F6.0
sg459
F0.0
sg467
F1.000001
sg475
F0.01
sg483
F1.0
sg491
F0.0
sg499
F0.8
sg507
F10.0
sg515
F1.000001
sg523
F30.0
sg531
F1.5
sg539
F44.0
sg547
F0.0
sg555
F1.0
sg563
F30.0
sg571
S"'maximum greenhouse'"
p1932
sg580
F0.3
sg588
F5.5e+39
sg596
F0.01
sg604
F1.5
sg612
F2.0
sg620
F3.0
sg628
S'PARSEC'
p1933
sg637
S'PARSEC'
p1934
sg646
F1.0
sg654
F1.0
sg662
F5.5e+39
sg670
g671
sg679
F0.1
sg687
S'BHMCatS0029P'
p1935
sg696
g697
sg705
F3.0
sg713
S'AI Phe'
p1936
sg722
S"'recent venus'"
p1937
sg731
S"'runaway greenhouse'"
p1938
sg740
F1.0
sg748
g749
sg757
F0.01
sg765
F0.3
sssg773
F3.596
sg781
g3
(g784
S'\x8e\xb6x\\\xa2\xb08@'
p1939
tp1940
Rp1941
sg797
S'1988A&A...196..128A;'
p1942
sg806
F1.236
sg814
F2.93
sg822
F-1.0
sg830
F6310.0
sg838
F88.45
sg846
F-1.0
sg854
F0.186
sg862
F0.005
sg870
F6.0
sg878
g197
sg886
F120.0
sg894
F0.966828478964401
sg902
g903
sg911
S'AI Phe A'
p1943
sg920
F1.1594972222222222
sg928
F-1.0
sg936
F-1.0
sg944
F162.0
sg952
F-1.0
sg960
g3
(g784
S'\x9c\xae\xf4\x92?\xf4\x16@'
p1944
tp1945
Rp1946
sg971
F0.222494302139037
sg979
g3
(g784
S'\x9c\xae\xf4\x92?\xf46@'
p1947
tp1948
Rp1949
sg990
F8.607
sg998
g1921
sg1006
F-1.0
sg1014
F0.004
sg1022
F1.0
sg1030
S'0029'
p1950
sg1039
F-1.0
sg1047
F-1.0
sg1055
F24.592325
sg1063
F6.0
sg1071
F-1.0
sg1079
g3
(g784
S'_$\xfb\x92\xc1u\x10@'
p1951
tp1952
Rp1953
sg1090
F-1.0
sg1098
F150.0
ssS'BHMCatS0013V'
p1954
(dp1955
g12
F0.0
sg20
S'NICHE-005 B'
p1956
sg29
F-2.0
sg37
F-2.0
sg45
I13
sg53
F-2.0
sg61
F-2.0
sg69
F-2.0
sg77
F0.0
sg85
F-2.0
sg93
F-2.0
sg101
F1.0
sg109
S'NICHE-005'
p1957
sg118
g3
(g784
S'0\xa8\x1bgj\x94\x8f?'
p1958
tp1959
Rp1960
sg126
F-2.0
sg134
g1411
sg143
F-2.0
sg151
F0.0
sg159
g197
sg161
(lp1961
g163
asg347
g197
sg356
S'NICHE'
p1962
sg365
F-2.0
sg373
F-2.0
sg381
g1714
sg383
(dp1963
g385
(dp1964
g394
F3.0
sg402
F1.0
sg410
F0.0
sg418
F0.0
sg426
F1.0
sg434
F0.0
sg442
S"'early mars'"
p1965
sg451
F6.0
sg459
F0.0
sg467
F1.000001
sg475
F0.01
sg483
F1.0
sg491
F0.0
sg499
F0.8
sg507
F10.0
sg515
F1.000001
sg523
F30.0
sg531
F1.5
sg539
F44.0
sg547
F0.0
sg555
F1.0
sg563
F30.0
sg571
S"'maximum greenhouse'"
p1966
sg580
F0.3
sg588
F5.5e+39
sg596
F0.01
sg604
F1.5
sg612
F2.0
sg620
F3.0
sg628
S'PARSEC'
p1967
sg637
S'PARSEC'
p1968
sg646
F1.0
sg654
F1.0
sg662
F5.5e+39
sg670
g671
sg679
F0.1
sg687
S'BHMCatS0013V'
p1969
sg696
g697
sg705
F3.0
sg713
S'NICHE-005'
p1970
sg722
S"'recent venus'"
p1971
sg731
S"'runaway greenhouse'"
p1972
sg740
F1.0
sg748
g749
sg757
F0.01
sg765
F0.3
sssg773
F-2.0
sg781
F-1.0
sg797
g197
sg806
F1.0
sg814
F-2.0
sg822
F-2.0
sg830
F-2.0
sg838
F-2.0
sg846
F-2.0
sg854
F0.5
sg862
F0.0
sg870
F-1.0
sg878
g197
sg886
F-2.0
sg894
F1.0
sg902
g903
sg911
S'NICHE-005 A'
p1973
sg920
F-2.0
sg928
F-1.0
sg936
F-2.0
sg944
F-1.0
sg952
F-1.0
sg960
F-1.0
sg971
F0.377906198822968
sg979
F-1.0
sg990
F-2.0
sg998
g1954
sg1006
F-2.0
sg1014
F0.0
sg1022
F-2.0
sg1030
S'0013'
p1974
sg1039
F-1.0
sg1047
F-2.0
sg1055
F60.0
sg1063
F-2.0
sg1071
F-1.0
sg1079
F-1.0
sg1090
F-1.0
sg1098
F-2.0
ssS'Fields'
p1975
(lp1976
g45
ag1030
ag134
ag998
ag356
ag381
ag109
ag911
ag806
ag862
ag814
ag77
ag830
ag1098
ag773
ag143
ag1063
ag1022
ag781
ag1079
ag936
ag822
ag159
ag20
ag101
ag1014
ag85
ag151
ag53
ag886
ag365
ag61
ag373
ag37
ag979
ag960
ag846
ag69
ag347
ag894
ag1055
ag971
ag854
ag952
ag118
ag12
ag928
ag1071
ag1039
ag838
ag1047
ag93
ag990
ag29
ag944
ag870
ag1090
ag1006
ag920
ag126
ag878
ag902
ag797
asS'BHMCatS0017V'
p1977
(dp1978
g12
F0.0
sg20
S'NICHE-009 B'
p1979
sg29
F-2.0
sg37
F-2.0
sg45
I17
sg53
F-2.0
sg61
F-2.0
sg69
F-2.0
sg77
F0.0
sg85
F-2.0
sg93
F-2.0
sg101
F0.55
sg109
S'NICHE-009'
p1980
sg118
g3
(g784
S'0\xa8\x1bgj\x94\x8f?'
p1981
tp1982
Rp1983
sg126
F-2.0
sg134
g1411
sg143
F-2.0
sg151
F0.0
sg159
g197
sg161
(lp1984
g163
asg347
g197
sg356
S'NICHE'
p1985
sg365
F-2.0
sg373
F-2.0
sg381
g1283
sg383
(dp1986
g385
(dp1987
g394
F3.0
sg402
F1.0
sg410
F0.0
sg418
F0.0
sg426
F1.0
sg434
F0.0
sg442
S"'early mars'"
p1988
sg451
F6.0
sg459
F0.0
sg467
F1.000001
sg475
F0.01
sg483
F1.0
sg491
F0.0
sg499
F0.8
sg507
F10.0
sg515
F1.000001
sg523
F30.0
sg531
F1.5
sg539
F44.0
sg547
F0.0
sg555
F1.0
sg563
F30.0
sg571
S"'maximum greenhouse'"
p1989
sg580
F0.3
sg588
F5.5e+39
sg596
F0.01
sg604
F1.5
sg612
F2.0
sg620
F3.0
sg628
S'PARSEC'
p1990
sg637
S'PARSEC'
p1991
sg646
F1.0
sg654
F1.0
sg662
F5.5e+39
sg670
g671
sg679
F0.1
sg687
S'BHMCatS0017V'
p1992
sg696
g697
sg705
F3.0
sg713
S'NICHE-009'
p1993
sg722
S"'recent venus'"
p1994
sg731
S"'runaway greenhouse'"
p1995
sg740
F1.0
sg748
g749
sg757
F0.01
sg765
F0.3
sssg773
F-2.0
sg781
F-1.0
sg797
g197
sg806
F0.85
sg814
F-2.0
sg822
F-2.0
sg830
F-2.0
sg838
F-2.0
sg846
F-2.0
sg854
F0.3
sg862
F0.0
sg870
F-1.0
sg878
g197
sg886
F-2.0
sg894
F0.647058823529412
sg902
g903
sg911
S'NICHE-009 A'
p1996
sg920
F-2.0
sg928
F-1.0
sg936
F-2.0
sg944
F-1.0
sg952
F-1.0
sg960
F-1.0
sg971
F0.133160893790228
sg979
F-1.0
sg990
F-2.0
sg998
g1977
sg1006
F-2.0
sg1014
F0.0
sg1022
F-2.0
sg1030
S'0017'
p1997
sg1039
F-1.0
sg1047
F-2.0
sg1055
F15.0
sg1063
F-2.0
sg1071
F-1.0
sg1079
F-1.0
sg1090
F-1.0
sg1098
F-2.0
ssS'BHMCatS0015V'
p1998
(dp1999
g12
F0.0
sg20
S'NICHE-007 B'
p2000
sg29
F-2.0
sg37
F-2.0
sg45
I15
sg53
F-2.0
sg61
F-2.0
sg69
F-2.0
sg77
F0.0
sg85
F-2.0
sg93
F-2.0
sg101
F0.85
sg109
S'NICHE-007'
p2001
sg118
g3
(g784
S'0\xa8\x1bgj\x94\x8f?'
p2002
tp2003
Rp2004
sg126
F-2.0
sg134
g1411
sg143
F-2.0
sg151
F0.0
sg159
g197
sg161
(lp2005
g163
asg347
g197
sg356
S'NICHE'
p2006
sg365
F-2.0
sg373
F-2.0
sg381
S'7'
p2007
sg383
(dp2008
g385
(dp2009
g394
F3.0
sg402
F1.0
sg410
F0.0
sg418
F0.0
sg426
F1.0
sg434
F0.0
sg442
S"'early mars'"
p2010
sg451
F6.0
sg459
F0.0
sg467
F1.000001
sg475
F0.01
sg483
F1.0
sg491
F0.0
sg499
F0.8
sg507
F10.0
sg515
F1.000001
sg523
F30.0
sg531
F1.5
sg539
F44.0
sg547
F0.0
sg555
F1.0
sg563
F30.0
sg571
S"'maximum greenhouse'"
p2011
sg580
F0.3
sg588
F5.5e+39
sg596
F0.01
sg604
F1.5
sg612
F2.0
sg620
F3.0
sg628
S'PARSEC'
p2012
sg637
S'PARSEC'
p2013
sg646
F1.0
sg654
F1.0
sg662
F5.5e+39
sg670
g671
sg679
F0.1
sg687
S'BHMCatS0015V'
p2014
sg696
g697
sg705
F3.0
sg713
S'NICHE-007'
p2015
sg722
S"'recent venus'"
p2016
sg731
S"'runaway greenhouse'"
p2017
sg740
F1.0
sg748
g749
sg757
F0.01
sg765
F0.3
sssg773
F-2.0
sg781
F-1.0
sg797
g197
sg806
F0.85
sg814
F-2.0
sg822
F-2.0
sg830
F-2.0
sg838
F-2.0
sg846
F-2.0
sg854
F0.2
sg862
F0.0
sg870
F-1.0
sg878
g197
sg886
F-2.0
sg894
F1.0
sg902
g903
sg911
S'NICHE-007 A'
p2018
sg920
F-2.0
sg928
F-1.0
sg936
F-2.0
sg944
F-1.0
sg952
F-1.0
sg960
F-1.0
sg971
F0.12242693814828
sg979
F-1.0
sg990
F-2.0
sg998
g1998
sg1006
F-2.0
sg1014
F0.0
sg1022
F-2.0
sg1030
S'0015'
p2019
sg1039
F-1.0
sg1047
F-2.0
sg1055
F12.0
sg1063
F-2.0
sg1071
F-1.0
sg1079
F-1.0
sg1090
F-1.0
sg1098
F-2.0
ssS'BHMCatS0003D'
p2020
(dp2021
g12
F-0.603
sg20
S'Kepler-35 B'
p2022
sg29
F0.123
sg37
F-1.0
sg45
I3
sg53
F5202.0
sg61
F-1.0
sg69
F-1.0
sg77
F0.002
sg85
F0.786
sg93
F12.0
sg101
F0.809
sg109
S'Kepler-35'
p2023
sg118
g3
(g784
S'0ts\xcf\xf9\xe6p?'
p2024
tp2025
Rp2026
sg126
F46.68976111111111
sg134
g1278
sg143
F-1.0
sg151
F0.002
sg159
S'G type'
p2027
sg161
(lp2028
(dp2029
g171
S'BHMCatP0003'
p2030
sg180
F6.359465523592647
sg188
F0.042
sg196
S'BHMCatS003D'
p2031
sg205
F0.005
sg213
g1329
sg222
S'2012ApJ...758...87O'
p2032
sg231
F8.16923183173756
sg239
S'0003'
p2033
sg248
F131.458
sg256
F0.00102
sg264
S'Kepler-35'
p2034
sg273
F40.3826060748133
sg281
F-1.0
sg289
F0.60347
sg297
F0.085
sg305
F0.0
sg313
F1.697
sg321
S'Kepler-35b'
p2035
sg330
g1288
sg339
F0.15710061214879925
sasg347
S'G type'
p2036
sg356
S'KIC'
p2037
sg365
F-1.0
sg373
F-1.0
sg381
S'9837578'
p2038
sg383
(dp2039
S'BHMCatP0003'
p2040
(dp2041
g394
F3.0
sg402
F1.0
sg410
F0.0
sg418
F0.0
sg426
F10.0
sg434
F-0.603
sg442
S"'early mars'"
p2042
sg451
F6.0
sg459
F0.0
sg467
F8.16923183173756
sg475
F0.01
sg483
F1.0
sg491
F-0.603
sg499
F0.8
sg507
F10.0
sg515
F40.3826060748133
sg523
F30.0
sg531
F1.5
sg539
F44.0
sg547
F0.0
sg555
F1.0
sg563
F30.0
sg571
S"'maximum greenhouse'"
p2043
sg580
F0.3
sg588
F5.5e+39
sg596
F0.01
sg604
F1.5
sg612
F2.0
sg620
F3.0
sg628
S'PARSEC'
p2044
sg637
S'PARSEC'
p2045
sg646
F1.0
sg654
F10.0
sg662
F5.5e+39
sg670
S'BHMCatP0003'
p2046
sg679
F0.1
sg687
S'BHMCatS0003D'
p2047
sg696
S'Kepler-35b'
p2048
sg705
F3.0
sg713
S'Kepler-35'
p2049
sg722
S"'recent venus'"
p2050
sg731
S"'runaway greenhouse'"
p2051
sg740
F10.0
sg748
S"'Earth'"
p2052
sg757
F0.01
sg765
F0.3
sssg773
F4.756
sg781
F-1.0
sg797
S'2012Natur.481..475W; 2012yCatp038048101W;'
p2053
sg806
F0.888
sg814
F1.028
sg822
F0.1
sg830
F5606.0
sg838
F90.4238
sg846
F-1.0
sg854
F0.1421
sg862
F0.005
sg870
F-1.0
sg878
S'BHMCatP0003;'
p2054
sg886
F100.0
sg894
F0.911036036036036
sg902
g903
sg911
S'Kepler-35 A'
p2055
sg920
F19.633131944444443
sg928
F-1.0
sg936
F20.8
sg944
F-1.0
sg952
F86.276
sg960
F-1.0
sg971
F0.1762
sg979
F-1.0
sg990
F15.726
sg998
g2020
sg1006
F-1.0
sg1014
F0.004
sg1022
F-1.0
sg1030
S'0003'
p2056
sg1039
F-0.603
sg1047
F8.0
sg1055
F20.734
sg1063
F-1.0
sg1071
g3
(g784
S'0ts\xcf\xf9\xe6p?'
p2057
tp2058
Rp2059
sg1079
F-1.0
sg1090
g3
(g784
S'\x9d{Ss\x17\xef\x99@'
p2060
tp2061
Rp2062
sg1098
F150.0
ssS'FieldsText'
p2063
(dp2064
g12
g3
(g4
(S'S10'
p2065
I0
I1
tp2066
Rp2067
(I3
S'|'
p2068
NNNI10
I1
I0
tp2069
bS'[Fe/H]_fit'
p2070
tp2071
Rp2072
sg20
g3
(g4
(S'S10'
p2073
I0
I1
tp2074
Rp2075
(I3
S'|'
p2076
NNNI10
I1
I0
tp2077
bS'Star 2 Id.'
p2078
tp2079
Rp2080
sg29
g3
(g4
(S'S3'
p2081
I0
I1
tp2082
Rp2083
(I3
S'|'
p2084
NNNI3
I1
I0
tp2085
bS'B-V'
p2086
tp2087
Rp2088
sg37
g3
(g4
(S'S15'
p2089
I0
I1
tp2090
Rp2091
(I3
S'|'
p2092
NNNI15
I1
I0
tp2093
bS'v_2 sin i_2,err'
p2094
tp2095
Rp2096
sg45
g3
(g4
(S'S3'
p2097
I0
I1
tp2098
Rp2099
(I3
S'|'
p2100
NNNI3
I1
I0
tp2101
bS'No.'
p2102
tp2103
Rp2104
sg53
g3
(g4
(S'S3'
p2105
I0
I1
tp2106
Rp2107
(I3
S'|'
p2108
NNNI3
I1
I0
tp2109
bS'T_2'
p2110
tp2111
Rp2112
sg61
g3
(g4
(S'S11'
p2113
I0
I1
tp2114
Rp2115
(I3
S'|'
p2116
NNNI11
I1
I0
tp2117
bS'log g_2,err'
p2118
tp2119
Rp2120
sg69
g3
(g4
(S'S11'
p2121
I0
I1
tp2122
Rp2123
(I3
S'|'
p2124
NNNI11
I1
I0
tp2125
bS'P_rot,2,err'
p2126
tp2127
Rp2128
sg77
g3
(g4
(S'S7'
p2129
I0
I1
tp2130
Rp2131
(I3
S'|'
p2132
NNNI7
I1
I0
tp2133
bS'R_1,err'
p2134
tp2135
Rp2136
sg85
g3
(g4
(S'S3'
p2137
I0
I1
tp2138
Rp2139
(I3
S'|'
p2140
NNNI3
I1
I0
tp2141
bS'R_2'
p2142
tp2143
Rp2144
sg93
g3
(g4
(S'S8'
p2145
I0
I1
tp2146
Rp2147
(I3
S'|'
p2148
NNNI8
I1
I0
tp2149
bS'\\tau_max'
p2150
tp2151
Rp2152
sg101
g3
(g4
(S'S3'
p2153
I0
I1
tp2154
Rp2155
(I3
S'|'
p2156
NNNI3
I1
I0
tp2157
bS'M_2'
p2158
tp2159
Rp2160
sg109
g3
(g4
(S'S10'
p2161
I0
I1
tp2162
Rp2163
(I3
S'|'
p2164
NNNI10
I1
I0
tp2165
bS'System Id.'
p2166
tp2167
Rp2168
sg118
g3
(g4
(S'S5'
p2169
I0
I1
tp2170
Rp2171
(I3
S'|'
p2172
NNNI5
I1
I0
tp2173
bS'Z_fit'
p2174
tp2175
Rp2176
sg126
g3
(g4
(S'S3'
p2177
I0
I1
tp2178
Rp2179
(I3
S'|'
p2180
NNNI3
I1
I0
tp2181
bS'DEC'
p2182
tp2183
Rp2184
sg134
g3
(g4
(S'S4'
p2185
I0
I1
tp2186
Rp2187
(I3
S'|'
p2188
NNNI4
I1
I0
tp2189
bS'Type'
p2190
tp2191
Rp2192
sg143
g3
(g4
(S'S11'
p2193
I0
I1
tp2194
Rp2195
(I3
S'|'
p2196
NNNI11
I1
I0
tp2197
bS'log g_2,err'
p2198
tp2199
Rp2200
sg151
g3
(g4
(S'S7'
p2201
I0
I1
tp2202
Rp2203
(I3
S'|'
p2204
NNNI7
I1
I0
tp2205
bS'R_2,err'
p2206
tp2207
Rp2208
sg159
g3
(g4
(S'S10'
p2209
I0
I1
tp2210
Rp2211
(I3
S'|'
p2212
NNNI10
I1
I0
tp2213
bS'Sp. Type 1'
p2214
tp2215
Rp2216
sg347
g3
(g4
(S'S10'
p2217
I0
I1
tp2218
Rp2219
(I3
S'|'
p2220
NNNI10
I1
I0
tp2221
bS'Sp. Type 2'
p2222
tp2223
Rp2224
sg356
g3
(g4
(S'S11'
p2225
I0
I1
tp2226
Rp2227
(I3
S'|'
p2228
NNNI11
I1
I0
tp2229
bS'Source Cat.'
p2230
tp2231
Rp2232
sg365
g3
(g4
(S'S8'
p2233
I0
I1
tp2234
Rp2235
(I3
S'|'
p2236
NNNI8
I1
I0
tp2237
bS'log g_2 '
p2238
tp2239
Rp2240
sg373
g3
(g4
(S'S11'
p2241
I0
I1
tp2242
Rp2243
(I3
S'|'
p2244
NNNI11
I1
I0
tp2245
bS'v_2 sin i_2'
p2246
tp2247
Rp2248
sg381
g3
(g4
(S'S10'
p2249
I0
I1
tp2250
Rp2251
(I3
S'|'
p2252
NNNI10
I1
I0
tp2253
bS'Source Id.'
p2254
tp2255
Rp2256
sg773
g3
(g4
(S'S7'
p2257
I0
I1
tp2258
Rp2259
(I3
S'|'
p2260
NNNI7
I1
I0
tp2261
bS'log g_1'
p2262
tp2263
Rp2264
sg781
g3
(g4
(S'S9'
p2265
I0
I1
tp2266
Rp2267
(I3
S'|'
p2268
NNNI9
I1
I0
tp2269
bS'P_rot,v,1'
p2270
tp2271
Rp2272
sg797
g3
(g4
(S'S8'
p2273
I0
I1
tp2274
Rp2275
(I3
S'|'
p2276
NNNI8
I1
I0
tp2277
bS'ADS Link'
p2278
tp2279
Rp2280
sg806
g3
(g4
(S'S3'
p2281
I0
I1
tp2282
Rp2283
(I3
S'|'
p2284
NNNI3
I1
I0
tp2285
bS'M_1'
p2286
tp2287
Rp2288
sg814
g3
(g4
(S'S3'
p2289
I0
I1
tp2290
Rp2291
(I3
S'|'
p2292
NNNI3
I1
I0
tp2293
bS'R_1'
p2294
tp2295
Rp2296
sg822
g3
(g4
(S'S11'
p2297
I0
I1
tp2298
Rp2299
(I3
S'|'
p2300
NNNI11
I1
I0
tp2301
bS'P_rot,1,err'
p2302
tp2303
Rp2304
sg830
g3
(g4
(S'S3'
p2305
I0
I1
tp2306
Rp2307
(I3
S'|'
p2308
NNNI3
I1
I0
tp2309
bS'T_1'
p2310
tp2311
Rp2312
sg838
g3
(g4
(S'S5'
p2313
I0
I1
tp2314
Rp2315
(I3
S'|'
p2316
NNNI5
I1
I0
tp2317
bS'i_bin'
p2318
tp2319
Rp2320
sg846
g3
(g4
(S'S7'
p2321
I0
I1
tp2322
Rp2323
(I3
S'|'
p2324
NNNI7
I1
I0
tp2325
bS'P_rot,2'
p2326
tp2327
Rp2328
sg854
g3
(g4
(S'S5'
p2329
I0
I1
tp2330
Rp2331
(I3
S'|'
p2332
NNNI5
I1
I0
tp2333
bS'e_bin'
p2334
tp2335
Rp2336
sg862
g3
(g4
(S'S7'
p2337
I0
I1
tp2338
Rp2339
(I3
S'|'
p2340
NNNI7
I1
I0
tp2341
bS'M_1,err'
p2342
tp2343
Rp2344
sg870
g3
(g4
(S'S5'
p2345
I0
I1
tp2346
Rp2347
(I3
S'|'
p2348
NNNI5
I1
I0
tp2349
bS'd,err'
p2350
tp2351
Rp2352
sg878
g3
(g4
(S'S7'
p2353
I0
I1
tp2354
Rp2355
(I3
S'|'
p2356
NNNI7
I1
I0
tp2357
bS'Planets'
p2358
tp2359
Rp2360
sg886
g3
(g4
(S'S7'
p2361
I0
I1
tp2362
Rp2363
(I3
S'|'
p2364
NNNI7
I1
I0
tp2365
bS'T_2,err'
p2366
tp2367
Rp2368
sg894
g3
(g4
(S'S1'
p2369
I0
I1
tp2370
Rp2371
(I3
S'|'
p2372
NNNI1
I1
I0
tp2373
bS'q'
p2374
tp2375
Rp2376
sg902
g3
(g4
(S'S5'
p2377
I0
I1
tp2378
Rp2379
(I3
S'|'
p2380
NNNI5
I1
I0
tp2381
bS'Notes'
p2382
tp2383
Rp2384
sg911
g3
(g4
(S'S10'
p2385
I0
I1
tp2386
Rp2387
(I3
S'|'
p2388
NNNI10
I1
I0
tp2389
bS'Star 1 Id.'
p2390
tp2391
Rp2392
sg920
g3
(g4
(S'S2'
p2393
I0
I1
tp2394
Rp2395
(I3
S'|'
p2396
NNNI2
I1
I0
tp2397
bS'RA'
p2398
tp2399
Rp2400
sg928
g3
(g4
(S'S14'
p2401
I0
I1
tp2402
Rp2403
(I3
S'|'
p2404
NNNI14
I1
I0
tp2405
bS'[Fe/H]_fit,err'
p2406
tp2407
Rp2408
sg936
g3
(g4
(S'S7'
p2409
I0
I1
tp2410
Rp2411
(I3
S'|'
p2412
NNNI7
I1
I0
tp2413
bS'P_rot,1'
p2414
tp2415
Rp2416
sg944
g3
(g4
(S'S1'
p2417
I0
I1
tp2418
Rp2419
(I3
S'|'
p2420
NNNI1
I1
I0
tp2421
bS'd'
p2422
tp2423
Rp2424
sg952
g3
(g4
(S'S10'
p2425
I0
I1
tp2426
Rp2427
(I3
S'|'
p2428
NNNI10
I1
I0
tp2429
bS'\\omega_bin'
p2430
tp2431
Rp2432
sg960
g3
(g4
(S'S13'
p2433
I0
I1
tp2434
Rp2435
(I3
S'|'
p2436
NNNI13
I1
I0
tp2437
bS'P_rot,v,2,err'
p2438
tp2439
Rp2440
sg971
g3
(g4
(S'S5'
p2441
I0
I1
tp2442
Rp2443
(I3
S'|'
p2444
NNNI5
I1
I0
tp2445
bS'a_bin'
p2446
tp2447
Rp2448
sg979
g3
(g4
(S'S9'
p2449
I0
I1
tp2450
Rp2451
(I3
S'|'
p2452
NNNI9
I1
I0
tp2453
bS'P_rot,v,2'
p2454
tp2455
Rp2456
sg990
g3
(g4
(S'S1'
p2457
I0
I1
tp2458
Rp2459
(I3
S'|'
p2460
NNNI1
I1
I0
tp2461
bg1411
tp2462
Rp2463
sg998
g3
(g4
(S'S7'
p2464
I0
I1
tp2465
Rp2466
(I3
S'|'
p2467
NNNI7
I1
I0
tp2468
bS'Cat.Id.'
p2469
tp2470
Rp2471
sg1006
g3
(g4
(S'S3'
p2472
I0
I1
tp2473
Rp2474
(I3
S'|'
p2475
NNNI3
I1
I0
tp2476
bS'L_x'
p2477
tp2478
Rp2479
sg1014
g3
(g4
(S'S7'
p2480
I0
I1
tp2481
Rp2482
(I3
S'|'
p2483
NNNI7
I1
I0
tp2484
bS'M_2,err'
p2485
tp2486
Rp2487
sg1022
g3
(g4
(S'S15'
p2488
I0
I1
tp2489
Rp2490
(I3
S'|'
p2491
NNNI15
I1
I0
tp2492
bS'v_1 sin i_1,err'
p2493
tp2494
Rp2495
sg1030
g3
(g4
(S'S3'
p2496
I0
I1
tp2497
Rp2498
(I3
S'|'
p2499
NNNI3
I1
I0
tp2500
bS'No.'
p2501
tp2502
Rp2503
sg1039
g3
(g4
(S'S10'
p2504
I0
I1
tp2505
Rp2506
(I3
S'|'
p2507
NNNI10
I1
I0
tp2508
bS'[Fe/H]_obs'
p2509
tp2510
Rp2511
sg1047
g3
(g4
(S'S8'
p2512
I0
I1
tp2513
Rp2514
(I3
S'|'
p2515
NNNI8
I1
I0
tp2516
bS'\\tau_min'
p2517
tp2518
Rp2519
sg1055
g3
(g4
(S'S5'
p2520
I0
I1
tp2521
Rp2522
(I3
S'|'
p2523
NNNI5
I1
I0
tp2524
bS'P_bin'
p2525
tp2526
Rp2527
sg1063
g3
(g4
(S'S11'
p2528
I0
I1
tp2529
Rp2530
(I3
S'|'
p2531
NNNI11
I1
I0
tp2532
bS'v_1 sin i,1'
p2533
tp2534
Rp2535
sg1071
g3
(g4
(S'S5'
p2536
I0
I1
tp2537
Rp2538
(I3
S'|'
p2539
NNNI5
I1
I0
tp2540
bS'Z_obs'
p2541
tp2542
Rp2543
sg1079
g3
(g4
(S'S13'
p2544
I0
I1
tp2545
Rp2546
(I3
S'|'
p2547
NNNI13
I1
I0
tp2548
bS'P_rot,v,1,err'
p2549
tp2550
Rp2551
sg1090
g3
(g4
(S'S5'
p2552
I0
I1
tp2553
Rp2554
(I3
S'|'
p2555
NNNI5
I1
I0
tp2556
bS'd_mod'
p2557
tp2558
Rp2559
sg1098
g3
(g4
(S'S7'
p2560
I0
I1
tp2561
Rp2562
(I3
S'|'
p2563
NNNI7
I1
I0
tp2564
bS'T_1,err'
p2565
tp2566
Rp2567
ssS'BHMCatS0048P'
p2568
(dp2569
g12
F-1.0
sg20
S'FM Leo B'
p2570
sg29
F-1.0
sg37
F-1.0
sg45
I48
sg53
F6190.0
sg61
F0.028
sg69
F-1.0
sg77
F0.043
sg85
F1.511
sg93
F-1.0
sg101
F1.287
sg109
S'FM Leo'
p2571
sg118
F-1.0
sg126
F0.3480111111111111
sg134
g135
sg143
F0.023
sg151
F0.049
sg159
S'F9V'
p2572
sg161
(lp2573
g163
asg347
S'F9V'
p2574
sg356
S'EkCat'
p2575
sg365
F4.189
sg373
F-1.0
sg381
S'114'
p2576
sg383
(dp2577
g385
(dp2578
g394
F3.0
sg402
F1.0
sg410
F0.0
sg418
F0.0
sg426
F1.0
sg434
F0.0
sg442
S"'early mars'"
p2579
sg451
F6.0
sg459
F0.0
sg467
F1.000001
sg475
F0.01
sg483
F1.0
sg491
F0.0
sg499
F0.8
sg507
F10.0
sg515
F1.000001
sg523
F30.0
sg531
F1.5
sg539
F44.0
sg547
F0.0
sg555
F1.0
sg563
F30.0
sg571
S"'maximum greenhouse'"
p2580
sg580
F0.3
sg588
F5.5e+39
sg596
F0.01
sg604
F1.5
sg612
F2.0
sg620
F3.0
sg628
S'PARSEC'
p2581
sg637
S'PARSEC'
p2582
sg646
F1.0
sg654
F1.0
sg662
F5.5e+39
sg670
g671
sg679
F0.1
sg687
S'BHMCatS0048P'
p2583
sg696
g697
sg705
F3.0
sg713
S'FM Leo'
p2584
sg722
S"'recent venus'"
p2585
sg731
S"'runaway greenhouse'"
p2586
sg740
F1.0
sg748
g749
sg757
F0.01
sg765
F0.3
sssg773
F4.124
sg781
F-1.0
sg797
S'2010MNRAS.402.2424R;'
p2587
sg806
F1.318
sg814
F1.648
sg822
F-1.0
sg830
F6316.0
sg838
F87.98
sg846
F-1.0
sg854
F0.0
sg862
F0.007
sg870
F25.5
sg878
g197
sg886
F211.0
sg894
F0.976479514415781
sg902
g903
sg911
S'FM Leo A'
p2588
sg920
F11.212525
sg928
F-1.0
sg936
F-1.0
sg944
F130.4
sg952
F-1.0
sg960
F-1.0
sg971
F0.0960263065508021
sg979
F-1.0
sg990
F8.453
sg998
g2568
sg1006
F-1.0
sg1014
F0.007
sg1022
F-1.0
sg1030
S'0048'
p2589
sg1039
F-1.0
sg1047
F-1.0
sg1055
F6.728606
sg1063
F-1.0
sg1071
F-1.0
sg1079
F-1.0
sg1090
F-1.0
sg1098
F240.0
ssS'BHMCatS0049P'
p2590
(dp2591
g12
F-1.0
sg20
S'BW Aqr B'
p2592
sg29
F-1.0
sg37
F0.8
sg45
I49
sg53
F6450.0
sg61
F0.022
sg69
F-1.0
sg77
F0.04
sg85
F1.79
sg93
F-1.0
sg101
F1.39
sg109
S'BW Aqr'
p2593
sg118
F-1.0
sg126
F-14.667716666666667
sg134
g135
sg143
F0.019
sg151
F0.04
sg159
S'F7IV'
p2594
sg161
(lp2595
g163
asg347
S'F8IV'
p2596
sg356
S'EkCat'
p2597
sg365
F4.075
sg373
F13.5
sg381
S'236'
p2598
sg383
(dp2599
g385
(dp2600
g394
F3.0
sg402
F1.0
sg410
F0.0
sg418
F0.0
sg426
F1.0
sg434
F0.0
sg442
S"'early mars'"
p2601
sg451
F6.0
sg459
F0.0
sg467
F1.000001
sg475
F0.01
sg483
F1.0
sg491
F0.0
sg499
F0.8
sg507
F10.0
sg515
F1.000001
sg523
F30.0
sg531
F1.5
sg539
F44.0
sg547
F0.0
sg555
F1.0
sg563
F30.0
sg571
S"'maximum greenhouse'"
p2602
sg580
F0.3
sg588
F5.5e+39
sg596
F0.01
sg604
F1.5
sg612
F2.0
sg620
F3.0
sg628
S'PARSEC'
p2603
sg637
S'PARSEC'
p2604
sg646
F1.0
sg654
F1.0
sg662
F5.5e+39
sg670
g671
sg679
F0.1
sg687
S'BHMCatS0049P'
p2605
sg696
g697
sg705
F3.0
sg713
S'BW Aqr'
p2606
sg722
S"'recent venus'"
p2607
sg731
S"'runaway greenhouse'"
p2608
sg740
F1.0
sg748
g749
sg757
F0.01
sg765
F0.3
sssg773
F3.981
sg781
g3
(g784
S'\xae\xc6\x02\xb8\xb0\xb2%@'
p2609
tp2610
Rp2611
sg797
S'1991A&A...246..397C;'
p2612
sg806
F1.49
sg814
F2.06
sg822
F-1.0
sg830
F6350.0
sg838
F88.4
sg846
F-1.0
sg854
F0.178
sg862
F0.02
sg870
F15.0
sg878
g197
sg886
F100.0
sg894
F0.932885906040268
sg902
g903
sg911
S'BW Aqr A'
p2613
sg920
F22.387758333333334
sg928
F-1.0
sg936
F-1.0
sg944
F420.0
sg952
F-1.0
sg960
g3
(g784
S'\xd5\xc4EG\xa0l\xd9?'
p2614
tp2615
Rp2616
sg971
F0.0990984036096257
sg979
g3
(g784
S'\x98\x95+\x0b\x91\xd0\x1a@'
p2617
tp2618
Rp2619
sg990
F10.401
sg998
g2590
sg1006
F-1.0
sg1014
F0.02
sg1022
F1.3
sg1030
S'0049'
p2620
sg1039
F-1.0
sg1047
F-1.0
sg1055
F6.719712
sg1063
F9.6
sg1071
F-1.0
sg1079
g3
(g784
S'=WX\xc7\x94\x81\xf7?'
p2621
tp2622
Rp2623
sg1090
F-1.0
sg1098
F100.0
ssS'BHMCatS0019V'
p2624
(dp2625
g12
F0.0
sg20
S'NICHE-011 B'
p2626
sg29
F-2.0
sg37
F-2.0
sg45
I19
sg53
F-2.0
sg61
F-2.0
sg69
F-2.0
sg77
F0.0
sg85
F-2.0
sg93
F-2.0
sg101
F0.55
sg109
S'NICHE-011'
p2627
sg118
g3
(g784
S'0\xa8\x1bgj\x94\x8f?'
p2628
tp2629
Rp2630
sg126
F-2.0
sg134
g1411
sg143
F-2.0
sg151
F0.0
sg159
g197
sg161
(lp2631
g163
asg347
g197
sg356
S'NICHE'
p2632
sg365
F-2.0
sg373
F-2.0
sg381
S'11'
p2633
sg383
(dp2634
g385
(dp2635
g394
F3.0
sg402
F1.0
sg410
F0.0
sg418
F0.0
sg426
F1.0
sg434
F0.0
sg442
S"'early mars'"
p2636
sg451
F6.0
sg459
F0.0
sg467
F1.000001
sg475
F0.01
sg483
F1.0
sg491
F0.0
sg499
F0.8
sg507
F10.0
sg515
F1.000001
sg523
F30.0
sg531
F1.5
sg539
F44.0
sg547
F0.0
sg555
F1.0
sg563
F30.0
sg571
S"'maximum greenhouse'"
p2637
sg580
F0.3
sg588
F5.5e+39
sg596
F0.01
sg604
F1.5
sg612
F2.0
sg620
F3.0
sg628
S'PARSEC'
p2638
sg637
S'PARSEC'
p2639
sg646
F1.0
sg654
F1.0
sg662
F5.5e+39
sg670
g671
sg679
F0.1
sg687
S'BHMCatS0019V'
p2640
sg696
g697
sg705
F3.0
sg713
S'NICHE-011'
p2641
sg722
S"'recent venus'"
p2642
sg731
S"'runaway greenhouse'"
p2643
sg740
F1.0
sg748
g749
sg757
F0.01
sg765
F0.3
sssg773
F-2.0
sg781
F-1.0
sg797
g197
sg806
F0.7
sg814
F-2.0
sg822
F-2.0
sg830
F-2.0
sg838
F-2.0
sg846
F-2.0
sg854
F0.4
sg862
F0.0
sg870
F-1.0
sg878
g197
sg886
F-2.0
sg894
F0.785714285714286
sg902
g903
sg911
S'NICHE-011 A'
p2644
sg920
F-2.0
sg928
F-1.0
sg936
F-2.0
sg944
F-1.0
sg952
F-1.0
sg960
F-1.0
sg971
F0.203543556080572
sg979
F-1.0
sg990
F-2.0
sg998
g2624
sg1006
F-2.0
sg1014
F0.0
sg1022
F-2.0
sg1030
S'0019'
p2645
sg1039
F-1.0
sg1047
F-2.0
sg1055
F30.0
sg1063
F-2.0
sg1071
F-1.0
sg1079
F-1.0
sg1090
F-1.0
sg1098
F-2.0
ssS'BHMCatS0025P'
p2646
(dp2647
g12
F-1.0
sg20
S'V785 Cep B'
p2648
sg29
F0.6
sg37
F-1.0
sg45
I25
sg53
F5874.0
sg61
F-1.0
sg69
F-1.0
sg77
F0.019
sg85
F1.373
sg93
F-1.0
sg101
F1.081
sg109
S'V785 Cep'
p2649
sg118
F-1.0
sg126
F85.17629166666667
sg134
g135
sg143
F-1.0
sg151
F0.019
sg159
S'G type'
p2650
sg161
(lp2651
g163
asg347
S'G type'
p2652
sg356
S'DEBCat'
p2653
sg365
F-1.0
sg373
F-1.0
sg381
S'26'
p2654
sg383
(dp2655
g385
(dp2656
g394
F3.0
sg402
F1.0
sg410
F0.0
sg418
F0.0
sg426
F1.0
sg434
F0.0
sg442
S"'early mars'"
p2657
sg451
F6.0
sg459
F0.0
sg467
F1.000001
sg475
F0.01
sg483
F1.0
sg491
F0.0
sg499
F0.8
sg507
F10.0
sg515
F1.000001
sg523
F30.0
sg531
F1.5
sg539
F44.0
sg547
F0.0
sg555
F1.0
sg563
F30.0
sg571
S"'maximum greenhouse'"
p2658
sg580
F0.3
sg588
F5.5e+39
sg596
F0.01
sg604
F1.5
sg612
F2.0
sg620
F3.0
sg628
S'PARSEC'
p2659
sg637
S'PARSEC'
p2660
sg646
F1.0
sg654
F1.0
sg662
F5.5e+39
sg670
g671
sg679
F0.1
sg687
S'BHMCatS0025P'
p2661
sg696
g697
sg705
F3.0
sg713
S'V785 Cep'
p2662
sg722
S"'recent venus'"
p2663
sg731
S"'runaway greenhouse'"
p2664
sg740
F1.0
sg748
g749
sg757
F0.01
sg765
F0.3
sssg773
F-1.0
sg781
F-1.0
sg797
S'2014AJ....147...42Z; 2012MNRAS.425.3104F;'
p2665
sg806
F1.103
sg814
F1.424
sg822
F-1.0
sg830
F5902.0
sg838
F-1.0
sg846
F-1.0
sg854
F0.0
sg862
F0.007
sg870
F-1.0
sg878
g197
sg886
F-1.0
sg894
F0.980054397098821
sg902
g903
sg911
S'V785 Cep A'
p2666
sg920
F0.8770944444444445
sg928
F-1.0
sg936
F-1.0
sg944
F-1.0
sg952
F-1.0
sg960
F-1.0
sg971
F0.0885
sg979
F-1.0
sg990
F14.74
sg998
g2646
sg1006
F-1.0
sg1014
F0.007
sg1022
F-1.0
sg1030
S'0025'
p2667
sg1039
F-1.0
sg1047
F-1.0
sg1055
F6.504
sg1063
F-1.0
sg1071
F-1.0
sg1079
F-1.0
sg1090
g3
(g784
S'\x03%\xcc\x91\x0b\xf3\x9d@'
p2668
tp2669
Rp2670
sg1098
F-1.0
ssS'BHMCatS0033P'
p2671
(dp2672
g12
F-1.0
sg20
S'KIC 6131659 B'
p2673
sg29
F-1.0
sg37
F-1.0
sg45
I33
sg53
F4780.0
sg61
F0.009
sg69
F-1.0
sg77
F0.003
sg85
F0.64
sg93
F-1.0
sg101
F0.685
sg109
S'KIC 6131659'
p2674
sg118
F-1.0
sg126
F41.436905555555555
sg134
g135
sg143
F0.004
sg151
F0.006
sg159
S'G5V'
p2675
sg161
(lp2676
g163
asg347
g197
sg356
S'EkCat'
p2677
sg365
F4.66185785287664
sg373
F-1.0
sg381
S'198'
p2678
sg383
(dp2679
g385
(dp2680
g394
F3.0
sg402
F1.0
sg410
F0.0
sg418
F0.0
sg426
F1.0
sg434
F0.0
sg442
S"'early mars'"
p2681
sg451
F6.0
sg459
F0.0
sg467
F1.000001
sg475
F0.01
sg483
F1.0
sg491
F0.0
sg499
F0.8
sg507
F10.0
sg515
F1.000001
sg523
F30.0
sg531
F1.5
sg539
F44.0
sg547
F0.0
sg555
F1.0
sg563
F30.0
sg571
S"'maximum greenhouse'"
p2682
sg580
F0.3
sg588
F5.5e+39
sg596
F0.01
sg604
F1.5
sg612
F2.0
sg620
F3.0
sg628
S'PARSEC'
p2683
sg637
S'PARSEC'
p2684
sg646
F1.0
sg654
F1.0
sg662
F5.5e+39
sg670
g671
sg679
F0.1
sg687
S'BHMCatS0033P'
p2685
sg696
g697
sg705
F3.0
sg713
S'KIC 6131659'
p2686
sg722
S"'recent venus'"
p2687
sg731
S"'runaway greenhouse'"
p2688
sg740
F1.0
sg748
g749
sg757
F0.01
sg765
F0.3
sssg773
F4.51361395576685
sg781
F-1.0
sg797
S'2008AN....329..835B;'
p2689
sg806
F0.922
sg814
F0.88
sg822
F-1.0
sg830
F5660.0
sg838
F89.19
sg846
F-1.0
sg854
F0.0
sg862
F0.007
sg870
F31.0
sg878
g197
sg886
F105.0
sg894
F0.74295010845987
sg902
S'DEBCat'
p2690
sg911
S'KIC 6131659 A'
p2691
sg920
F19.618605555555558
sg928
F-1.0
sg936
F-1.0
sg944
F322.0
sg952
F-1.0
sg960
F-1.0
sg971
F0.154768526069519
sg979
F-1.0
sg990
F17.85
sg998
g2671
sg1006
F-1.0
sg1014
F0.005
sg1022
F-1.0
sg1030
S'0033'
p2692
sg1039
F-1.0
sg1047
F-1.0
sg1055
F17.52782716
sg1063
F-1.0
sg1071
F-1.0
sg1079
F-1.0
sg1090
F-1.0
sg1098
F140.0
ssS'PlanetFieldsPriority'
p2693
(dp2694
g171
I1
sg180
I4
sg188
I1
sg196
I1
sg205
I4
sg213
I100
sg222
I1
sg231
I1
sg239
I1
sg248
I1
sg256
I4
sg264
I2
sg273
I1
sg281
I2
sg289
I1
sg297
I4
sg305
I4
sg313
I100
sg321
I1
sg330
I100
sg339
I4
ssS'BHMCatS0031P'
p2695
(dp2696
g12
F-1.0
sg20
S'V565 Lyr B'
p2697
sg29
F-1.0
sg37
F1.0
sg45
I31
sg53
F5430.0
sg61
F0.008
sg69
F-1.0
sg77
F0.007
sg85
F0.971
sg93
F-1.0
sg101
F0.929
sg109
S'V565 Lyr'
p2698
sg118
F-1.0
sg126
F37.76925
sg134
g135
sg143
F0.0053
sg151
F0.009
sg159
S'G type'
p2699
sg161
(lp2700
g163
asg347
S'G type'
p2701
sg356
S'EkCat'
p2702
sg365
F4.4319
sg373
F3.5
sg381
S'187'
p2703
sg383
(dp2704
g385
(dp2705
g394
F3.0
sg402
F1.0
sg410
F0.0
sg418
F0.0
sg426
F1.0
sg434
F0.0
sg442
S"'early mars'"
p2706
sg451
F6.0
sg459
F0.0
sg467
F1.000001
sg475
F0.01
sg483
F1.0
sg491
F0.0
sg499
F0.8
sg507
F10.0
sg515
F1.000001
sg523
F30.0
sg531
F1.5
sg539
F44.0
sg547
F0.0
sg555
F1.0
sg563
F30.0
sg571
S"'maximum greenhouse'"
p2707
sg580
F0.3
sg588
F5.5e+39
sg596
F0.01
sg604
F1.5
sg612
F2.0
sg620
F3.0
sg628
S'PARSEC'
p2708
sg637
S'PARSEC'
p2709
sg646
F1.0
sg654
F1.0
sg662
F5.5e+39
sg670
g671
sg679
F0.1
sg687
S'BHMCatS0031P'
p2710
sg696
g697
sg705
F3.0
sg713
S'V565 Lyr'
p2711
sg722
S"'recent venus'"
p2712
sg731
S"'runaway greenhouse'"
p2713
sg740
F1.0
sg748
g749
sg757
F0.01
sg765
F0.3
sssg773
F4.3524
sg781
g3
(g784
S'@\x96\x81(w\xd7+@'
p2714
tp2715
Rp2716
sg797
S'2011A&A...525A...2B;'
p2717
sg806
F0.996
sg814
F1.101
sg822
F-1.0
sg830
F5600.0
sg838
F89.38
sg846
F-1.0
sg854
F0.02
sg862
F0.003
sg870
F250.0
sg878
g197
sg886
F125.0
sg894
F0.932730923694779
sg902
S'DEBCat'
p2718
sg911
S'V565 Lyr A'
p2719
sg920
F19.34697222222222
sg928
F-1.0
sg936
F-1.0
sg944
F4010.0
sg952
F-1.0
sg960
g3
(g784
S'\x9fL\xbd\xcc\x12\t\x10@'
p2720
tp2721
Rp2722
sg971
F0.172270169919786
sg979
g3
(g784
S'\x16FK\xe6\xe0\x0f,@'
p2723
tp2724
Rp2725
sg990
F17.73
sg998
g2695
sg1006
F-1.0
sg1014
F0.003
sg1022
F1.0
sg1030
S'0031'
p2726
sg1039
F-1.0
sg1047
F-1.0
sg1055
F18.798638
sg1063
F4.0
sg1071
F-1.0
sg1079
g3
(g784
S'@\x96\x81(w\xd7\x0b@'
p2727
tp2728
Rp2729
sg1090
F-1.0
sg1098
F95.0
ssS'BHMCatS0022P'
p2730
(dp2731
g12
F-1.0
sg20
S'V54 M55 B'
p2732
sg29
F0.56
sg37
F-1.0
sg45
I22
sg53
F5023.0
sg61
F-1.0
sg69
F-1.0
sg77
F0.009
sg85
F0.528
sg93
F-1.0
sg101
F0.555
sg109
S'V54 M55'
p2733
sg118
F-1.0
sg126
F-1.0
sg134
g135
sg143
F-1.0
sg151
F0.005
sg159
S'F type'
p2734
sg161
(lp2735
g163
asg347
S'K type'
p2736
sg356
S'DEBCat'
p2737
sg365
F-1.0
sg373
F-1.0
sg381
S'29'
p2738
sg383
(dp2739
g385
(dp2740
g394
F3.0
sg402
F1.0
sg410
F0.0
sg418
F0.0
sg426
F1.0
sg434
F0.0
sg442
S"'early mars'"
p2741
sg451
F6.0
sg459
F0.0
sg467
F1.000001
sg475
F0.01
sg483
F1.0
sg491
F0.0
sg499
F0.8
sg507
F10.0
sg515
F1.000001
sg523
F30.0
sg531
F1.5
sg539
F44.0
sg547
F0.0
sg555
F1.0
sg563
F30.0
sg571
S"'maximum greenhouse'"
p2742
sg580
F0.3
sg588
F5.5e+39
sg596
F0.01
sg604
F1.5
sg612
F2.0
sg620
F3.0
sg628
S'PARSEC'
p2743
sg637
S'PARSEC'
p2744
sg646
F1.0
sg654
F1.0
sg662
F5.5e+39
sg670
g671
sg679
F0.1
sg687
S'BHMCatS0022P'
p2745
sg696
g697
sg705
F3.0
sg713
S'V54 M55'
p2746
sg722
S"'recent venus'"
p2747
sg731
S"'runaway greenhouse'"
p2748
sg740
F1.0
sg748
g749
sg757
F0.01
sg765
F0.3
sssg773
F-1.0
sg781
F-1.0
sg797
S'2014AcA....64...11K;'
p2749
sg806
F0.726
sg814
F1.006
sg822
F-1.0
sg830
F6251.0
sg838
F-1.0
sg846
F-1.0
sg854
F0.133
sg862
F0.015
sg870
F-1.0
sg878
g197
sg886
F-1.0
sg894
F0.764462809917356
sg902
g903
sg911
S'V54 M55 A'
p2750
sg920
F-1.0
sg928
F-1.0
sg936
F-1.0
sg944
F-1.0
sg952
F-1.0
sg960
F-1.0
sg971
F0.0938
sg979
F-1.0
sg990
F18.3
sg998
g2730
sg1006
F-1.0
sg1014
F0.008
sg1022
F-1.0
sg1030
S'0022'
p2751
sg1039
F-1.0
sg1047
F-1.0
sg1055
F9.269
sg1063
F-1.0
sg1071
F-1.0
sg1079
F-1.0
sg1090
g3
(g784
S'\x83\xc9\x05\x13\xd2\xd2\xb7@'
p2752
tp2753
Rp2754
sg1098
F-1.0
ssS'BHMCatS0027P'
p2755
(dp2756
g12
F-1.0
sg20
S'LSPM J1112+7626 B'
p2757
sg29
F-1.0
sg37
F-1.0
sg45
I27
sg53
F2952.0
sg61
F0.014
sg69
F-1.0
sg77
F0.005
sg85
F0.3
sg93
F-1.0
sg101
F0.275
sg109
S'LSPM J1112+7626'
p2758
sg118
F-1.0
sg126
F76.449
sg134
g135
sg143
F0.012
sg151
F0.005
sg159
S'M4V'
p2759
sg161
(lp2760
g163
asg347
S'M type'
p2761
sg356
S'EkCat'
p2762
sg365
F4.929
sg373
F-1.0
sg381
S'113'
p2763
sg383
(dp2764
g385
(dp2765
g394
F3.0
sg402
F1.0
sg410
F0.0
sg418
F0.0
sg426
F1.0
sg434
F0.0
sg442
S"'early mars'"
p2766
sg451
F6.0
sg459
F0.0
sg467
F1.000001
sg475
F0.01
sg483
F1.0
sg491
F0.0
sg499
F0.8
sg507
F10.0
sg515
F1.000001
sg523
F30.0
sg531
F1.5
sg539
F44.0
sg547
F0.0
sg555
F1.0
sg563
F30.0
sg571
S"'maximum greenhouse'"
p2767
sg580
F0.3
sg588
F5.5e+39
sg596
F0.01
sg604
F1.5
sg612
F2.0
sg620
F3.0
sg628
S'PARSEC'
p2768
sg637
S'PARSEC'
p2769
sg646
F1.0
sg654
F1.0
sg662
F5.5e+39
sg670
g671
sg679
F0.1
sg687
S'BHMCatS0027P'
p2770
sg696
g697
sg705
F3.0
sg713
S'LSPM J1112+7626'
p2771
sg722
S"'recent venus'"
p2772
sg731
S"'runaway greenhouse'"
p2773
sg740
F1.0
sg748
g749
sg757
F0.01
sg765
F0.3
sssg773
F4.861
sg781
F-1.0
sg797
S'2011ApJ...742..123I;'
p2774
sg806
F0.395
sg814
F0.381
sg822
F-1.0
sg830
F3061.0
sg838
F89.71
sg846
F-1.0
sg854
F0.239
sg862
F0.002
sg870
F5.0
sg878
g197
sg886
F163.0
sg894
F0.69620253164557
sg902
S'DEBCat'
p2775
sg911
S'LSPM J1112+7626 A'
p2776
sg920
F11.211755555555555
sg928
F-1.0
sg936
F-1.0
sg944
F48.1
sg952
F-1.0
sg960
F-1.0
sg971
F0.203875532085561
sg979
F-1.0
sg990
F12.015
sg998
g2755
sg1006
F-1.0
sg1014
F0.001
sg1022
F-1.0
sg1030
S'0027'
p2777
sg1039
F-1.0
sg1047
F-1.0
sg1055
F41.032336
sg1063
F-1.0
sg1071
F-1.0
sg1079
F-1.0
sg1090
F-1.0
sg1098
F162.0
ssS'PlanetFieldsText'
p2778
(dp2779
g171
g3
(g4
(S'S12'
p2780
I0
I1
tp2781
Rp2782
(I3
S'|'
p2783
NNNI12
I1
I0
tp2784
bS'Plan.Cat.Id.'
p2785
tp2786
Rp2787
sg180
g3
(g4
(S'S7'
p2788
I0
I1
tp2789
Rp2790
(I3
S'|'
p2791
NNNI7
I1
I0
tp2792
bS'M_p,err'
p2793
tp2794
Rp2795
sg188
g3
(g4
(S'S5'
p2796
I0
I1
tp2797
Rp2798
(I3
S'|'
p2799
NNNI5
I1
I0
tp2800
bS'e_orb'
p2801
tp2802
Rp2803
sg196
g3
(g4
(S'S11'
p2804
I0
I1
tp2805
Rp2806
(I3
S'|'
p2807
NNNI11
I1
I0
tp2808
bS'Sys.Cat.Id.'
p2809
tp2810
Rp2811
sg205
g3
(g4
(S'S9'
p2812
I0
I1
tp2813
Rp2814
(I3
S'|'
p2815
NNNI9
I1
I0
tp2816
bS'e_orb,err'
p2817
tp2818
Rp2819
sg213
g3
(g4
(S'S3'
p2820
I0
I1
tp2821
Rp2822
(I3
S'|'
p2823
NNNI3
I1
I0
tp2824
bS'No.'
p2825
tp2826
Rp2827
sg222
g3
(g4
(S'S8'
p2828
I0
I1
tp2829
Rp2830
(I3
S'|'
p2831
NNNI8
I1
I0
tp2832
bS'ADS Link'
p2833
tp2834
Rp2835
sg231
g3
(g4
(S'S3'
p2836
I0
I1
tp2837
Rp2838
(I3
S'|'
p2839
NNNI3
I1
I0
tp2840
bS'R_p'
p2841
tp2842
Rp2843
sg239
g3
(g4
(S'S3'
p2844
I0
I1
tp2845
Rp2846
(I3
S'|'
p2847
NNNI3
I1
I0
tp2848
bS'No.'
p2849
tp2850
Rp2851
sg248
g3
(g4
(S'S5'
p2852
I0
I1
tp2853
Rp2854
(I3
S'|'
p2855
NNNI5
I1
I0
tp2856
bS'P_orb'
p2857
tp2858
Rp2859
sg256
g3
(g4
(S'S9'
p2860
I0
I1
tp2861
Rp2862
(I3
S'|'
p2863
NNNI9
I1
I0
tp2864
bS'a_orb,err'
p2865
tp2866
Rp2867
sg264
g3
(g4
(S'S10'
p2868
I0
I1
tp2869
Rp2870
(I3
S'|'
p2871
NNNI10
I1
I0
tp2872
bS'System Id.'
p2873
tp2874
Rp2875
sg273
g3
(g4
(S'S3'
p2876
I0
I1
tp2877
Rp2878
(I3
S'|'
p2879
NNNI3
I1
I0
tp2880
bS'M_p'
p2881
tp2882
Rp2883
sg281
g3
(g4
(S'S10'
p2884
I0
I1
tp2885
Rp2886
(I3
S'|'
p2887
NNNI10
I1
I0
tp2888
bS'\\omega_orb'
p2889
tp2890
Rp2891
sg289
g3
(g4
(S'S5'
p2892
I0
I1
tp2893
Rp2894
(I3
S'|'
p2895
NNNI5
I1
I0
tp2896
bS'a_orb'
p2897
tp2898
Rp2899
sg297
g3
(g4
(S'S9'
p2900
I0
I1
tp2901
Rp2902
(I3
S'|'
p2903
NNNI9
I1
I0
tp2904
bS'P_orb,err'
p2905
tp2906
Rp2907
sg305
g3
(g4
(S'S14'
p2908
I0
I1
tp2909
Rp2910
(I3
S'|'
p2911
NNNI14
I1
I0
tp2912
bS'\\omega_orb,err'
p2913
tp2914
Rp2915
sg313
g3
(g4
(S'S5'
p2916
I0
I1
tp2917
Rp2918
(I3
S'|'
p2919
NNNI5
I1
I0
tp2920
bS'M_orb'
p2921
tp2922
Rp2923
sg321
g3
(g4
(S'S10'
p2924
I0
I1
tp2925
Rp2926
(I3
S'|'
p2927
NNNI10
I1
I0
tp2928
bS'Planet Id.'
p2929
tp2930
Rp2931
sg330
g3
(g4
(S'S4'
p2932
I0
I1
tp2933
Rp2934
(I3
S'|'
p2935
NNNI4
I1
I0
tp2936
bS'Type'
p2937
tp2938
Rp2939
sg339
g3
(g4
(S'S7'
p2940
I0
I1
tp2941
Rp2942
(I3
S'|'
p2943
NNNI7
I1
I0
tp2944
bS'R_p,err'
p2945
tp2946
Rp2947
ssS'BHMCatS0021P'
p2948
(dp2949
g12
F-1.0
sg20
S'KX Cnc B'
p2950
sg29
F0.56
sg37
F-1.0
sg45
I21
sg53
F5847.0
sg61
F-1.0
sg69
F-1.0
sg77
F0.002
sg85
F1.049
sg93
F-1.0
sg101
F1.131
sg109
S'KX Cnc'
p2951
sg118
F-1.0
sg126
F31.86138888888889
sg134
g135
sg143
F-1.0
sg151
F0.002
sg159
S'G0V'
p2952
sg161
(lp2953
g163
asg347
S'G0V'
p2954
sg356
S'DEBCat'
p2955
sg365
F-1.0
sg373
F-1.0
sg381
S'39'
p2956
sg383
(dp2957
g385
(dp2958
g394
F3.0
sg402
F1.0
sg410
F0.0
sg418
F0.0
sg426
F1.0
sg434
F0.0
sg442
S"'early mars'"
p2959
sg451
F6.0
sg459
F0.0
sg467
F1.000001
sg475
F0.01
sg483
F1.0
sg491
F0.0
sg499
F0.8
sg507
F10.0
sg515
F1.000001
sg523
F30.0
sg531
F1.5
sg539
F44.0
sg547
F0.0
sg555
F1.0
sg563
F30.0
sg571
S"'maximum greenhouse'"
p2960
sg580
F0.3
sg588
F5.5e+39
sg596
F0.01
sg604
F1.5
sg612
F2.0
sg620
F3.0
sg628
S'PARSEC'
p2961
sg637
S'PARSEC'
p2962
sg646
F1.0
sg654
F1.0
sg662
F5.5e+39
sg670
g671
sg679
F0.1
sg687
S'BHMCatS0021P'
p2963
sg696
g697
sg705
F3.0
sg713
S'KX Cnc'
p2964
sg722
S"'recent venus'"
p2965
sg731
S"'runaway greenhouse'"
p2966
sg740
F1.0
sg748
g749
sg757
F0.01
sg765
F0.3
sssg773
F-1.0
sg781
F-1.0
sg797
S'2006PZP.....6...14D;'
p2967
sg806
F1.138
sg814
F1.064
sg822
F-1.0
sg830
F5902.0
sg838
F-1.0
sg846
F-1.0
sg854
F0.4666
sg862
F0.003
sg870
F-1.0
sg878
g197
sg886
F-1.0
sg894
F0.993848857644991
sg902
g903
sg911
S'KX Cnc A'
p2968
sg920
F8.71275
sg928
F-1.0
sg936
F-1.0
sg944
F-1.0
sg952
F-1.0
sg960
F-1.0
sg971
F0.2553
sg979
F-1.0
sg990
F7.19
sg998
g2948
sg1006
F-1.0
sg1014
F0.003
sg1022
F-1.0
sg1030
S'0021'
p2969
sg1039
F-1.0
sg1047
F-1.0
sg1055
F31.22
sg1063
F-1.0
sg1071
F-1.0
sg1079
F-1.0
sg1090
g3
(g784
S'\x91\xac\xf7z\xc5DF@'
p2970
tp2971
Rp2972
sg1098
F-1.0
ssS'BHMCatS0047P'
p2973
(dp2974
g12
F-1.0
sg20
S'EW Ori B'
p2975
sg29
F-1.0
sg37
F0.6
sg45
I47
sg53
F5900.0
sg61
F0.005
sg69
F-1.0
sg77
F0.005
sg85
F1.097
sg93
F-1.0
sg101
F1.123
sg109
S'EW Ori'
p2976
sg118
F-1.0
sg126
F2.044436111111111
sg134
g135
sg143
F0.005
sg151
F0.005
sg159
S'G0V'
p2977
sg161
(lp2978
g163
asg347
S'G5V'
p2979
sg356
S'EkCat'
p2980
sg365
F4.408
sg373
F8.8
sg381
S'49'
p2981
sg383
(dp2982
g385
(dp2983
g394
F3.0
sg402
F1.0
sg410
F0.0
sg418
F0.0
sg426
F1.0
sg434
F0.0
sg442
S"'early mars'"
p2984
sg451
F6.0
sg459
F0.0
sg467
F1.000001
sg475
F0.01
sg483
F1.0
sg491
F0.0
sg499
F0.8
sg507
F10.0
sg515
F1.000001
sg523
F30.0
sg531
F1.5
sg539
F44.0
sg547
F0.0
sg555
F1.0
sg563
F30.0
sg571
S"'maximum greenhouse'"
p2985
sg580
F0.3
sg588
F5.5e+39
sg596
F0.01
sg604
F1.5
sg612
F2.0
sg620
F3.0
sg628
S'PARSEC'
p2986
sg637
S'PARSEC'
p2987
sg646
F1.0
sg654
F1.0
sg662
F5.5e+39
sg670
g671
sg679
F0.1
sg687
S'BHMCatS0047P'
p2988
sg696
g697
sg705
F3.0
sg713
S'EW Ori'
p2989
sg722
S"'recent venus'"
p2990
sg731
S"'runaway greenhouse'"
p2991
sg740
F1.0
sg748
g749
sg757
F0.01
sg765
F0.3
sssg773
F4.372
sg781
g3
(g784
S'\x8b\x8aRZpA\x1a@'
p2992
tp2993
Rp2994
sg797
S'2010A&A...511A..22C;'
p2995
sg806
F1.173
sg814
F1.168
sg822
F-1.0
sg830
F6070.0
sg838
F89.86
sg846
F-1.0
sg854
F0.076
sg862
F0.011
sg870
F7.0
sg878
g197
sg886
F95.0
sg894
F0.957374254049446
sg902
g903
sg911
S'EW Ori A'
p2996
sg920
F5.335875
sg928
F-1.0
sg936
F-1.0
sg944
F175.0
sg952
F-1.0
sg960
g3
(g784
S'\x83^\x7f\x88E\x83\xdb?'
p2997
tp2998
Rp2999
sg971
F0.0939316949197861
sg979
g3
(g784
S'N\xc1t\x12U8\x19@'
p3000
tp3001
Rp3002
sg990
F9.795
sg998
g2973
sg1006
F-1.0
sg1014
F0.009
sg1022
F0.7
sg1030
S'0047'
p3003
sg1039
F-1.0
sg1047
F-1.0
sg1055
F6.93684324
sg1063
F9.0
sg1071
F-1.0
sg1079
g3
(g784
S'4V\xd8\x87:V\xe0?'
p3004
tp3005
Rp3006
sg1090
F-1.0
sg1098
F95.0
ssS'BHMCatS0020V'
p3007
(dp3008
g12
F0.0
sg20
S'NICHE-012 B'
p3009
sg29
F-2.0
sg37
F-2.0
sg45
I20
sg53
F-2.0
sg61
F-2.0
sg69
F-2.0
sg77
F0.0
sg85
F-2.0
sg93
F-2.0
sg101
F0.55
sg109
S'NICHE-012'
p3010
sg118
g3
(g784
S'0\xa8\x1bgj\x94\x8f?'
p3011
tp3012
Rp3013
sg126
F-2.0
sg134
g1411
sg143
F-2.0
sg151
F0.0
sg159
g197
sg161
(lp3014
g163
asg347
g197
sg356
S'NICHE'
p3015
sg365
F-2.0
sg373
F-2.0
sg381
S'12'
p3016
sg383
(dp3017
g385
(dp3018
g394
F3.0
sg402
F1.0
sg410
F0.0
sg418
F0.0
sg426
F1.0
sg434
F0.0
sg442
S"'early mars'"
p3019
sg451
F6.0
sg459
F0.0
sg467
F1.000001
sg475
F0.01
sg483
F1.0
sg491
F0.0
sg499
F0.8
sg507
F10.0
sg515
F1.000001
sg523
F30.0
sg531
F1.5
sg539
F44.0
sg547
F0.0
sg555
F1.0
sg563
F30.0
sg571
S"'maximum greenhouse'"
p3020
sg580
F0.3
sg588
F5.5e+39
sg596
F0.01
sg604
F1.5
sg612
F2.0
sg620
F3.0
sg628
S'PARSEC'
p3021
sg637
S'PARSEC'
p3022
sg646
F1.0
sg654
F1.0
sg662
F5.5e+39
sg670
g671
sg679
F0.1
sg687
S'BHMCatS0020V'
p3023
sg696
g697
sg705
F3.0
sg713
S'NICHE-012'
p3024
sg722
S"'recent venus'"
p3025
sg731
S"'runaway greenhouse'"
p3026
sg740
F1.0
sg748
g749
sg757
F0.01
sg765
F0.3
sssg773
F-2.0
sg781
F-1.0
sg797
g197
sg806
F0.55
sg814
F-2.0
sg822
F-2.0
sg830
F-2.0
sg838
F-2.0
sg846
F-2.0
sg854
F0.3
sg862
F0.0
sg870
F-1.0
sg878
g197
sg886
F-2.0
sg894
F1.0
sg902
g903
sg911
S'NICHE-012 A'
p3027
sg920
F-2.0
sg928
F-1.0
sg936
F-2.0
sg944
F-1.0
sg952
F-1.0
sg960
F-1.0
sg971
F0.148852937346155
sg979
F-1.0
sg990
F-2.0
sg998
g3007
sg1006
F-2.0
sg1014
F0.0
sg1022
F-2.0
sg1030
S'0020'
p3028
sg1039
F-1.0
sg1047
F-2.0
sg1055
F20.0
sg1063
F-2.0
sg1071
F-1.0
sg1079
F-1.0
sg1090
F-1.0
sg1098
F-2.0
ssS'BHMCatS0034P'
p3029
(dp3030
g12
F-1.0
sg20
S'V568 Lyr  B'
p3031
sg29
F-1.0
sg37
F-1.0
sg45
I34
sg53
F4900.0
sg61
F0.008
sg69
F-1.0
sg77
F0.016
sg85
F0.768
sg93
F-1.0
sg101
F0.827
sg109
S'V568 Lyr'
p3032
sg118
F-1.0
sg126
F37.75963888888889
sg134
g135
sg143
F0.01
sg151
F0.006
sg159
S'G type'
p3033
sg161
(lp3034
g163
asg347
S'K type'
p3035
sg356
S'EkCat'
p3036
sg365
F4.586
sg373
F-1.0
sg381
S'188'
p3037
sg383
(dp3038
g385
(dp3039
g394
F3.0
sg402
F1.0
sg410
F0.0
sg418
F0.0
sg426
F1.0
sg434
F0.0
sg442
S"'early mars'"
p3040
sg451
F6.0
sg459
F0.0
sg467
F1.000001
sg475
F0.01
sg483
F1.0
sg491
F0.0
sg499
F0.8
sg507
F10.0
sg515
F1.000001
sg523
F30.0
sg531
F1.5
sg539
F44.0
sg547
F0.0
sg555
F1.0
sg563
F30.0
sg571
S"'maximum greenhouse'"
p3041
sg580
F0.3
sg588
F5.5e+39
sg596
F0.01
sg604
F1.5
sg612
F2.0
sg620
F3.0
sg628
S'PARSEC'
p3042
sg637
S'PARSEC'
p3043
sg646
F1.0
sg654
F1.0
sg662
F5.5e+39
sg670
g671
sg679
F0.1
sg687
S'BHMCatS0034P'
p3044
sg696
g697
sg705
F3.0
sg713
S'V568 Lyr'
p3045
sg722
S"'recent venus'"
p3046
sg731
S"'runaway greenhouse'"
p3047
sg740
F1.0
sg748
g749
sg757
F0.01
sg765
F0.3
sssg773
F4.178
sg781
F-1.0
sg797
S'2008A&A...492..171G;'
p3048
sg806
F1.074
sg814
F1.399
sg822
F-1.0
sg830
F5665.0
sg838
F89.76
sg846
F-1.0
sg854
F0.0
sg862
F0.008
sg870
F187.0
sg878
g197
sg886
F100.0
sg894
F0.770018621973929
sg902
S'DEBCat'
p3049
sg911
S'V568 Lyr  A'
p3050
sg920
F19.348416666666665
sg928
F-1.0
sg936
F-1.0
sg944
F3972.0
sg952
F-1.0
sg960
F-1.0
sg971
F0.14406273328877
sg979
F-1.0
sg990
F16.91
sg998
g3029
sg1006
F-1.0
sg1014
F0.004
sg1022
F-1.0
sg1030
S'0034'
p3051
sg1039
F-1.0
sg1047
F-1.0
sg1055
F14.469918
sg1063
F-1.0
sg1071
F-1.0
sg1079
F-1.0
sg1090
F-1.0
sg1098
F100.0
ssS'BHMCatS0004D'
p3052
(dp3053
g12
F-0.11
sg20
S'Kepler-38 B'
p3054
sg29
F0.096
sg37
F-1.0
sg45
I4
sg53
F3325.0
sg61
F-1.0
sg69
F-1.0
sg77
F0.003
sg85
F0.272
sg93
F13.0
sg101
F0.249
sg109
S'Kepler-38'
p3055
sg118
g3
(g784
S'\xf0\xd5|I\xa8\xd3\x88?'
p3056
tp3057
Rp3058
sg126
F42.279205555555556
sg134
g1278
sg143
F0.011
sg151
F0.005
sg159
S'G type'
p3059
sg161
(lp3060
(dp3061
g171
S'BHMCatP0004'
p3062
sg180
F0.0
sg188
F0.032
sg196
S'BHMCatS004D'
p3063
sg205
F-1.0
sg213
S'4'
p3064
sg222
S'2012Sci...337.1511O'
p3065
sg231
F4.3763741955736934
sg239
S'0004'
p3066
sg248
F105.595
sg256
F0.0082
sg264
S'Kepler-38'
p3067
sg273
F120.82984494826027
sg281
F-1.0
sg289
F0.4644
sg297
F0.038
sg305
F0.0
sg313
F1.198
sg321
S'Kepler-38b'
p3068
sg330
g1288
sg339
F0.11221472296342803
sasg347
S'M type'
p3069
sg356
S'KIC'
p3070
sg365
F4.964
sg373
F-1.0
sg381
S'6762829'
p3071
sg383
(dp3072
S'BHMCatP0004'
p3073
(dp3074
g394
F3.0
sg402
F1.0
sg410
F0.0
sg418
F0.0
sg426
F10.0
sg434
F-0.11
sg442
S"'early mars'"
p3075
sg451
F6.0
sg459
F0.0
sg467
F4.37637419557369
sg475
F0.01
sg483
F1.0
sg491
F-0.11
sg499
F0.8
sg507
F10.0
sg515
F120.82984494826
sg523
F30.0
sg531
F1.5
sg539
F44.0
sg547
F0.0
sg555
F1.0
sg563
F30.0
sg571
S"'maximum greenhouse'"
p3076
sg580
F0.3
sg588
F5.5e+39
sg596
F0.01
sg604
F1.5
sg612
F2.0
sg620
F3.0
sg628
S'PARSEC'
p3077
sg637
S'PARSEC'
p3078
sg646
F1.0
sg654
F10.0
sg662
F5.5e+39
sg670
S'BHMCatP0004'
p3079
sg679
F0.1
sg687
S'BHMCatS0004D'
p3080
sg696
S'Kepler-38b'
p3081
sg705
F3.0
sg713
S'Kepler-38'
p3082
sg722
S"'recent venus'"
p3083
sg731
S"'runaway greenhouse'"
p3084
sg740
F10.0
sg748
S"'Earth'"
p3085
sg757
F0.01
sg765
F0.3
sssg773
F4.47
sg781
g3
(g784
S'\xc3W\x8b\x85C\x83B@'
p3086
tp3087
Rp3088
sg797
S'2012ApJ...758...87O;'
p3089
sg806
F0.949
sg814
F1.757
sg822
F-1.0
sg830
F5623.0
sg838
F89.412
sg846
F-1.0
sg854
F0.1032
sg862
F0.055
sg870
F-1.0
sg878
S'BHMCatP0004;'
p3090
sg886
F-1.0
sg894
F0.262381454162276
sg902
g903
sg911
S'Kepler-38 A'
p3091
sg920
F19.122025
sg928
F-1.0
sg936
F-1.0
sg944
F-1.0
sg952
F268.68
sg960
F-1.0
sg971
F0.1469
sg979
F-1.0
sg990
F13.941
sg998
g3052
sg1006
F-1.0
sg1014
F0.007
sg1022
F0.5
sg1030
S'0004'
p3092
sg1039
F-0.158
sg1047
F7.0
sg1055
F18.795
sg1063
F2.4
sg1071
g3
(g784
S'\x95\x00#\x0cUZ\x86?'
p3093
tp3094
Rp3095
sg1079
g3
(g784
S'\x9b\xe7\x92\xde\xc5\xda\x1e@'
p3096
tp3097
Rp3098
sg1090
g3
(g784
S'\x84pS\xf9Vl\x90@'
p3099
tp3100
Rp3101
sg1098
F50.0
ssS'BHMCatS0023P'
p3102
(dp3103
g12
F-1.0
sg20
S'V66 M4 B'
p3104
sg29
F0.88
sg37
F-1.0
sg45
I23
sg53
F5943.0
sg61
F-1.0
sg69
F-1.0
sg77
F0.005
sg85
F0.83
sg93
F-1.0
sg101
F0.744
sg109
S'V66 M4'
p3105
sg118
F-1.0
sg126
F-25.471861111111114
sg134
g135
sg143
F-1.0
sg151
F0.005
sg159
S'G type'
p3106
sg161
(lp3107
g163
asg347
S'G type'
p3108
sg356
S'DEBCat'
p3109
sg365
F-1.0
sg373
F-1.0
sg381
S'28'
p3110
sg383
(dp3111
g385
(dp3112
g394
F3.0
sg402
F1.0
sg410
F0.0
sg418
F0.0
sg426
F1.0
sg434
F0.0
sg442
S"'early mars'"
p3113
sg451
F6.0
sg459
F0.0
sg467
F1.000001
sg475
F0.01
sg483
F1.0
sg491
F0.0
sg499
F0.8
sg507
F10.0
sg515
F1.000001
sg523
F30.0
sg531
F1.5
sg539
F44.0
sg547
F0.0
sg555
F1.0
sg563
F30.0
sg571
S"'maximum greenhouse'"
p3114
sg580
F0.3
sg588
F5.5e+39
sg596
F0.01
sg604
F1.5
sg612
F2.0
sg620
F3.0
sg628
S'PARSEC'
p3115
sg637
S'PARSEC'
p3116
sg646
F1.0
sg654
F1.0
sg662
F5.5e+39
sg670
g671
sg679
F0.1
sg687
S'BHMCatS0023P'
p3117
sg696
g697
sg705
F3.0
sg713
S'V66 M4'
p3118
sg722
S"'recent venus'"
p3119
sg731
S"'runaway greenhouse'"
p3120
sg740
F1.0
sg748
g749
sg757
F0.01
sg765
F0.3
sssg773
F-1.0
sg781
F-1.0
sg797
S'2013AJ....145...43K;'
p3121
sg806
F0.784
sg814
F0.935
sg822
F-1.0
sg830
F6165.0
sg838
F-1.0
sg846
F-1.0
sg854
F0.0
sg862
F0.005
sg870
F-1.0
sg878
g197
sg886
F-1.0
sg894
F0.948979591836735
sg902
g903
sg911
S'V66 M4 A'
p3122
sg920
F16.392286111111112
sg928
F-1.0
sg936
F-1.0
sg944
F-1.0
sg952
F-1.0
sg960
F-1.0
sg971
F0.091
sg979
F-1.0
sg990
F16.84
sg998
g3102
sg1006
F-1.0
sg1014
F0.004
sg1022
F-1.0
sg1030
S'0023'
p3123
sg1039
F-1.0
sg1047
F-1.0
sg1055
F8.111
sg1063
F-1.0
sg1071
F-1.0
sg1079
F-1.0
sg1090
g3
(g784
S'\xae\x1a\xc5y#\xe2\xaa@'
p3124
tp3125
Rp3126
sg1098
F-1.0
ssS'BHMCatS0043P'
p3127
(dp3128
g12
F-1.0
sg20
S'M4-V66 B'
p3129
sg29
F-1.0
sg37
F-1.0
sg45
I43
sg53
F5938.0
sg61
F0.085
sg69
F-1.0
sg77
F0.005
sg85
F0.83
sg93
F-1.0
sg101
F0.744
sg109
S'M4-V66'
p3130
sg118
F-1.0
sg126
F-25.471861111111114
sg134
g135
sg143
F0.077
sg151
F0.005
sg159
S'F type'
p3131
sg161
(lp3132
g163
asg347
S'G type'
p3133
sg356
S'EkCat'
p3134
sg365
F4.469
sg373
F-1.0
sg381
S'140'
p3135
sg383
(dp3136
g385
(dp3137
g394
F3.0
sg402
F1.0
sg410
F0.0
sg418
F0.0
sg426
F1.0
sg434
F0.0
sg442
S"'early mars'"
p3138
sg451
F6.0
sg459
F0.0
sg467
F1.000001
sg475
F0.01
sg483
F1.0
sg491
F0.0
sg499
F0.8
sg507
F10.0
sg515
F1.000001
sg523
F30.0
sg531
F1.5
sg539
F44.0
sg547
F0.0
sg555
F1.0
sg563
F30.0
sg571
S"'maximum greenhouse'"
p3139
sg580
F0.3
sg588
F5.5e+39
sg596
F0.01
sg604
F1.5
sg612
F2.0
sg620
F3.0
sg628
S'PARSEC'
p3140
sg637
S'PARSEC'
p3141
sg646
F1.0
sg654
F1.0
sg662
F5.5e+39
sg670
g671
sg679
F0.1
sg687
S'BHMCatS0043P'
p3142
sg696
g697
sg705
F3.0
sg713
S'M4-V66'
p3143
sg722
S"'recent venus'"
p3144
sg731
S"'runaway greenhouse'"
p3145
sg740
F1.0
sg748
g749
sg757
F0.01
sg765
F0.3
sssg773
F4.388
sg781
F-1.0
sg797
S'2013AJ....145...43K;'
p3146
sg806
F0.784
sg814
F0.934
sg822
F-1.0
sg830
F6162.0
sg838
F89.44
sg846
F-1.0
sg854
F0.0
sg862
F0.004
sg870
F30.0
sg878
g197
sg886
F105.0
sg894
F0.948979591836735
sg902
g903
sg911
S'M4-V66 A'
p3147
sg920
F16.392286111111112
sg928
F-1.0
sg936
F-1.0
sg944
F1850.0
sg952
F-1.0
sg960
F-1.0
sg971
F0.0910457855614973
sg979
F-1.0
sg990
F16.84
sg998
g3127
sg1006
F-1.0
sg1014
F0.004
sg1022
F-1.0
sg1030
S'0043'
p3148
sg1039
F-1.0
sg1047
F-1.0
sg1055
F8.11130346
sg1063
F-1.0
sg1071
F-1.0
sg1079
F-1.0
sg1090
F-1.0
sg1098
F98.0
ssS'BHMCatS0006D'
p3149
(dp3150
g12
F-0.15
sg20
S'Kepler-64 B'
p3151
sg29
F0.107
sg37
F-1.0
sg45
I6
sg53
F3561.0
sg61
F-1.0
sg69
F-1.0
sg77
F0.044
sg85
F0.408
sg93
F2.0
sg101
F0.378
sg109
S'Kepler-64'
p3152
sg118
g3
(g784
S'\x1f\xe4\x96\xebQ\xbf\x86?'
p3153
tp3154
Rp3155
sg126
F39.9551
sg134
g1278
sg143
F-1.0
sg151
F0.024
sg159
S'F type'
p3156
sg161
(lp3157
(dp3158
g171
S'BHMCatP0007'
p3159
sg180
F82.67305180670441
sg188
F0.0539
sg196
S'BHMCatS006D'
p3160
sg205
F0.0081
sg213
g2007
sg222
S'2013ApJ...768..127S;2013ApJ...770...52K'
p3161
sg231
F6.20547417987757
sg239
S'0007'
p3162
sg248
F138.506
sg256
F0.011
sg264
S'Kepler-64'
p3163
sg273
F168.52583637520513
sg281
F-1.0
sg289
F0.634
sg297
F0.1
sg305
F0.0
sg313
F1.906
sg321
S'Kepler-64b'
p3164
sg330
g1288
sg339
F0.16832208444514205
sasg347
S'M type'
p3165
sg356
S'KIC'
p3166
sg365
F-1.0
sg373
F-1.0
sg381
S'4862625'
p3167
sg383
(dp3168
S'BHMCatP0007'
p3169
(dp3170
g394
F3.0
sg402
F1.0
sg410
F0.0
sg418
F0.0
sg426
F1.5
sg434
F-0.15
sg442
S"'early mars'"
p3171
sg451
F6.0
sg459
F0.0
sg467
F6.20547417987757
sg475
F0.01
sg483
F1.0
sg491
F-0.15
sg499
F0.8
sg507
F10.0
sg515
F168.525836375205
sg523
F30.0
sg531
F1.5
sg539
F44.0
sg547
F0.0
sg555
F1.0
sg563
F30.0
sg571
S"'maximum greenhouse'"
p3172
sg580
F0.3
sg588
F5.5e+39
sg596
F0.01
sg604
F1.5
sg612
F2.0
sg620
F3.0
sg628
S'PARSEC'
p3173
sg637
S'PARSEC'
p3174
sg646
F1.0
sg654
F1.5
sg662
F5.5e+39
sg670
S'BHMCatP0007'
p3175
sg679
F0.1
sg687
S'BHMCatS0006D'
p3176
sg696
S'Kepler-64b'
p3177
sg705
F3.0
sg713
S'Kepler-64'
p3178
sg722
S"'recent venus'"
p3179
sg731
S"'runaway greenhouse'"
p3180
sg740
F1.5
sg748
S"'Earth'"
p3181
sg757
F0.01
sg765
F0.3
sssg773
F4.658
sg781
g3
(g784
S'\x94\x0b\xed\xa8\xcf\x7f\x05@'
p3182
tp3183
Rp3184
sg797
S'2013ApJ...768..127S; 2013ApJ...770...52K;'
p3185
sg806
F1.528
sg814
F1.734
sg822
F-1.0
sg830
F6407.0
sg838
F87.36
sg846
F-1.0
sg854
F0.2117
sg862
F0.087
sg870
F-1.0
sg878
S'BHMCatP0007;'
p3186
sg886
F150.0
sg894
F0.24738219895288
sg902
g903
sg911
S'Kepler-64 A'
p3187
sg920
F19.881006666666668
sg928
F-1.0
sg936
F-1.0
sg944
F-1.0
sg952
F218.56
sg960
F-1.0
sg971
F0.1744
sg979
F-1.0
sg990
F13.718
sg998
g3149
sg1006
F-1.0
sg1014
F0.023
sg1022
F2.0
sg1030
S'0006'
p3188
sg1039
F-0.217
sg1047
F1.0
sg1055
F20.0
sg1063
F32.6
sg1071
g3
(g784
S'h3|\x07\xbb\xa5\x83?'
p3189
tp3190
Rp3191
sg1079
g3
(g784
S'n\x92\xae\x97\x83\x1a\xc5?'
p3192
tp3193
Rp3194
sg1090
g3
(g784
S'\xca\x19\xa8%\xd0\xfe\x93@'
p3195
tp3196
Rp3197
sg1098
F150.0
ssS'BHMCatS0010V'
p3198
(dp3199
g12
F0.0
sg20
S'NICHE-002 B'
p3200
sg29
F-2.0
sg37
F-2.0
sg45
I10
sg53
F-2.0
sg61
F-2.0
sg69
F-2.0
sg77
F0.0
sg85
F-2.0
sg93
F-2.0
sg101
F0.85
sg109
S'NICHE-002'
p3201
sg118
g3
(g784
S'0\xa8\x1bgj\x94\x8f?'
p3202
tp3203
Rp3204
sg126
F-2.0
sg134
g1411
sg143
F-2.0
sg151
F0.0
sg159
g197
sg161
(lp3205
g163
asg347
g197
sg356
S'NICHE'
p3206
sg365
F-2.0
sg373
F-2.0
sg381
S'2'
p3207
sg383
(dp3208
g385
(dp3209
g394
F3.0
sg402
F1.0
sg410
F0.0
sg418
F0.0
sg426
F1.0
sg434
F0.0
sg442
S"'early mars'"
p3210
sg451
F6.0
sg459
F0.0
sg467
F1.000001
sg475
F0.01
sg483
F1.0
sg491
F0.0
sg499
F0.8
sg507
F10.0
sg515
F1.000001
sg523
F30.0
sg531
F1.5
sg539
F44.0
sg547
F0.0
sg555
F1.0
sg563
F30.0
sg571
S"'maximum greenhouse'"
p3211
sg580
F0.3
sg588
F5.5e+39
sg596
F0.01
sg604
F1.5
sg612
F2.0
sg620
F3.0
sg628
S'PARSEC'
p3212
sg637
S'PARSEC'
p3213
sg646
F1.0
sg654
F1.0
sg662
F5.5e+39
sg670
g671
sg679
F0.1
sg687
S'BHMCatS0010V'
p3214
sg696
g697
sg705
F3.0
sg713
S'NICHE-002'
p3215
sg722
S"'recent venus'"
p3216
sg731
S"'runaway greenhouse'"
p3217
sg740
F1.0
sg748
g749
sg757
F0.01
sg765
F0.3
sssg773
F-2.0
sg781
F-1.0
sg797
g197
sg806
F1.0
sg814
F-2.0
sg822
F-2.0
sg830
F-2.0
sg838
F-2.0
sg846
F-2.0
sg854
F0.5
sg862
F0.0
sg870
F-1.0
sg878
g197
sg886
F-2.0
sg894
F0.85
sg902
g903
sg911
S'NICHE-002 A'
p3218
sg920
F-2.0
sg928
F-1.0
sg936
F-2.0
sg944
F-1.0
sg952
F-1.0
sg960
F-1.0
sg971
F0.177017861626706
sg979
F-1.0
sg990
F-2.0
sg998
g3198
sg1006
F-2.0
sg1014
F0.0
sg1022
F-2.0
sg1030
S'0010'
p3219
sg1039
F-1.0
sg1047
F-2.0
sg1055
F20.0
sg1063
F-2.0
sg1071
F-1.0
sg1079
F-1.0
sg1090
F-1.0
sg1098
F-2.0
ssS'BHMCatS0044P'
p3220
(dp3221
g12
F-1.0
sg20
S'CD-80 28 B'
p3222
sg29
F-1.0
sg37
F-1.0
sg45
I44
sg53
F-1.0
sg61
F0.1
sg69
F-1.0
sg77
F0.33
sg85
F4.06
sg93
F-1.0
sg101
F1.384
sg109
S'CD-80 28'
p3223
sg118
F-1.0
sg126
F-79.93870555555556
sg134
g135
sg143
F0.104
sg151
F0.41
sg159
S'K2'
p3224
sg161
(lp3225
g163
asg347
g197
sg356
S'EkCat'
p3226
sg365
F3.36193240197991
sg373
F-1.0
sg381
g2007
sg383
(dp3227
g385
(dp3228
g394
F3.0
sg402
F1.0
sg410
F0.0
sg418
F0.0
sg426
F1.0
sg434
F0.0
sg442
S"'early mars'"
p3229
sg451
F6.0
sg459
F0.0
sg467
F1.000001
sg475
F0.01
sg483
F1.0
sg491
F0.0
sg499
F0.8
sg507
F10.0
sg515
F1.000001
sg523
F30.0
sg531
F1.5
sg539
F44.0
sg547
F0.0
sg555
F1.0
sg563
F30.0
sg571
S"'maximum greenhouse'"
p3230
sg580
F0.3
sg588
F5.5e+39
sg596
F0.01
sg604
F1.5
sg612
F2.0
sg620
F3.0
sg628
S'PARSEC'
p3231
sg637
S'PARSEC'
p3232
sg646
F1.0
sg654
F1.0
sg662
F5.5e+39
sg670
g671
sg679
F0.1
sg687
S'BHMCatS0044P'
p3233
sg696
g697
sg705
F3.0
sg713
S'CD-80 28'
p3234
sg722
S"'recent venus'"
p3235
sg731
S"'runaway greenhouse'"
p3236
sg740
F1.0
sg748
g749
sg757
F0.01
sg765
F0.3
sssg773
F3.57835330017799
sg781
F-1.0
sg797
S'2008AN....329..835B;'
p3237
sg806
F1.38
sg814
F3.16
sg822
F-1.0
sg830
F-1.0
sg838
F80.4
sg846
F-1.0
sg854
F0.0
sg862
F0.055
sg870
F7.0
sg878
g197
sg886
F-1.0
sg894
F1.00289855072464
sg902
g903
sg911
S'CD-80 28 A'
p3238
sg920
F1.0939444444444444
sg928
F-1.0
sg936
F-1.0
sg944
F71.0
sg952
F-1.0
sg960
F-1.0
sg971
F0.108919804812834
sg979
F-1.0
sg990
F10.177
sg998
g3220
sg1006
F-1.0
sg1014
F0.055
sg1022
F-1.0
sg1030
S'0044'
p3239
sg1039
F-1.0
sg1047
F-1.0
sg1055
F8.069406
sg1063
F-1.0
sg1071
F-1.0
sg1079
F-1.0
sg1090
F-1.0
sg1098
F-1.0
ssS'BHMCatS0051P'
p3240
(dp3241
g12
F-1.0
sg20
S'BD-02 873 B'
p3242
sg29
F-1.0
sg37
F-1.0
sg45
I51
sg53
F-1.0
sg61
F0.196
sg69
F-1.0
sg77
F0.29
sg85
F1.43
sg93
F-1.0
sg101
F1.179
sg109
S'BD-02 873'
p3243
sg118
F-1.0
sg126
F-0.26017500000000005
sg134
g135
sg143
F0.197
sg151
F0.26
sg159
S'G3.5'
p3244
sg161
(lp3245
g163
asg347
g197
sg356
S'EkCat'
p3246
sg365
F4.19869010917852
sg373
F-1.0
sg381
S'40'
p3247
sg383
(dp3248
g385
(dp3249
g394
F3.0
sg402
F1.0
sg410
F0.0
sg418
F0.0
sg426
F1.0
sg434
F0.0
sg442
S"'early mars'"
p3250
sg451
F6.0
sg459
F0.0
sg467
F1.000001
sg475
F0.01
sg483
F1.0
sg491
F0.0
sg499
F0.8
sg507
F10.0
sg515
F1.000001
sg523
F30.0
sg531
F1.5
sg539
F44.0
sg547
F0.0
sg555
F1.0
sg563
F30.0
sg571
S"'maximum greenhouse'"
p3251
sg580
F0.3
sg588
F5.5e+39
sg596
F0.01
sg604
F1.5
sg612
F2.0
sg620
F3.0
sg628
S'PARSEC'
p3252
sg637
S'PARSEC'
p3253
sg646
F1.0
sg654
F1.0
sg662
F5.5e+39
sg670
g671
sg679
F0.1
sg687
S'BHMCatS0051P'
p3254
sg696
g697
sg705
F3.0
sg713
S'BD-02 873'
p3255
sg722
S"'recent venus'"
p3256
sg731
S"'runaway greenhouse'"
p3257
sg740
F1.0
sg748
g749
sg757
F0.01
sg765
F0.3
sssg773
F4.14665265525305
sg781
F-1.0
sg797
S'2007A&A...474..653V;'
p3258
sg806
F1.293
sg814
F1.59
sg822
F-1.0
sg830
F-1.0
sg838
F88.5
sg846
F-1.0
sg854
F0.132
sg862
F0.009
sg870
F17.0
sg878
g197
sg886
F-1.0
sg894
F0.911832946635731
sg902
g903
sg911
S'BD-02 873 A'
p3259
sg920
F4.344713888888888
sg928
F-1.0
sg936
F-1.0
sg944
F129.0
sg952
F-1.0
sg960
F-1.0
sg971
F0.0919767240641711
sg979
F-1.0
sg990
F8.621
sg998
g3240
sg1006
F-1.0
sg1014
F0.009
sg1022
F-1.0
sg1030
S'0051'
p3260
sg1039
F-1.0
sg1047
F-1.0
sg1055
F6.47649
sg1063
F-1.0
sg1071
F-1.0
sg1079
F-1.0
sg1090
F-1.0
sg1098
F-1.0
ssS'BHMCatS0014V'
p3261
(dp3262
g12
F0.0
sg20
S'NICHE-006 B'
p3263
sg29
F-2.0
sg37
F-2.0
sg45
I14
sg53
F-2.0
sg61
F-2.0
sg69
F-2.0
sg77
F0.0
sg85
F-2.0
sg93
F-2.0
sg101
F0.55
sg109
S'NICHE-006'
p3264
sg118
g3
(g784
S'0\xa8\x1bgj\x94\x8f?'
p3265
tp3266
Rp3267
sg126
F-2.0
sg134
g1411
sg143
F-2.0
sg151
F0.0
sg159
g197
sg161
(lp3268
g163
asg347
g197
sg356
S'NICHE'
p3269
sg365
F-2.0
sg373
F-2.0
sg381
g1722
sg383
(dp3270
g385
(dp3271
g394
F3.0
sg402
F1.0
sg410
F0.0
sg418
F0.0
sg426
F1.0
sg434
F0.0
sg442
S"'early mars'"
p3272
sg451
F6.0
sg459
F0.0
sg467
F1.000001
sg475
F0.01
sg483
F1.0
sg491
F0.0
sg499
F0.8
sg507
F10.0
sg515
F1.000001
sg523
F30.0
sg531
F1.5
sg539
F44.0
sg547
F0.0
sg555
F1.0
sg563
F30.0
sg571
S"'maximum greenhouse'"
p3273
sg580
F0.3
sg588
F5.5e+39
sg596
F0.01
sg604
F1.5
sg612
F2.0
sg620
F3.0
sg628
S'PARSEC'
p3274
sg637
S'PARSEC'
p3275
sg646
F1.0
sg654
F1.0
sg662
F5.5e+39
sg670
g671
sg679
F0.1
sg687
S'BHMCatS0014V'
p3276
sg696
g697
sg705
F3.0
sg713
S'NICHE-006'
p3277
sg722
S"'recent venus'"
p3278
sg731
S"'runaway greenhouse'"
p3279
sg740
F1.0
sg748
g749
sg757
F0.01
sg765
F0.3
sssg773
F-2.0
sg781
F-1.0
sg797
g197
sg806
F1.0
sg814
F-2.0
sg822
F-2.0
sg830
F-2.0
sg838
F-2.0
sg846
F-2.0
sg854
F0.1
sg862
F0.0
sg870
F-1.0
sg878
g197
sg886
F-2.0
sg894
F0.55
sg902
g903
sg911
S'NICHE-006 A'
p3280
sg920
F-2.0
sg928
F-1.0
sg936
F-2.0
sg944
F-1.0
sg952
F-1.0
sg960
F-1.0
sg971
F0.118714722140125
sg979
F-1.0
sg990
F-2.0
sg998
g3261
sg1006
F-2.0
sg1014
F0.0
sg1022
F-2.0
sg1030
S'0014'
p3281
sg1039
F-1.0
sg1047
F-2.0
sg1055
F12.0
sg1063
F-2.0
sg1071
F-1.0
sg1079
F-1.0
sg1090
F-1.0
sg1098
F-2.0
ssS'BHMCatS0012V'
p3282
(dp3283
g12
F0.0
sg20
S'NICHE-004 B'
p3284
sg29
F-2.0
sg37
F-2.0
sg45
I12
sg53
F-2.0
sg61
F-2.0
sg69
F-2.0
sg77
F0.0
sg85
F-2.0
sg93
F-2.0
sg101
F0.7
sg109
S'NICHE-004'
p3285
sg118
g3
(g784
S'0\xa8\x1bgj\x94\x8f?'
p3286
tp3287
Rp3288
sg126
F-2.0
sg134
g1411
sg143
F-2.0
sg151
F0.0
sg159
g197
sg161
(lp3289
g163
asg347
g197
sg356
S'NICHE'
p3290
sg365
F-2.0
sg373
F-2.0
sg381
g3064
sg383
(dp3291
g385
(dp3292
g394
F3.0
sg402
F1.0
sg410
F0.0
sg418
F0.0
sg426
F1.0
sg434
F0.0
sg442
S"'early mars'"
p3293
sg451
F6.0
sg459
F0.0
sg467
F1.000001
sg475
F0.01
sg483
F1.0
sg491
F0.0
sg499
F0.8
sg507
F10.0
sg515
F1.000001
sg523
F30.0
sg531
F1.5
sg539
F44.0
sg547
F0.0
sg555
F1.0
sg563
F30.0
sg571
S"'maximum greenhouse'"
p3294
sg580
F0.3
sg588
F5.5e+39
sg596
F0.01
sg604
F1.5
sg612
F2.0
sg620
F3.0
sg628
S'PARSEC'
p3295
sg637
S'PARSEC'
p3296
sg646
F1.0
sg654
F1.0
sg662
F5.5e+39
sg670
g671
sg679
F0.1
sg687
S'BHMCatS0012V'
p3297
sg696
g697
sg705
F3.0
sg713
S'NICHE-004'
p3298
sg722
S"'recent venus'"
p3299
sg731
S"'runaway greenhouse'"
p3300
sg740
F1.0
sg748
g749
sg757
F0.01
sg765
F0.3
sssg773
F-2.0
sg781
F-1.0
sg797
g197
sg806
F1.0
sg814
F-2.0
sg822
F-2.0
sg830
F-2.0
sg838
F-2.0
sg846
F-2.0
sg854
F0.4
sg862
F0.0
sg870
F-1.0
sg878
g197
sg886
F-2.0
sg894
F0.7
sg902
g903
sg911
S'NICHE-004 A'
p3301
sg920
F-2.0
sg928
F-1.0
sg936
F-2.0
sg944
F-1.0
sg952
F-1.0
sg960
F-1.0
sg971
F0.142063877260615
sg979
F-1.0
sg990
F-2.0
sg998
g3282
sg1006
F-2.0
sg1014
F0.0
sg1022
F-2.0
sg1030
S'0012'
p3302
sg1039
F-1.0
sg1047
F-2.0
sg1055
F15.0
sg1063
F-2.0
sg1071
F-1.0
sg1079
F-1.0
sg1090
F-1.0
sg1098
F-2.0
ssS'BHMCatS0041P'
p3303
(dp3304
g12
F-1.0
sg20
S'ASAS J162637-5042.8  B'
p3305
sg29
F-1.0
sg37
F-1.0
sg45
I41
sg53
F-1.0
sg61
F0.151
sg69
F-1.0
sg77
F0.33
sg85
F2.25
sg93
F-1.0
sg101
F1.246
sg109
S'ASAS J162637-5042.8'
p3306
sg118
F-1.0
sg126
F-49.2863
sg134
g135
sg143
F0.13
sg151
F0.33
sg159
S'G1'
p3307
sg161
(lp3308
g163
asg347
g197
sg356
S'EkCat'
p3309
sg365
F3.82900138511398
sg373
F-1.0
sg381
S'143'
p3310
sg383
(dp3311
g385
(dp3312
g394
F3.0
sg402
F1.0
sg410
F0.0
sg418
F0.0
sg426
F1.0
sg434
F0.0
sg442
S"'early mars'"
p3313
sg451
F6.0
sg459
F0.0
sg467
F1.000001
sg475
F0.01
sg483
F1.0
sg491
F0.0
sg499
F0.8
sg507
F10.0
sg515
F1.000001
sg523
F30.0
sg531
F1.5
sg539
F44.0
sg547
F0.0
sg555
F1.0
sg563
F30.0
sg571
S"'maximum greenhouse'"
p3314
sg580
F0.3
sg588
F5.5e+39
sg596
F0.01
sg604
F1.5
sg612
F2.0
sg620
F3.0
sg628
S'PARSEC'
p3315
sg637
S'PARSEC'
p3316
sg646
F1.0
sg654
F1.0
sg662
F5.5e+39
sg670
g671
sg679
F0.1
sg687
S'BHMCatS0041P'
p3317
sg696
g697
sg705
F3.0
sg713
S'ASAS J162637-5042.8'
p3318
sg722
S"'recent venus'"
p3319
sg731
S"'runaway greenhouse'"
p3320
sg740
F1.0
sg748
g749
sg757
F0.01
sg765
F0.3
sssg773
F3.7917898139359
sg781
F-1.0
sg797
S'2008AN....329..835B;'
p3321
sg806
F1.469
sg814
F2.55
sg822
F-1.0
sg830
F-1.0
sg838
F85.6
sg846
F-1.0
sg854
F0.019
sg862
F0.008
sg870
F19.0
sg878
g197
sg886
F-1.0
sg894
F0.848196051735875
sg902
g903
sg911
S'ASAS J162637-5042.8  A'
p3322
sg920
F16.443722222222224
sg928
F-1.0
sg936
F-1.0
sg944
F200.0
sg952
F-1.0
sg960
F-1.0
sg971
F0.117112063636364
sg979
F-1.0
sg990
F9.868
sg998
g3303
sg1006
F-1.0
sg1014
F0.007
sg1022
F-1.0
sg1030
S'0041'
p3323
sg1039
F-1.0
sg1047
F-1.0
sg1055
F8.87621
sg1063
F-1.0
sg1071
F-1.0
sg1079
F-1.0
sg1090
F-1.0
sg1098
F-1.0
ssS'BHMCatS0016V'
p3324
(dp3325
g12
F0.0
sg20
S'NICHE-008 B'
p3326
sg29
F-2.0
sg37
F-2.0
sg45
I16
sg53
F-2.0
sg61
F-2.0
sg69
F-2.0
sg77
F0.0
sg85
F-2.0
sg93
F-2.0
sg101
F0.7
sg109
S'NICHE-008'
p3327
sg118
g3
(g784
S'0\xa8\x1bgj\x94\x8f?'
p3328
tp3329
Rp3330
sg126
F-2.0
sg134
g1411
sg143
F-2.0
sg151
F0.0
sg159
g197
sg161
(lp3331
g163
asg347
g197
sg356
S'NICHE'
p3332
sg365
F-2.0
sg373
F-2.0
sg381
g1518
sg383
(dp3333
g385
(dp3334
g394
F3.0
sg402
F1.0
sg410
F0.0
sg418
F0.0
sg426
F1.0
sg434
F0.0
sg442
S"'early mars'"
p3335
sg451
F6.0
sg459
F0.0
sg467
F1.000001
sg475
F0.01
sg483
F1.0
sg491
F0.0
sg499
F0.8
sg507
F10.0
sg515
F1.000001
sg523
F30.0
sg531
F1.5
sg539
F44.0
sg547
F0.0
sg555
F1.0
sg563
F30.0
sg571
S"'maximum greenhouse'"
p3336
sg580
F0.3
sg588
F5.5e+39
sg596
F0.01
sg604
F1.5
sg612
F2.0
sg620
F3.0
sg628
S'PARSEC'
p3337
sg637
S'PARSEC'
p3338
sg646
F1.0
sg654
F1.0
sg662
F5.5e+39
sg670
g671
sg679
F0.1
sg687
S'BHMCatS0016V'
p3339
sg696
g697
sg705
F3.0
sg713
S'NICHE-008'
p3340
sg722
S"'recent venus'"
p3341
sg731
S"'runaway greenhouse'"
p3342
sg740
F1.0
sg748
g749
sg757
F0.01
sg765
F0.3
sssg773
F-2.0
sg781
F-1.0
sg797
g197
sg806
F0.85
sg814
F-2.0
sg822
F-2.0
sg830
F-2.0
sg838
F-2.0
sg846
F-2.0
sg854
F0.3
sg862
F0.0
sg870
F-1.0
sg878
g197
sg886
F-2.0
sg894
F0.823529411764706
sg902
g903
sg911
S'NICHE-008 A'
p3343
sg920
F-2.0
sg928
F-1.0
sg936
F-2.0
sg944
F-1.0
sg952
F-1.0
sg960
F-1.0
sg971
F0.166879790842003
sg979
F-1.0
sg990
F-2.0
sg998
g3324
sg1006
F-2.0
sg1014
F0.0
sg1022
F-2.0
sg1030
S'0016'
p3344
sg1039
F-1.0
sg1047
F-2.0
sg1055
F20.0
sg1063
F-2.0
sg1071
F-1.0
sg1079
F-1.0
sg1090
F-1.0
sg1098
F-2.0
ssS'BHMCatS0002D'
p3345
(dp3346
g12
F-0.263
sg20
S'Kepler-34 B'
p3347
sg29
F0.148
sg37
F-1.0
sg45
I2
sg53
F5867.0
sg61
F-1.0
sg69
F-1.0
sg77
F0.003
sg85
F1.093
sg93
F2.9
sg101
F1.021
sg109
S'Kepler-34'
p3348
sg118
g3
(g784
S'\x949l\xffz\xc4\x81?'
p3349
tp3350
Rp3351
sg126
F44.64156111111111
sg134
g1278
sg143
F-1.0
sg151
F0.003
sg159
S'G0V'
p3352
sg161
(lp3353
(dp3354
g171
S'BHMCatP0002'
p3355
sg180
F3.1797327617963234
sg188
F0.182
sg196
S'BHMCatS002D'
p3356
sg205
F0.018
sg213
g3207
sg222
S'2012Natur.481..475W;2012yCatp038048101W'
p3357
sg231
F8.573204834405901
sg239
S'0002'
p3358
sg248
F288.822
sg256
F0.0009
sg264
S'Kepler-34'
p3359
sg273
F69.95412075951911
sg281
F-1.0
sg289
F1.0896
sg297
F0.072
sg305
F0.0
sg313
F2.069
sg321
S'Kepler-34b'
p3360
sg330
g1288
sg339
F0.14587913985245643
sasg347
S'G0V'
p3361
sg356
S'KIC'
p3362
sg365
F-1.0
sg373
F-1.0
sg381
S'8572936'
p3363
sg383
(dp3364
S'BHMCatP0002'
p3365
(dp3366
g394
F3.0
sg402
F1.0
sg410
F0.0
sg418
F0.0
sg426
F2.45
sg434
F-0.263
sg442
S"'early mars'"
p3367
sg451
F6.0
sg459
F0.0
sg467
F8.5732048344059
sg475
F0.01
sg483
F1.0
sg491
F-0.263
sg499
F0.8
sg507
F10.0
sg515
F69.9541207595191
sg523
F30.0
sg531
F1.5
sg539
F44.0
sg547
F0.0
sg555
F1.0
sg563
F30.0
sg571
S"'maximum greenhouse'"
p3368
sg580
F0.3
sg588
F5.5e+39
sg596
F0.01
sg604
F1.5
sg612
F2.0
sg620
F3.0
sg628
S'PARSEC'
p3369
sg637
S'PARSEC'
p3370
sg646
F1.0
sg654
F2.45
sg662
F5.5e+39
sg670
S'BHMCatP0002'
p3371
sg679
F0.1
sg687
S'BHMCatS0002D'
p3372
sg696
S'Kepler-34b'
p3373
sg705
F3.0
sg713
S'Kepler-34'
p3374
sg722
S"'recent venus'"
p3375
sg731
S"'runaway greenhouse'"
p3376
sg740
F2.45
sg748
S"'Earth'"
p3377
sg757
F0.01
sg765
F0.3
sssg773
F4.442
sg781
g3
(g784
S'\x1e6\x10i\xba\xca0@'
p3378
tp3379
Rp3380
sg797
S'2012Natur.481..475W; 2012yCatp038048101W;'
p3381
sg806
F1.048
sg814
F1.162
sg822
F1.5
sg830
F5913.0
sg838
F89.8584
sg846
F-1.0
sg854
F0.5209
sg862
F0.003
sg870
F-1.0
sg878
S'BHMCatP0002;'
p3382
sg886
F130.0
sg894
F0.974236641221374
sg902
g903
sg911
S'Kepler-34 A'
p3383
sg920
F19.762388055555554
sg928
F-1.0
sg936
F16.5
sg944
F-1.0
sg952
F71.436
sg960
F-1.0
sg971
F0.2288
sg979
F-1.0
sg990
F14.875
sg998
g3345
sg1006
F-1.0
sg1014
F0.002
sg1022
F0.5
sg1030
S'0002'
p3384
sg1039
F-0.263
sg1047
F2.0
sg1055
F27.796
sg1063
F3.5
sg1071
g3
(g784
S'\x949l\xffz\xc4\x81?'
p3385
tp3386
Rp3387
sg1079
g3
(g784
S'\x90\xab[\n\xd50\x03@'
p3388
tp3389
Rp3390
sg1090
g3
(g784
S'\xc4d2\x8d\x9a\xbf\x99@'
p3391
tp3392
Rp3393
sg1098
F130.0
ssS'FieldsType'
p3394
(dp3395
g12
g3
(g4
(S'S5'
p3396
I0
I1
tp3397
Rp3398
(I3
S'|'
p3399
NNNI5
I1
I0
tp3400
bS'float'
p3401
tp3402
Rp3403
sg20
g3
(g4
(S'S3'
p3404
I0
I1
tp3405
Rp3406
(I3
S'|'
p3407
NNNI3
I1
I0
tp3408
bS'str'
p3409
tp3410
Rp3411
sg29
g3
(g4
(S'S5'
p3412
I0
I1
tp3413
Rp3414
(I3
S'|'
p3415
NNNI5
I1
I0
tp3416
bS'float'
p3417
tp3418
Rp3419
sg37
g3
(g4
(S'S5'
p3420
I0
I1
tp3421
Rp3422
(I3
S'|'
p3423
NNNI5
I1
I0
tp3424
bS'float'
p3425
tp3426
Rp3427
sg45
g3
(g4
(S'S3'
p3428
I0
I1
tp3429
Rp3430
(I3
S'|'
p3431
NNNI3
I1
I0
tp3432
bS'int'
p3433
tp3434
Rp3435
sg53
g3
(g4
(S'S5'
p3436
I0
I1
tp3437
Rp3438
(I3
S'|'
p3439
NNNI5
I1
I0
tp3440
bS'float'
p3441
tp3442
Rp3443
sg61
g3
(g4
(S'S5'
p3444
I0
I1
tp3445
Rp3446
(I3
S'|'
p3447
NNNI5
I1
I0
tp3448
bS'float'
p3449
tp3450
Rp3451
sg69
g3
(g4
(S'S5'
p3452
I0
I1
tp3453
Rp3454
(I3
S'|'
p3455
NNNI5
I1
I0
tp3456
bS'float'
p3457
tp3458
Rp3459
sg77
g3
(g4
(S'S5'
p3460
I0
I1
tp3461
Rp3462
(I3
S'|'
p3463
NNNI5
I1
I0
tp3464
bS'float'
p3465
tp3466
Rp3467
sg85
g3
(g4
(S'S5'
p3468
I0
I1
tp3469
Rp3470
(I3
S'|'
p3471
NNNI5
I1
I0
tp3472
bS'float'
p3473
tp3474
Rp3475
sg93
g3
(g4
(S'S5'
p3476
I0
I1
tp3477
Rp3478
(I3
S'|'
p3479
NNNI5
I1
I0
tp3480
bS'float'
p3481
tp3482
Rp3483
sg101
g3
(g4
(S'S5'
p3484
I0
I1
tp3485
Rp3486
(I3
S'|'
p3487
NNNI5
I1
I0
tp3488
bS'float'
p3489
tp3490
Rp3491
sg109
g3
(g4
(S'S3'
p3492
I0
I1
tp3493
Rp3494
(I3
S'|'
p3495
NNNI3
I1
I0
tp3496
bS'str'
p3497
tp3498
Rp3499
sg118
g3
(g4
(S'S5'
p3500
I0
I1
tp3501
Rp3502
(I3
S'|'
p3503
NNNI5
I1
I0
tp3504
bS'float'
p3505
tp3506
Rp3507
sg126
g3
(g4
(S'S3'
p3508
I0
I1
tp3509
Rp3510
(I3
S'|'
p3511
NNNI3
I1
I0
tp3512
bS'dms'
p3513
tp3514
Rp3515
sg134
g3
(g4
(S'S3'
p3516
I0
I1
tp3517
Rp3518
(I3
S'|'
p3519
NNNI3
I1
I0
tp3520
bS'str'
p3521
tp3522
Rp3523
sg143
g3
(g4
(S'S5'
p3524
I0
I1
tp3525
Rp3526
(I3
S'|'
p3527
NNNI5
I1
I0
tp3528
bS'float'
p3529
tp3530
Rp3531
sg151
g3
(g4
(S'S5'
p3532
I0
I1
tp3533
Rp3534
(I3
S'|'
p3535
NNNI5
I1
I0
tp3536
bS'float'
p3537
tp3538
Rp3539
sg159
g3
(g4
(S'S3'
p3540
I0
I1
tp3541
Rp3542
(I3
S'|'
p3543
NNNI3
I1
I0
tp3544
bS'str'
p3545
tp3546
Rp3547
sg347
g3
(g4
(S'S3'
p3548
I0
I1
tp3549
Rp3550
(I3
S'|'
p3551
NNNI3
I1
I0
tp3552
bS'str'
p3553
tp3554
Rp3555
sg356
g3
(g4
(S'S3'
p3556
I0
I1
tp3557
Rp3558
(I3
S'|'
p3559
NNNI3
I1
I0
tp3560
bS'str'
p3561
tp3562
Rp3563
sg365
g3
(g4
(S'S5'
p3564
I0
I1
tp3565
Rp3566
(I3
S'|'
p3567
NNNI5
I1
I0
tp3568
bS'float'
p3569
tp3570
Rp3571
sg373
g3
(g4
(S'S5'
p3572
I0
I1
tp3573
Rp3574
(I3
S'|'
p3575
NNNI5
I1
I0
tp3576
bS'float'
p3577
tp3578
Rp3579
sg381
g3
(g4
(S'S3'
p3580
I0
I1
tp3581
Rp3582
(I3
S'|'
p3583
NNNI3
I1
I0
tp3584
bS'str'
p3585
tp3586
Rp3587
sg773
g3
(g4
(S'S5'
p3588
I0
I1
tp3589
Rp3590
(I3
S'|'
p3591
NNNI5
I1
I0
tp3592
bS'float'
p3593
tp3594
Rp3595
sg781
g3
(g4
(S'S5'
p3596
I0
I1
tp3597
Rp3598
(I3
S'|'
p3599
NNNI5
I1
I0
tp3600
bS'float'
p3601
tp3602
Rp3603
sg797
g3
(g4
(S'S3'
p3604
I0
I1
tp3605
Rp3606
(I3
S'|'
p3607
NNNI3
I1
I0
tp3608
bS'str'
p3609
tp3610
Rp3611
sg806
g3
(g4
(S'S5'
p3612
I0
I1
tp3613
Rp3614
(I3
S'|'
p3615
NNNI5
I1
I0
tp3616
bS'float'
p3617
tp3618
Rp3619
sg814
g3
(g4
(S'S5'
p3620
I0
I1
tp3621
Rp3622
(I3
S'|'
p3623
NNNI5
I1
I0
tp3624
bS'float'
p3625
tp3626
Rp3627
sg822
g3
(g4
(S'S5'
p3628
I0
I1
tp3629
Rp3630
(I3
S'|'
p3631
NNNI5
I1
I0
tp3632
bS'float'
p3633
tp3634
Rp3635
sg830
g3
(g4
(S'S5'
p3636
I0
I1
tp3637
Rp3638
(I3
S'|'
p3639
NNNI5
I1
I0
tp3640
bS'float'
p3641
tp3642
Rp3643
sg838
g3
(g4
(S'S5'
p3644
I0
I1
tp3645
Rp3646
(I3
S'|'
p3647
NNNI5
I1
I0
tp3648
bS'float'
p3649
tp3650
Rp3651
sg846
g3
(g4
(S'S5'
p3652
I0
I1
tp3653
Rp3654
(I3
S'|'
p3655
NNNI5
I1
I0
tp3656
bS'float'
p3657
tp3658
Rp3659
sg854
g3
(g4
(S'S5'
p3660
I0
I1
tp3661
Rp3662
(I3
S'|'
p3663
NNNI5
I1
I0
tp3664
bS'float'
p3665
tp3666
Rp3667
sg862
g3
(g4
(S'S5'
p3668
I0
I1
tp3669
Rp3670
(I3
S'|'
p3671
NNNI5
I1
I0
tp3672
bS'float'
p3673
tp3674
Rp3675
sg870
g3
(g4
(S'S5'
p3676
I0
I1
tp3677
Rp3678
(I3
S'|'
p3679
NNNI5
I1
I0
tp3680
bS'float'
p3681
tp3682
Rp3683
sg878
g3
(g4
(S'S3'
p3684
I0
I1
tp3685
Rp3686
(I3
S'|'
p3687
NNNI3
I1
I0
tp3688
bS'str'
p3689
tp3690
Rp3691
sg886
g3
(g4
(S'S5'
p3692
I0
I1
tp3693
Rp3694
(I3
S'|'
p3695
NNNI5
I1
I0
tp3696
bS'float'
p3697
tp3698
Rp3699
sg894
g3
(g4
(S'S5'
p3700
I0
I1
tp3701
Rp3702
(I3
S'|'
p3703
NNNI5
I1
I0
tp3704
bS'float'
p3705
tp3706
Rp3707
sg902
g3
(g4
(S'S3'
p3708
I0
I1
tp3709
Rp3710
(I3
S'|'
p3711
NNNI3
I1
I0
tp3712
bS'str'
p3713
tp3714
Rp3715
sg911
g3
(g4
(S'S3'
p3716
I0
I1
tp3717
Rp3718
(I3
S'|'
p3719
NNNI3
I1
I0
tp3720
bS'str'
p3721
tp3722
Rp3723
sg920
g3
(g4
(S'S3'
p3724
I0
I1
tp3725
Rp3726
(I3
S'|'
p3727
NNNI3
I1
I0
tp3728
bS'dms'
p3729
tp3730
Rp3731
sg928
g3
(g4
(S'S5'
p3732
I0
I1
tp3733
Rp3734
(I3
S'|'
p3735
NNNI5
I1
I0
tp3736
bS'float'
p3737
tp3738
Rp3739
sg936
g3
(g4
(S'S5'
p3740
I0
I1
tp3741
Rp3742
(I3
S'|'
p3743
NNNI5
I1
I0
tp3744
bS'float'
p3745
tp3746
Rp3747
sg944
g3
(g4
(S'S5'
p3748
I0
I1
tp3749
Rp3750
(I3
S'|'
p3751
NNNI5
I1
I0
tp3752
bS'float'
p3753
tp3754
Rp3755
sg952
g3
(g4
(S'S5'
p3756
I0
I1
tp3757
Rp3758
(I3
S'|'
p3759
NNNI5
I1
I0
tp3760
bS'float'
p3761
tp3762
Rp3763
sg960
g3
(g4
(S'S5'
p3764
I0
I1
tp3765
Rp3766
(I3
S'|'
p3767
NNNI5
I1
I0
tp3768
bS'float'
p3769
tp3770
Rp3771
sg971
g3
(g4
(S'S5'
p3772
I0
I1
tp3773
Rp3774
(I3
S'|'
p3775
NNNI5
I1
I0
tp3776
bS'float'
p3777
tp3778
Rp3779
sg979
g3
(g4
(S'S5'
p3780
I0
I1
tp3781
Rp3782
(I3
S'|'
p3783
NNNI5
I1
I0
tp3784
bS'float'
p3785
tp3786
Rp3787
sg990
g3
(g4
(S'S5'
p3788
I0
I1
tp3789
Rp3790
(I3
S'|'
p3791
NNNI5
I1
I0
tp3792
bS'float'
p3793
tp3794
Rp3795
sg998
g3
(g4
(S'S3'
p3796
I0
I1
tp3797
Rp3798
(I3
S'|'
p3799
NNNI3
I1
I0
tp3800
bS'str'
p3801
tp3802
Rp3803
sg1006
g3
(g4
(S'S5'
p3804
I0
I1
tp3805
Rp3806
(I3
S'|'
p3807
NNNI5
I1
I0
tp3808
bS'float'
p3809
tp3810
Rp3811
sg1014
g3
(g4
(S'S5'
p3812
I0
I1
tp3813
Rp3814
(I3
S'|'
p3815
NNNI5
I1
I0
tp3816
bS'float'
p3817
tp3818
Rp3819
sg1022
g3
(g4
(S'S5'
p3820
I0
I1
tp3821
Rp3822
(I3
S'|'
p3823
NNNI5
I1
I0
tp3824
bS'float'
p3825
tp3826
Rp3827
sg1030
g3
(g4
(S'S3'
p3828
I0
I1
tp3829
Rp3830
(I3
S'|'
p3831
NNNI3
I1
I0
tp3832
bS'str'
p3833
tp3834
Rp3835
sg1039
g3
(g4
(S'S5'
p3836
I0
I1
tp3837
Rp3838
(I3
S'|'
p3839
NNNI5
I1
I0
tp3840
bS'float'
p3841
tp3842
Rp3843
sg1047
g3
(g4
(S'S5'
p3844
I0
I1
tp3845
Rp3846
(I3
S'|'
p3847
NNNI5
I1
I0
tp3848
bS'float'
p3849
tp3850
Rp3851
sg1055
g3
(g4
(S'S5'
p3852
I0
I1
tp3853
Rp3854
(I3
S'|'
p3855
NNNI5
I1
I0
tp3856
bS'float'
p3857
tp3858
Rp3859
sg1063
g3
(g4
(S'S5'
p3860
I0
I1
tp3861
Rp3862
(I3
S'|'
p3863
NNNI5
I1
I0
tp3864
bS'float'
p3865
tp3866
Rp3867
sg1071
g3
(g4
(S'S5'
p3868
I0
I1
tp3869
Rp3870
(I3
S'|'
p3871
NNNI5
I1
I0
tp3872
bS'float'
p3873
tp3874
Rp3875
sg1079
g3
(g4
(S'S5'
p3876
I0
I1
tp3877
Rp3878
(I3
S'|'
p3879
NNNI5
I1
I0
tp3880
bS'float'
p3881
tp3882
Rp3883
sg1090
g3
(g4
(S'S5'
p3884
I0
I1
tp3885
Rp3886
(I3
S'|'
p3887
NNNI5
I1
I0
tp3888
bS'float'
p3889
tp3890
Rp3891
sg1098
g3
(g4
(S'S5'
p3892
I0
I1
tp3893
Rp3894
(I3
S'|'
p3895
NNNI5
I1
I0
tp3896
bS'float'
p3897
tp3898
Rp3899
ss.