(dp0
S'BHMCatS0045P'
p1
(dp2
cnumpy.core.multiarray
scalar
p3
(cnumpy
dtype
p4
(S'S13'
p5
I0
I1
tp6
Rp7
(I3
S'|'
p8
NNNI13
I1
I0
tp9
bS'binary_FeHfit'
p10
tp11
Rp12
F-1.0
sg3
(g4
(S'S16'
p13
I0
I1
tp14
Rp15
(I3
S'|'
p16
NNNI16
I1
I0
tp17
bS'star2_str_StarID'
p18
tp19
Rp20
S'V1143 Cyg B'
p21
sg3
(g4
(S'S10'
p22
I0
I1
tp23
Rp24
(I3
S'|'
p25
NNNI10
I1
I0
tp26
bS'star1_logg'
p27
tp28
Rp29
F4.323
sg3
(g4
(S'S16'
p30
I0
I1
tp31
Rp32
(I3
S'|'
p33
NNNI16
I1
I0
tp34
bS'binary_str_SysID'
p35
tp36
Rp37
S'V1143 Cyg'
p38
sg3
(g4
(S'S2'
p39
I0
I1
tp40
Rp41
(I3
S'|'
p42
NNNI2
I1
I0
tp43
bS'No'
p44
tp45
Rp46
I45
sg3
(g4
(S'S7'
p47
I0
I1
tp48
Rp49
(I3
S'|'
p50
NNNI7
I1
I0
tp51
bS'star2_T'
p52
tp53
Rp54
F6400.0
sg3
(g4
(S'S13'
p55
I0
I1
tp56
Rp57
(I3
S'|'
p58
NNNI13
I1
I0
tp59
bS'star2_loggerr'
p60
tp61
Rp62
F0.016
sg3
(g4
(S'S13'
p63
I0
I1
tp64
Rp65
(I3
S'|'
p66
NNNI13
I1
I0
tp67
bS'star2_Proterr'
p68
tp69
Rp70
F-1.0
sg3
(g4
(S'S10'
p71
I0
I1
tp72
Rp73
(I3
S'|'
p74
NNNI10
I1
I0
tp75
bS'star1_Rerr'
p76
tp77
Rp78
F0.023
sg3
(g4
(S'S7'
p79
I0
I1
tp80
Rp81
(I3
S'|'
p82
NNNI7
I1
I0
tp83
bS'star2_R'
p84
tp85
Rp86
F1.323
sg3
(g4
(S'S13'
p87
I0
I1
tp88
Rp89
(I3
S'|'
p90
NNNI13
I1
I0
tp91
bS'binary_taumax'
p92
tp93
Rp94
F-1.0
sg3
(g4
(S'S7'
p95
I0
I1
tp96
Rp97
(I3
S'|'
p98
NNNI7
I1
I0
tp99
bS'star2_M'
p100
tp101
Rp102
F1.347
sg3
(g4
(S'S11'
p103
I0
I1
tp104
Rp105
(I3
S'|'
p106
NNNI11
I1
I0
tp107
bS'binary_Pbin'
p108
tp109
Rp110
F7.64075217
sg3
(g4
(S'S11'
p111
I0
I1
tp112
Rp113
(I3
S'|'
p114
NNNI11
I1
I0
tp115
bS'binary_Zfit'
p116
tp117
Rp118
F-1.0
sg3
(g4
(S'S3'
p119
I0
I1
tp120
Rp121
(I3
S'|'
p122
NNNI3
I1
I0
tp123
bS'DEC'
p124
tp125
Rp126
F54.973794444444444
sg3
(g4
(S'S4'
p127
I0
I1
tp128
Rp129
(I3
S'|'
p130
NNNI4
I1
I0
tp131
bS'Type'
p132
tp133
Rp134
S'P'
p135
sg3
(g4
(S'S14'
p136
I0
I1
tp137
Rp138
(I3
S'|'
p139
NNNI14
I1
I0
tp140
bS'star2_vsinierr'
p141
tp142
Rp143
F3.0
sg3
(g4
(S'S10'
p144
I0
I1
tp145
Rp146
(I3
S'|'
p147
NNNI10
I1
I0
tp148
bS'star2_Rerr'
p149
tp150
Rp151
F0.023
sg3
(g4
(S'S15'
p152
I0
I1
tp153
Rp154
(I3
S'|'
p155
NNNI15
I1
I0
tp156
bS'star1_str_Stype'
p157
tp158
Rp159
S'F5V'
p160
sS'PlanetsData'
p161
(lp162
(dp163
g3
(g4
(S'S7'
p164
I0
I1
tp165
Rp166
(I3
S'|'
p167
NNNI7
I1
I0
tp168
bS'BHMCatP'
p169
tp170
Rp171
S'BHMCatP0000'
p172
sg3
(g4
(S'S11'
p173
I0
I1
tp174
Rp175
(I3
S'|'
p176
NNNI11
I1
I0
tp177
bS'planet_Merr'
p178
tp179
Rp180
F0.0
sg3
(g4
(S'S11'
p181
I0
I1
tp182
Rp183
(I3
S'|'
p184
NNNI11
I1
I0
tp185
bS'planet_eorb'
p186
tp187
Rp188
F0.0
sg3
(g4
(S'S7'
p189
I0
I1
tp190
Rp191
(I3
S'|'
p192
NNNI7
I1
I0
tp193
bS'BHMCatS'
p194
tp195
Rp196
S'-'
p197
sg3
(g4
(S'S14'
p198
I0
I1
tp199
Rp200
(I3
S'|'
p201
NNNI14
I1
I0
tp202
bS'planet_eorberr'
p203
tp204
Rp205
F0.0
sg3
(g4
(S'S3'
p206
I0
I1
tp207
Rp208
(I3
S'|'
p209
NNNI3
I1
I0
tp210
bS'Nop'
p211
tp212
Rp213
S'0'
p214
sg3
(g4
(S'S10'
p215
I0
I1
tp216
Rp217
(I3
S'|'
p218
NNNI10
I1
I0
tp219
bS'planet_ADS'
p220
tp221
Rp222
S'2011Sci...333.1602D;2011ApJ...741L...1W'
p223
sg3
(g4
(S'S8'
p224
I0
I1
tp225
Rp226
(I3
S'|'
p227
NNNI8
I1
I0
tp228
bS'PlanetID'
p229
tp230
Rp231
S'Earth-like'
p232
sg3
(g4
(S'S6'
p233
I0
I1
tp234
Rp235
(I3
S'|'
p236
NNNI6
I1
I0
tp237
bS'Nopstr'
p238
tp239
Rp240
S'0000'
p241
sg3
(g4
(S'S8'
p242
I0
I1
tp243
Rp244
(I3
S'|'
p245
NNNI8
I1
I0
tp246
bS'planet_R'
p247
tp248
Rp249
F1.000001
sg3
(g4
(S'S14'
p250
I0
I1
tp251
Rp252
(I3
S'|'
p253
NNNI14
I1
I0
tp254
bS'planet_aorberr'
p255
tp256
Rp257
F0.0
sg3
(g4
(S'S5'
p258
I0
I1
tp259
Rp260
(I3
S'|'
p261
NNNI5
I1
I0
tp262
bS'SysID'
p263
tp264
Rp265
S'Sun'
p266
sg3
(g4
(S'S8'
p267
I0
I1
tp268
Rp269
(I3
S'|'
p270
NNNI8
I1
I0
tp271
bS'planet_M'
p272
tp273
Rp274
F1.000001
sg3
(g4
(S'S11'
p275
I0
I1
tp276
Rp277
(I3
S'|'
p278
NNNI11
I1
I0
tp279
bS'planet_worb'
p280
tp281
Rp282
F0.0
sg3
(g4
(S'S11'
p283
I0
I1
tp284
Rp285
(I3
S'|'
p286
NNNI11
I1
I0
tp287
bS'planet_aorb'
p288
tp289
Rp290
F1.0
sg3
(g4
(S'S14'
p291
I0
I1
tp292
Rp293
(I3
S'|'
p294
NNNI14
I1
I0
tp295
bS'planet_Porberr'
p296
tp297
Rp298
F0.0
sg3
(g4
(S'S14'
p299
I0
I1
tp300
Rp301
(I3
S'|'
p302
NNNI14
I1
I0
tp303
bS'planet_worberr'
p304
tp305
Rp306
F0.0
sg3
(g4
(S'S11'
p307
I0
I1
tp308
Rp309
(I3
S'|'
p310
NNNI11
I1
I0
tp311
bS'planet_Morb'
p312
tp313
Rp314
F1.0
sg3
(g4
(S'S11'
p315
I0
I1
tp316
Rp317
(I3
S'|'
p318
NNNI11
I1
I0
tp319
bS'planet_Porb'
p320
tp321
Rp322
F0.0
sg3
(g4
(S'S4'
p323
I0
I1
tp324
Rp325
(I3
S'|'
p326
NNNI4
I1
I0
tp327
bS'Type'
p328
tp329
Rp330
S'a'
p331
sg3
(g4
(S'S11'
p332
I0
I1
tp333
Rp334
(I3
S'|'
p335
NNNI11
I1
I0
tp336
bS'planet_Rerr'
p337
tp338
Rp339
F0.0
sasg3
(g4
(S'S11'
p340
I0
I1
tp341
Rp342
(I3
S'|'
p343
NNNI11
I1
I0
tp344
bS'binary_wbin'
p345
tp346
Rp347
F-1.0
sg3
(g4
(S'S9'
p348
I0
I1
tp349
Rp350
(I3
S'|'
p351
NNNI9
I1
I0
tp352
bS'SourceCat'
p353
tp354
Rp355
S'EkCat'
p356
sg3
(g4
(S'S10'
p357
I0
I1
tp358
Rp359
(I3
S'|'
p360
NNNI10
I1
I0
tp361
bS'star2_logg'
p362
tp363
Rp364
F4.324
sg3
(g4
(S'S11'
p365
I0
I1
tp366
Rp367
(I3
S'|'
p368
NNNI11
I1
I0
tp369
bS'binary_ibin'
p370
tp371
Rp372
F87.0
sg3
(g4
(S'S8'
p373
I0
I1
tp374
Rp375
(I3
S'|'
p376
NNNI8
I1
I0
tp377
bS'SourceID'
p378
tp379
Rp380
S'199'
p381
sS'PlanetsModel'
p382
(dp383
S'BHMCatP0000'
p384
(dp385
g3
(g4
(S'S10'
p386
I0
I1
tp387
Rp388
(I3
S'|'
p389
NNNI10
I1
I0
tp390
bS'star2_Pini'
p391
tp392
Rp393
F10.0
sg3
(g4
(S'S7'
p394
I0
I1
tp395
Rp396
(I3
S'|'
p397
NNNI7
I1
I0
tp398
bS'star1_a'
p399
tp400
Rp401
F1.0
sg3
(g4
(S'S11'
p402
I0
I1
tp403
Rp404
(I3
S'|'
p405
NNNI11
I1
I0
tp406
bS'star1_taums'
p407
tp408
Rp409
F0.0
sg3
(g4
(S'S7'
p410
I0
I1
tp411
Rp412
(I3
S'|'
p413
NNNI7
I1
I0
tp414
bS'star2_Z'
p415
tp416
Rp417
F0.0
sg3
(g4
(S'S10'
p418
I0
I1
tp419
Rp420
(I3
S'|'
p421
NNNI10
I1
I0
tp422
bS'planet_tau'
p423
tp424
Rp425
F1.0
sg3
(g4
(S'S9'
p426
I0
I1
tp427
Rp428
(I3
S'|'
p429
NNNI9
I1
I0
tp430
bS'star1_FeH'
p431
tp432
Rp433
F0.0
sg3
(g4
(S'S17'
p434
I0
I1
tp435
Rp436
(I3
S'|'
p437
NNNI17
I1
I0
tp438
bS'hz_str_outcrit_wd'
p439
tp440
Rp441
S"'early mars'"
p442
sg3
(g4
(S'S25'
p443
I0
I1
tp444
Rp445
(I3
S'|'
p446
NNNI25
I1
I0
tp447
bS'interaction_str_earlywind'
p448
tp449
Rp450
S"'trend'"
p451
sg3
(g4
(S'S14'
p452
I0
I1
tp453
Rp454
(I3
S'|'
p455
NNNI14
I1
I0
tp456
bS'interaction_nP'
p457
tp458
Rp459
F6.0
sg3
(g4
(S'S11'
p460
I0
I1
tp461
Rp462
(I3
S'|'
p463
NNNI11
I1
I0
tp464
bS'star2_taums'
p465
tp466
Rp467
F0.0
sg3
(g4
(S'S8'
p468
I0
I1
tp469
Rp470
(I3
S'|'
p471
NNNI8
I1
I0
tp472
bS'planet_R'
p473
tp474
Rp475
F1.000001
sg3
(g4
(S'S13'
p476
I0
I1
tp477
Rp478
(I3
S'|'
p479
NNNI13
I1
I0
tp480
bS'star1_taudisk'
p481
tp482
Rp483
F0.01
sg3
(g4
(S'S11'
p484
I0
I1
tp485
Rp486
(I3
S'|'
p487
NNNI11
I1
I0
tp488
bS'planet_Prot'
p489
tp490
Rp491
F1.0
sg3
(g4
(S'S9'
p492
I0
I1
tp493
Rp494
(I3
S'|'
p495
NNNI9
I1
I0
tp496
bS'star2_FeH'
p497
tp498
Rp499
F0.0
sg3
(g4
(S'S11'
p500
I0
I1
tp501
Rp502
(I3
S'|'
p503
NNNI11
I1
I0
tp504
bS'planet_fHHe'
p505
tp506
Rp507
F0.8
sg3
(g4
(S'S16'
p508
I0
I1
tp509
Rp510
(I3
S'|'
p511
NNNI16
I1
I0
tp512
bS'interaction_Mmax'
p513
tp514
Rp515
F10.0
sg3
(g4
(S'S8'
p516
I0
I1
tp517
Rp518
(I3
S'|'
p519
NNNI8
I1
I0
tp520
bS'planet_M'
p521
tp522
Rp523
F1.000001
sg3
(g4
(S'S10'
p524
I0
I1
tp525
Rp526
(I3
S'|'
p527
NNNI10
I1
I0
tp528
bS'star2_wsat'
p529
tp530
Rp531
F10.0
sg3
(g4
(S'S7'
p532
I0
I1
tp533
Rp534
(I3
S'|'
p535
NNNI7
I1
I0
tp536
bS'star2_n'
p537
tp538
Rp539
F1.5
sg3
(g4
(S'S17'
p540
I0
I1
tp541
Rp542
(I3
S'|'
p543
NNNI17
I1
I0
tp544
bS'interaction_muatm'
p545
tp546
Rp547
F44.0
sg3
(g4
(S'S7'
p548
I0
I1
tp549
Rp550
(I3
S'|'
p551
NNNI7
I1
I0
tp552
bS'star1_Z'
p553
tp554
Rp555
F0.0
sg3
(g4
(S'S7'
p556
I0
I1
tp557
Rp558
(I3
S'|'
p559
NNNI7
I1
I0
tp560
bS'star2_a'
p561
tp562
Rp563
F1.0
sg3
(g4
(S'S10'
p564
I0
I1
tp565
Rp566
(I3
S'|'
p567
NNNI10
I1
I0
tp568
bS'star1_wsat'
p569
tp570
Rp571
F10.0
sg3
(g4
(S'S17'
p572
I0
I1
tp573
Rp574
(I3
S'|'
p575
NNNI17
I1
I0
tp576
bS'hz_str_outcrit_nr'
p577
tp578
Rp579
S"'maximum greenhouse'"
p580
sg3
(g4
(S'S17'
p581
I0
I1
tp582
Rp583
(I3
S'|'
p584
NNNI17
I1
I0
tp585
bS'interaction_alpha'
p586
tp587
Rp588
F0.3
sg3
(g4
(S'S8'
p589
I0
I1
tp590
Rp591
(I3
S'|'
p592
NNNI8
I1
I0
tp593
bS'star1_Kw'
p594
tp595
Rp596
F5e+40
sg3
(g4
(S'S16'
p597
I0
I1
tp598
Rp599
(I3
S'|'
p600
NNNI16
I1
I0
tp601
bS'interaction_Mmin'
p602
tp603
Rp604
F0.01
sg3
(g4
(S'S7'
p605
I0
I1
tp606
Rp607
(I3
S'|'
p608
NNNI7
I1
I0
tp609
bS'star1_n'
p610
tp611
Rp612
F1.5
sg3
(g4
(S'S18'
p613
I0
I1
tp614
Rp615
(I3
S'|'
p616
NNNI18
I1
I0
tp617
bS'interaction_tauref'
p618
tp619
Rp620
F2.0
sg3
(g4
(S'S14'
p621
I0
I1
tp622
Rp623
(I3
S'|'
p624
NNNI14
I1
I0
tp625
bS'interaction_nM'
p626
tp627
Rp628
F3.0
sg3
(g4
(S'S15'
p629
I0
I1
tp630
Rp631
(I3
S'|'
p632
NNNI15
I1
I0
tp633
bS'star2_str_model'
p634
tp635
Rp636
S'BCA98'
p637
sg3
(g4
(S'S15'
p638
I0
I1
tp639
Rp640
(I3
S'|'
p641
NNNI15
I1
I0
tp642
bS'star1_str_model'
p643
tp644
Rp645
S'BCA98'
p646
sg3
(g4
(S'S10'
p647
I0
I1
tp648
Rp649
(I3
S'|'
p650
NNNI10
I1
I0
tp651
bS'rotation_k'
p652
tp653
Rp654
F1.0
sg3
(g4
(S'S9'
p655
I0
I1
tp656
Rp657
(I3
S'|'
p658
NNNI9
I1
I0
tp659
bS'star1_tau'
p660
tp661
Rp662
F1.0
sg3
(g4
(S'S8'
p663
I0
I1
tp664
Rp665
(I3
S'|'
p666
NNNI8
I1
I0
tp667
bS'star2_Kw'
p668
tp669
Rp670
F5e+40
sg3
(g4
(S'S7'
p671
I0
I1
tp672
Rp673
(I3
S'|'
p674
NNNI7
I1
I0
tp675
bS'BHMCatP'
p676
tp677
Rp678
S'BHMCatP0000'
p679
sg3
(g4
(S'S18'
p680
I0
I1
tp681
Rp682
(I3
S'|'
p683
NNNI18
I1
I0
tp684
bS'interaction_tauini'
p685
tp686
Rp687
F0.1
sg3
(g4
(S'S7'
p688
I0
I1
tp689
Rp690
(I3
S'|'
p691
NNNI7
I1
I0
tp692
bS'BHMCatS'
p693
tp694
Rp695
S'BHMCatS0045P'
p696
sg3
(g4
(S'S8'
p697
I0
I1
tp698
Rp699
(I3
S'|'
p700
NNNI8
I1
I0
tp701
bS'PlanetID'
p702
tp703
Rp704
S'Earth-like'
p705
sg3
(g4
(S'S10'
p706
I0
I1
tp707
Rp708
(I3
S'|'
p709
NNNI10
I1
I0
tp710
bS'star1_Pini'
p711
tp712
Rp713
F10.0
sg3
(g4
(S'S5'
p714
I0
I1
tp715
Rp716
(I3
S'|'
p717
NNNI5
I1
I0
tp718
bS'SysID'
p719
tp720
Rp721
S'V1143 Cyg'
p722
sg3
(g4
(S'S16'
p723
I0
I1
tp724
Rp725
(I3
S'|'
p726
NNNI16
I1
I0
tp727
bS'hz_str_incrit_wd'
p728
tp729
Rp730
S"'recent venus'"
p731
sg3
(g4
(S'S16'
p732
I0
I1
tp733
Rp734
(I3
S'|'
p735
NNNI16
I1
I0
tp736
bS'hz_str_incrit_nr'
p737
tp738
Rp739
S"'runaway greenhouse'"
p740
sg3
(g4
(S'S9'
p741
I0
I1
tp742
Rp743
(I3
S'|'
p744
NNNI9
I1
I0
tp745
bS'star2_tau'
p746
tp747
Rp748
F1.0
sg3
(g4
(S'S22'
p749
I0
I1
tp750
Rp751
(I3
S'|'
p752
NNNI22
I1
I0
tp753
bS'interaction_str_refobj'
p754
tp755
Rp756
S"'Earth'"
p757
sg3
(g4
(S'S13'
p758
I0
I1
tp759
Rp760
(I3
S'|'
p761
NNNI13
I1
I0
tp762
bS'star2_taudisk'
p763
tp764
Rp765
F0.01
sg3
(g4
(S'S10'
p766
I0
I1
tp767
Rp768
(I3
S'|'
p769
NNNI10
I1
I0
tp770
bS'planet_CMF'
p771
tp772
Rp773
F0.3
sssg3
(g4
(S'S9'
p774
I0
I1
tp775
Rp776
(I3
S'|'
p777
NNNI9
I1
I0
tp778
bS'binary_BV'
p779
tp780
Rp781
F-1.0
sg3
(g4
(S'S11'
p782
I0
I1
tp783
Rp784
(I3
S'|'
p785
NNNI11
I1
I0
tp786
bS'star1_Protv'
p787
tp788
Rp789
g3
(g4
(S'f8'
p790
I0
I1
tp791
Rp792
(I3
S'<'
p793
NNNI-1
I-1
I0
tp794
bS'\x05~\xd0\xef,7\x0e@'
p795
tp796
Rp797
sg3
(g4
(S'S10'
p798
I0
I1
tp799
Rp800
(I3
S'|'
p801
NNNI10
I1
I0
tp802
bS'binary_ADS'
p803
tp804
Rp805
S'1987A&A...174..107A;'
p806
sg3
(g4
(S'S7'
p807
I0
I1
tp808
Rp809
(I3
S'|'
p810
NNNI7
I1
I0
tp811
bS'star1_M'
p812
tp813
Rp814
F1.391
sg3
(g4
(S'S7'
p815
I0
I1
tp816
Rp817
(I3
S'|'
p818
NNNI7
I1
I0
tp819
bS'star1_R'
p820
tp821
Rp822
F1.346
sg3
(g4
(S'S2'
p823
I0
I1
tp824
Rp825
(I3
S'|'
p826
NNNI2
I1
I0
tp827
bS'RA'
p828
tp829
Rp830
F19.644772222222223
sg3
(g4
(S'S5'
p831
I0
I1
tp832
Rp833
(I3
S'|'
p834
NNNI5
I1
I0
tp835
bS'Nostr'
p836
tp837
Rp838
S'0045'
p839
sg3
(g4
(S'S13'
p840
I0
I1
tp841
Rp842
(I3
S'|'
p843
NNNI13
I1
I0
tp844
bS'star1_loggerr'
p845
tp846
Rp847
F0.016
sg3
(g4
(S'S10'
p848
I0
I1
tp849
Rp850
(I3
S'|'
p851
NNNI10
I1
I0
tp852
bS'star2_Prot'
p853
tp854
Rp855
F-1.0
sg3
(g4
(S'S13'
p856
I0
I1
tp857
Rp858
(I3
S'|'
p859
NNNI13
I1
I0
tp860
bS'star1_Proterr'
p861
tp862
Rp863
F-1.0
sg3
(g4
(S'S10'
p864
I0
I1
tp865
Rp866
(I3
S'|'
p867
NNNI10
I1
I0
tp868
bS'star1_Merr'
p869
tp870
Rp871
F0.016
sg3
(g4
(S'S11'
p872
I0
I1
tp873
Rp874
(I3
S'|'
p875
NNNI11
I1
I0
tp876
bS'binary_derr'
p877
tp878
Rp879
F2.0
sg3
(g4
(S'S7'
p880
I0
I1
tp881
Rp882
(I3
S'|'
p883
NNNI7
I1
I0
tp884
bS'Planets'
p885
tp886
Rp887
g197
sg3
(g4
(S'S10'
p888
I0
I1
tp889
Rp890
(I3
S'|'
p891
NNNI10
I1
I0
tp892
bS'star2_Terr'
p893
tp894
Rp895
F100.0
sg3
(g4
(S'S8'
p896
I0
I1
tp897
Rp898
(I3
S'|'
p899
NNNI8
I1
I0
tp900
bS'binary_q'
p901
tp902
Rp903
F0.968368080517613
sg3
(g4
(S'S5'
p904
I0
I1
tp905
Rp906
(I3
S'|'
p907
NNNI5
I1
I0
tp908
bS'Notes'
p909
tp910
Rp911
S''
p912
sg3
(g4
(S'S16'
p913
I0
I1
tp914
Rp915
(I3
S'|'
p916
NNNI16
I1
I0
tp917
bS'star1_str_StarID'
p918
tp919
Rp920
S'V1143 Cyg A'
p921
sg3
(g4
(S'S10'
p922
I0
I1
tp923
Rp924
(I3
S'|'
p925
NNNI10
I1
I0
tp926
bS'star1_Prot'
p927
tp928
Rp929
F-1.0
sg3
(g4
(S'S8'
p930
I0
I1
tp931
Rp932
(I3
S'|'
p933
NNNI8
I1
I0
tp934
bS'binary_d'
p935
tp936
Rp937
F38.0
sg3
(g4
(S'S15'
p938
I0
I1
tp939
Rp940
(I3
S'|'
p941
NNNI15
I1
I0
tp942
bS'star2_str_Stype'
p943
tp944
Rp945
S'F5V'
p946
sg3
(g4
(S'S14'
p947
I0
I1
tp948
Rp949
(I3
S'|'
p950
NNNI14
I1
I0
tp951
bS'star2_Protverr'
p952
tp953
Rp954
g3
(g792
S'Su\xc7hh]\xd0?'
p955
tp956
Rp957
sg3
(g4
(S'S11'
p958
I0
I1
tp959
Rp960
(I3
S'|'
p961
NNNI11
I1
I0
tp962
bS'binary_abin'
p963
tp964
Rp965
F0.106173536229947
sg3
(g4
(S'S11'
p966
I0
I1
tp967
Rp968
(I3
S'|'
p969
NNNI11
I1
I0
tp970
bS'star2_Protv'
p971
tp972
Rp973
g3
(g792
S'\xe1\x08>z\xa4\x17\x03@'
p974
tp975
Rp976
sg3
(g4
(S'S8'
p977
I0
I1
tp978
Rp979
(I3
S'|'
p980
NNNI8
I1
I0
tp981
bS'binary_V'
p982
tp983
Rp984
F5.887
sg3
(g4
(S'S7'
p985
I0
I1
tp986
Rp987
(I3
S'|'
p988
NNNI7
I1
I0
tp989
bS'star1_T'
p990
tp991
Rp992
F6460.0
sg3
(g4
(S'S7'
p993
I0
I1
tp994
Rp995
(I3
S'|'
p996
NNNI7
I1
I0
tp997
bS'BHMCatS'
p998
tp999
Rp1000
g1
sg3
(g4
(S'S9'
p1001
I0
I1
tp1002
Rp1003
(I3
S'|'
p1004
NNNI9
I1
I0
tp1005
bS'binary_Lx'
p1006
tp1007
Rp1008
F-1.0
sg3
(g4
(S'S10'
p1009
I0
I1
tp1010
Rp1011
(I3
S'|'
p1012
NNNI10
I1
I0
tp1013
bS'star2_Merr'
p1014
tp1015
Rp1016
F0.013
sg3
(g4
(S'S14'
p1017
I0
I1
tp1018
Rp1019
(I3
S'|'
p1020
NNNI14
I1
I0
tp1021
bS'star1_vsinierr'
p1022
tp1023
Rp1024
F2.0
sg3
(g4
(S'S16'
p1025
I0
I1
tp1026
Rp1027
(I3
S'|'
p1028
NNNI16
I1
I0
tp1029
bS'binary_FeHfiterr'
p1030
tp1031
Rp1032
F-1.0
sg3
(g4
(S'S13'
p1033
I0
I1
tp1034
Rp1035
(I3
S'|'
p1036
NNNI13
I1
I0
tp1037
bS'binary_FeHobs'
p1038
tp1039
Rp1040
F-1.0
sg3
(g4
(S'S13'
p1041
I0
I1
tp1042
Rp1043
(I3
S'|'
p1044
NNNI13
I1
I0
tp1045
bS'binary_taumin'
p1046
tp1047
Rp1048
F-1.0
sg3
(g4
(S'S11'
p1049
I0
I1
tp1050
Rp1051
(I3
S'|'
p1052
NNNI11
I1
I0
tp1053
bS'binary_ebin'
p1054
tp1055
Rp1056
F0.54
sg3
(g4
(S'S11'
p1057
I0
I1
tp1058
Rp1059
(I3
S'|'
p1060
NNNI11
I1
I0
tp1061
bS'star1_vsini'
p1062
tp1063
Rp1064
F18.0
sg3
(g4
(S'S11'
p1065
I0
I1
tp1066
Rp1067
(I3
S'|'
p1068
NNNI11
I1
I0
tp1069
bS'binary_Zobs'
p1070
tp1071
Rp1072
F-1.0
sg3
(g4
(S'S14'
p1073
I0
I1
tp1074
Rp1075
(I3
S'|'
p1076
NNNI14
I1
I0
tp1077
bS'star1_Protverr'
p1078
tp1079
Rp1080
g3
(g792
S'\x04p\x80*\xb6\xdb\xda?'
p1081
tp1082
Rp1083
sg3
(g4
(S'S11'
p1084
I0
I1
tp1085
Rp1086
(I3
S'|'
p1087
NNNI11
I1
I0
tp1088
bS'star2_vsini'
p1089
tp1090
Rp1091
F28.0
sg3
(g4
(S'S11'
p1092
I0
I1
tp1093
Rp1094
(I3
S'|'
p1095
NNNI11
I1
I0
tp1096
bS'binary_dmod'
p1097
tp1098
Rp1099
F-1.0
sg3
(g4
(S'S10'
p1100
I0
I1
tp1101
Rp1102
(I3
S'|'
p1103
NNNI10
I1
I0
tp1104
bS'star1_Terr'
p1105
tp1106
Rp1107
F100.0
ssS'FieldsPriority'
p1108
(dp1109
g12
I2
sg20
I100
sg29
I3
sg37
I1
sg46
I100
sg54
I3
sg62
I4
sg70
I4
sg78
I4
sg86
I3
sg94
I3
sg102
I1
sg110
I1
sg118
I2
sg126
I3
sg134
I100
sg143
I4
sg151
I4
sg159
I2
sg347
I4
sg355
I3
sg364
I3
sg372
I2
sg380
I3
sg781
I2
sg789
I3
sg805
I1
sg814
I1
sg822
I3
sg830
I3
sg838
I1
sg847
I4
sg855
I2
sg863
I4
sg871
I4
sg879
I4
sg887
I1
sg895
I4
sg903
I100
sg911
I100
sg920
I100
sg929
I2
sg937
I2
sg945
I2
sg954
I4
sg965
I1
sg973
I3
sg984
I2
sg992
I3
sg1000
I1
sg1008
I3
sg1016
I4
sg1024
I4
sg1032
I4
sg1040
I2
sg1048
I3
sg1056
I1
sg1064
I3
sg1072
I2
sg1080
I4
sg1091
I3
sg1099
I2
sg1107
I4
ssS'PlanetFieldsType'
p1110
(dp1111
g171
g3
(g4
(S'S3'
p1112
I0
I1
tp1113
Rp1114
(I3
S'|'
p1115
NNNI3
I1
I0
tp1116
bS'str'
p1117
tp1118
Rp1119
sg180
g3
(g4
(S'S5'
p1120
I0
I1
tp1121
Rp1122
(I3
S'|'
p1123
NNNI5
I1
I0
tp1124
bS'float'
p1125
tp1126
Rp1127
sg188
g3
(g4
(S'S5'
p1128
I0
I1
tp1129
Rp1130
(I3
S'|'
p1131
NNNI5
I1
I0
tp1132
bS'float'
p1133
tp1134
Rp1135
sg196
g3
(g4
(S'S3'
p1136
I0
I1
tp1137
Rp1138
(I3
S'|'
p1139
NNNI3
I1
I0
tp1140
bS'str'
p1141
tp1142
Rp1143
sg205
g3
(g4
(S'S5'
p1144
I0
I1
tp1145
Rp1146
(I3
S'|'
p1147
NNNI5
I1
I0
tp1148
bS'float'
p1149
tp1150
Rp1151
sg213
g3
(g4
(S'S3'
p1152
I0
I1
tp1153
Rp1154
(I3
S'|'
p1155
NNNI3
I1
I0
tp1156
bS'str'
p1157
tp1158
Rp1159
sg222
g3
(g4
(S'S3'
p1160
I0
I1
tp1161
Rp1162
(I3
S'|'
p1163
NNNI3
I1
I0
tp1164
bS'str'
p1165
tp1166
Rp1167
sg231
g3
(g4
(S'S3'
p1168
I0
I1
tp1169
Rp1170
(I3
S'|'
p1171
NNNI3
I1
I0
tp1172
bS'str'
p1173
tp1174
Rp1175
sg240
g3
(g4
(S'S3'
p1176
I0
I1
tp1177
Rp1178
(I3
S'|'
p1179
NNNI3
I1
I0
tp1180
bS'str'
p1181
tp1182
Rp1183
sg249
g3
(g4
(S'S5'
p1184
I0
I1
tp1185
Rp1186
(I3
S'|'
p1187
NNNI5
I1
I0
tp1188
bS'float'
p1189
tp1190
Rp1191
sg257
g3
(g4
(S'S5'
p1192
I0
I1
tp1193
Rp1194
(I3
S'|'
p1195
NNNI5
I1
I0
tp1196
bS'float'
p1197
tp1198
Rp1199
sg265
g3
(g4
(S'S3'
p1200
I0
I1
tp1201
Rp1202
(I3
S'|'
p1203
NNNI3
I1
I0
tp1204
bS'str'
p1205
tp1206
Rp1207
sg274
g3
(g4
(S'S5'
p1208
I0
I1
tp1209
Rp1210
(I3
S'|'
p1211
NNNI5
I1
I0
tp1212
bS'float'
p1213
tp1214
Rp1215
sg282
g3
(g4
(S'S5'
p1216
I0
I1
tp1217
Rp1218
(I3
S'|'
p1219
NNNI5
I1
I0
tp1220
bS'float'
p1221
tp1222
Rp1223
sg290
g3
(g4
(S'S5'
p1224
I0
I1
tp1225
Rp1226
(I3
S'|'
p1227
NNNI5
I1
I0
tp1228
bS'float'
p1229
tp1230
Rp1231
sg298
g3
(g4
(S'S5'
p1232
I0
I1
tp1233
Rp1234
(I3
S'|'
p1235
NNNI5
I1
I0
tp1236
bS'float'
p1237
tp1238
Rp1239
sg306
g3
(g4
(S'S5'
p1240
I0
I1
tp1241
Rp1242
(I3
S'|'
p1243
NNNI5
I1
I0
tp1244
bS'float'
p1245
tp1246
Rp1247
sg314
g3
(g4
(S'S5'
p1248
I0
I1
tp1249
Rp1250
(I3
S'|'
p1251
NNNI5
I1
I0
tp1252
bS'float'
p1253
tp1254
Rp1255
sg322
g3
(g4
(S'S5'
p1256
I0
I1
tp1257
Rp1258
(I3
S'|'
p1259
NNNI5
I1
I0
tp1260
bS'float'
p1261
tp1262
Rp1263
sg330
g3
(g4
(S'S3'
p1264
I0
I1
tp1265
Rp1266
(I3
S'|'
p1267
NNNI3
I1
I0
tp1268
bS'str'
p1269
tp1270
Rp1271
sg339
g3
(g4
(S'S5'
p1272
I0
I1
tp1273
Rp1274
(I3
S'|'
p1275
NNNI5
I1
I0
tp1276
bS'float'
p1277
tp1278
Rp1279
ssS'BHMCatS0008D'
p1280
(dp1281
g12
F-0.34
sg20
S'KIC-9632895 B'
p1282
sg29
F4.803
sg37
S'KIC-9632895'
p1283
sg46
I8
sg54
F3309.0
sg62
F0.005
sg70
F-1.0
sg78
F0.011
sg86
F0.2143
sg94
F2.5
sg102
F0.1938
sg110
F27.322037
sg118
g3
(g792
S'\t\xde\r\x1a\x9e\x07~?'
p1284
tp1285
Rp1286
sg126
F46.37846944444445
sg134
S'D'
p1287
sg143
F-1.0
sg151
F0.0014
sg159
g197
sg161
(lp1288
(dp1289
g171
S'BHMCatP0009'
p1290
sg180
F-1.0
sg188
F0.0379
sg196
S'BHMCatS008D'
p1291
sg205
F0.0088
sg213
S'9'
p1292
sg222
S'2014arXiv1409.1605W'
p1293
sg231
S'KIC-9632895b'
p1294
sg240
S'0009'
p1295
sg249
F6.165
sg257
F0.0028
sg265
S'KIC-9632895'
p1296
sg274
F-1.0
sg282
F-178.59
sg290
F0.7877
sg298
F0.053
sg306
F0.0
sg314
F1.1278
sg322
F240.503
sg330
S'b'
p1297
sg339
F0.035
sasg347
F262.86
sg355
S'KIC'
p1298
sg364
F5.063
sg372
F90.275
sg380
S'9632895'
p1299
sg382
(dp1300
S'BHMCatP0009'
p1301
(dp1302
g393
F10.0
sg401
F1.0
sg409
F0.0
sg417
F0.0
sg425
F1.75
sg433
F-0.34
sg441
S"'early mars'"
p1303
sg450
S"'trend'"
p1304
sg459
F6.0
sg467
F0.0
sg475
F6.165
sg483
F0.01
sg491
F1.0
sg499
F-0.34
sg507
F0.8
sg515
F10.0
sg523
F0.0
sg531
F10.0
sg539
F1.5
sg547
F44.0
sg555
F0.0
sg563
F1.0
sg571
F10.0
sg579
S"'maximum greenhouse'"
p1305
sg588
F0.3
sg596
F5e+40
sg604
F0.01
sg612
F1.5
sg620
F2.0
sg628
F3.0
sg636
S'BCA98'
p1306
sg645
S'BCA98'
p1307
sg654
F1.0
sg662
F1.75
sg670
F5e+40
sg678
S'BHMCatP0009'
p1308
sg687
F0.1
sg695
S'BHMCatS0008D'
p1309
sg704
S'KIC-9632895b'
p1310
sg713
F10.0
sg721
S'KIC-9632895'
p1311
sg730
S"'recent venus'"
p1312
sg739
S"'runaway greenhouse'"
p1313
sg748
F1.75
sg756
S"'Earth'"
p1314
sg765
F0.01
sg773
F0.3
sssg781
F0.055
sg789
g3
(g792
S'0\xde\x85\r\x9e,6@'
p1315
tp1316
Rp1317
sg805
S'2014arXiv1409.1605W;'
p1318
sg814
F0.934
sg822
F0.833
sg830
F18.882753333333334
sg838
S'0008'
p1319
sg847
F0.015
sg855
F-1.0
sg863
F0.47
sg871
F0.01
sg879
F-1.0
sg887
S'BHMCatP0009;'
p1320
sg895
F100.0
sg903
F0.207494646680942
sg911
g912
sg920
S'KIC-9632895 A'
p1321
sg929
F20.31
sg937
F-1.0
sg945
g197
sg954
F-1.0
sg965
F0.18749
sg973
F-1.0
sg984
F13.552
sg992
F5527.0
sg1000
g1280
sg1008
F-1.0
sg1016
F0.002
sg1024
F1.0
sg1032
F-1.0
sg1040
F-0.343
sg1048
F1.0
sg1056
F0.05099
sg1064
F1.9
sg1072
g3
(g792
S'R\xb3\x00z^\xd5}?'
p1322
tp1323
Rp1324
sg1080
g3
(g792
S"\xef\xce\xc2\x00cW'@"
p1325
tp1326
Rp1327
sg1091
F-1.0
sg1099
g3
(g792
S'\x07\x92[\rg\xf9x@'
p1328
tp1329
Rp1330
sg1107
F100.0
ssS'BHMCatS0028P'
p1331
(dp1332
g12
F-1.0
sg20
S'V69-47 Tuc  B'
p1333
sg29
F4.1
sg37
S'V69-47 Tuc'
p1334
sg46
I28
sg54
F5959.0
sg62
F0.006
sg70
F-1.0
sg78
F0.005
sg86
F1.162
sg94
F-1.0
sg102
F0.859
sg110
F29.53975
sg118
F-1.0
sg126
F-71.9387
sg134
g135
sg143
F-1.0
sg151
F0.006
sg159
S'G type'
p1335
sg161
(lp1336
g163
asg347
F-1.0
sg355
S'EkCat'
p1337
sg364
F4.1
sg372
F89.77
sg380
S'3'
p1338
sg382
(dp1339
g384
(dp1340
g393
F10.0
sg401
F1.0
sg409
F0.0
sg417
F0.0
sg425
F1.0
sg433
F0.0
sg441
S"'early mars'"
p1341
sg450
g451
sg459
F6.0
sg467
F0.0
sg475
F1.000001
sg483
F0.01
sg491
F1.0
sg499
F0.0
sg507
F0.8
sg515
F10.0
sg523
F1.000001
sg531
F10.0
sg539
F1.5
sg547
F44.0
sg555
F0.0
sg563
F1.0
sg571
F10.0
sg579
S"'maximum greenhouse'"
p1342
sg588
F0.3
sg596
F5e+40
sg604
F0.01
sg612
F1.5
sg620
F2.0
sg628
F3.0
sg636
S'BCA98'
p1343
sg645
S'BCA98'
p1344
sg654
F1.0
sg662
F1.0
sg670
F5e+40
sg678
g679
sg687
F0.1
sg695
S'BHMCatS0028P'
p1345
sg704
g705
sg713
F10.0
sg721
S'V69-47 Tuc'
p1346
sg730
S"'recent venus'"
p1347
sg739
S"'runaway greenhouse'"
p1348
sg748
F1.0
sg756
g757
sg765
F0.01
sg773
F0.3
sssg781
F-1.0
sg789
F-1.0
sg805
S'2010AJ....139..329T ;'
p1349
sg814
F0.876
sg822
F1.315
sg830
F0.38137499999999996
sg838
S'0028'
p1350
sg847
F0.004
sg855
F-1.0
sg863
F-1.0
sg871
F0.005
sg879
F166.0
sg887
g197
sg895
F150.0
sg903
F0.980593607305936
sg911
S'DEBCat'
p1351
sg920
S'V69-47 Tuc  A'
p1352
sg929
F-1.0
sg937
F4418.0
sg945
S'G type'
p1353
sg954
F-1.0
sg965
F0.224821648395722
sg973
F-1.0
sg984
F16.85
sg992
F5945.0
sg1000
g1331
sg1008
F-1.0
sg1016
F0.006
sg1024
F-1.0
sg1032
F-1.0
sg1040
F-1.0
sg1048
F-1.0
sg1056
F0.056
sg1064
F-1.0
sg1072
F-1.0
sg1080
F-1.0
sg1091
F-1.0
sg1099
F-1.0
sg1107
F150.0
ssS'BHMCatS0032P'
p1354
(dp1355
g12
F-1.0
sg20
S'LV Her B'
p1356
sg29
F4.249
sg37
S'LV Her'
p1357
sg46
I32
sg54
F6030.0
sg62
F0.008
sg70
F-1.0
sg78
F0.012
sg86
F1.313
sg94
F-1.0
sg102
F1.17
sg110
F18.4359535
sg118
F-1.0
sg126
F23.17516666666667
sg134
g135
sg143
F1.0
sg151
F0.011
sg159
S'F9V'
p1358
sg161
(lp1359
g163
asg347
F-1.0
sg355
S'EkCat'
p1360
sg364
F4.27
sg372
F89.55
sg380
S'154'
p1361
sg382
(dp1362
g384
(dp1363
g393
F10.0
sg401
F1.0
sg409
F0.0
sg417
F0.0
sg425
F1.0
sg433
F0.0
sg441
S"'early mars'"
p1364
sg450
g451
sg459
F6.0
sg467
F0.0
sg475
F1.000001
sg483
F0.01
sg491
F1.0
sg499
F0.0
sg507
F0.8
sg515
F10.0
sg523
F1.000001
sg531
F10.0
sg539
F1.5
sg547
F44.0
sg555
F0.0
sg563
F1.0
sg571
F10.0
sg579
S"'maximum greenhouse'"
p1365
sg588
F0.3
sg596
F5e+40
sg604
F0.01
sg612
F1.5
sg620
F2.0
sg628
F3.0
sg636
S'BCA98'
p1366
sg645
S'BCA98'
p1367
sg654
F1.0
sg662
F1.0
sg670
F5e+40
sg678
g679
sg687
F0.1
sg695
S'BHMCatS0032P'
p1368
sg704
g705
sg713
F10.0
sg721
S'LV Her'
p1369
sg730
S"'recent venus'"
p1370
sg739
S"'runaway greenhouse'"
p1371
sg748
F1.0
sg756
g757
sg765
F0.01
sg773
F0.3
sssg781
F-1.0
sg789
g3
(g792
S'\x96L\xb1\x9e\x1c"\x15@'
p1372
tp1373
Rp1374
sg805
S'2009AJ....138.1622T;'
p1375
sg814
F1.193
sg822
F1.358
sg830
F17.592333333333332
sg838
S'0032'
p1376
sg847
F0.008
sg855
F-1.0
sg863
F-1.0
sg871
F0.01
sg879
F24.0
sg887
g197
sg895
F150.0
sg903
F0.980720871751886
sg911
S'DEBCat'
p1377
sg920
S'LV Her A'
p1378
sg929
F-1.0
sg937
F352.0
sg945
S'F9V'
p1379
sg954
g3
(g792
S'\x14\ni\x0f\xf4%\xd9?'
p1380
tp1381
Rp1382
sg965
F0.182091571122995
sg973
g3
(g792
S'0X\x85L\xd6n\x14@'
p1383
tp1384
Rp1385
sg984
F10.984
sg992
F6060.0
sg1000
g1354
sg1008
F-1.0
sg1016
F0.008
sg1024
F1.0
sg1032
F-1.0
sg1040
F-1.0
sg1048
F-1.0
sg1056
F0.613
sg1064
F13.0
sg1072
F-1.0
sg1080
g3
(g792
S'\xe06\xda`\x99\x02\xda?'
p1386
tp1387
Rp1388
sg1091
F13.0
sg1099
F-1.0
sg1107
F150.0
ssS'BHMCatS0024P'
p1389
(dp1390
g12
F-1.0
sg20
S'EW Ori B'
p1391
sg29
F-1.0
sg37
S'EW Ori'
p1392
sg46
I24
sg54
F5902.0
sg62
F-1.0
sg70
F-1.0
sg78
F0.005
sg86
F1.097
sg94
F-1.0
sg102
F1.123
sg110
F6.937
sg118
F-1.0
sg126
F2.044436111111111
sg134
g135
sg143
F-1.0
sg151
F0.005
sg159
S'G0V'
p1393
sg161
(lp1394
g163
asg347
F-1.0
sg355
S'DEBCat'
p1395
sg364
F-1.0
sg372
F-1.0
sg380
S'27'
p1396
sg382
(dp1397
g384
(dp1398
g393
F10.0
sg401
F1.0
sg409
F0.0
sg417
F0.0
sg425
F1.0
sg433
F0.0
sg441
S"'early mars'"
p1399
sg450
g451
sg459
F6.0
sg467
F0.0
sg475
F1.000001
sg483
F0.01
sg491
F1.0
sg499
F0.0
sg507
F0.8
sg515
F10.0
sg523
F1.000001
sg531
F10.0
sg539
F1.5
sg547
F44.0
sg555
F0.0
sg563
F1.0
sg571
F10.0
sg579
S"'maximum greenhouse'"
p1400
sg588
F0.3
sg596
F5e+40
sg604
F0.01
sg612
F1.5
sg620
F2.0
sg628
F3.0
sg636
S'BCA98'
p1401
sg645
S'BCA98'
p1402
sg654
F1.0
sg662
F1.0
sg670
F5e+40
sg678
g679
sg687
F0.1
sg695
S'BHMCatS0024P'
p1403
sg704
g705
sg713
F10.0
sg721
S'EW Ori'
p1404
sg730
S"'recent venus'"
p1405
sg739
S"'runaway greenhouse'"
p1406
sg748
F1.0
sg756
g757
sg765
F0.01
sg773
F0.3
sssg781
F0.57
sg789
F-1.0
sg805
S'2010A%26A...511A..22C;'
p1407
sg814
F1.173
sg822
F1.168
sg830
F5.335875
sg838
S'0024'
p1408
sg847
F-1.0
sg855
F-1.0
sg863
F-1.0
sg871
F0.011
sg879
F-1.0
sg887
g197
sg895
F-1.0
sg903
F0.957374254049446
sg911
g912
sg920
S'EW Ori A'
p1409
sg929
F-1.0
sg937
F-1.0
sg945
S'G2V'
p1410
sg954
F-1.0
sg965
F0.0946
sg973
F-1.0
sg984
F9.09
sg992
F6067.0
sg1000
g1389
sg1008
F-1.0
sg1016
F0.009
sg1024
F-1.0
sg1032
F-1.0
sg1040
F-1.0
sg1048
F-1.0
sg1056
F0.0758
sg1064
F-1.0
sg1072
F-1.0
sg1080
F-1.0
sg1091
F-1.0
sg1099
g3
(g792
S'\xcaW.o\xfe\x1b^@'
p1411
tp1412
Rp1413
sg1107
F-1.0
ssS'BHMCatS0018V'
p1414
(dp1415
g12
F0.0
sg20
S'NICHE-010 B'
p1416
sg29
F-2.0
sg37
S'NICHE-010'
p1417
sg46
I18
sg54
F-2.0
sg62
F-2.0
sg70
F-2.0
sg78
F0.0
sg86
F-2.0
sg94
F-2.0
sg102
F0.7
sg110
F18.0
sg118
g3
(g792
S'0\xa8\x1bgj\x94\x8f?'
p1418
tp1419
Rp1420
sg126
F-2.0
sg134
S'V'
p1421
sg143
F-2.0
sg151
F0.0
sg159
g197
sg161
(lp1422
g163
asg347
F-1.0
sg355
S'NICHE'
p1423
sg364
F-2.0
sg372
F-2.0
sg380
S'10'
p1424
sg382
(dp1425
g384
(dp1426
g393
F10.0
sg401
F1.0
sg409
F0.0
sg417
F0.0
sg425
F1.0
sg433
F0.0
sg441
S"'early mars'"
p1427
sg450
g451
sg459
F6.0
sg467
F0.0
sg475
F1.000001
sg483
F0.01
sg491
F1.0
sg499
F0.0
sg507
F0.8
sg515
F10.0
sg523
F1.000001
sg531
F10.0
sg539
F1.5
sg547
F44.0
sg555
F0.0
sg563
F1.0
sg571
F10.0
sg579
S"'maximum greenhouse'"
p1428
sg588
F0.3
sg596
F5e+40
sg604
F0.01
sg612
F1.5
sg620
F2.0
sg628
F3.0
sg636
S'BCA98'
p1429
sg645
S'BCA98'
p1430
sg654
F1.0
sg662
F1.0
sg670
F5e+40
sg678
g679
sg687
F0.1
sg695
S'BHMCatS0018V'
p1431
sg704
g705
sg713
F10.0
sg721
S'NICHE-010'
p1432
sg730
S"'recent venus'"
p1433
sg739
S"'runaway greenhouse'"
p1434
sg748
F1.0
sg756
g757
sg765
F0.01
sg773
F0.3
sssg781
F-2.0
sg789
F-1.0
sg805
g197
sg814
F0.7
sg822
F-2.0
sg830
F-2.0
sg838
S'0018'
p1435
sg847
F-2.0
sg855
F-2.0
sg863
F-2.0
sg871
F0.0
sg879
F-1.0
sg887
g197
sg895
F-2.0
sg903
F1.0
sg911
g912
sg920
S'NICHE-010 A'
p1436
sg929
F-2.0
sg937
F-1.0
sg945
g197
sg954
F-1.0
sg965
F0.105970962849187
sg973
F-1.0
sg984
F-2.0
sg992
F-2.0
sg1000
g1414
sg1008
F-2.0
sg1016
F0.0
sg1024
F-2.0
sg1032
F-1.0
sg1040
F-1.0
sg1048
F-2.0
sg1056
F0.4
sg1064
F-2.0
sg1072
F-1.0
sg1080
F-1.0
sg1091
F-2.0
sg1099
F-1.0
sg1107
F-2.0
ssS'BHMCatS0026P'
p1437
(dp1438
g12
F-1.0
sg20
S'M4-V69 B'
p1439
sg29
F4.444
sg37
S'M4-V69'
p1440
sg46
I26
sg54
F5915.0
sg62
F0.119
sg70
F-1.0
sg78
F0.01
sg86
F0.807
sg94
F11.23
sg102
F0.728
sg110
F48.1882687
sg118
F-1.0
sg126
F-25.378333333333334
sg134
g135
sg143
F-1.0
sg151
F0.008
sg159
S'F type'
p1441
sg161
(lp1442
g163
asg347
F65.25
sg355
S'EkCat'
p1443
sg364
F4.483
sg372
F89.79
sg380
S'141'
p1444
sg382
(dp1445
g384
(dp1446
g393
F10.0
sg401
F1.0
sg409
F0.0
sg417
F0.0
sg425
F1.0
sg433
F0.0
sg441
S"'early mars'"
p1447
sg450
g451
sg459
F6.0
sg467
F0.0
sg475
F1.000001
sg483
F0.01
sg491
F1.0
sg499
F0.0
sg507
F0.8
sg515
F10.0
sg523
F1.000001
sg531
F10.0
sg539
F1.5
sg547
F44.0
sg555
F0.0
sg563
F1.0
sg571
F10.0
sg579
S"'maximum greenhouse'"
p1448
sg588
F0.3
sg596
F5e+40
sg604
F0.01
sg612
F1.5
sg620
F2.0
sg628
F3.0
sg636
S'BCA98'
p1449
sg645
S'BCA98'
p1450
sg654
F1.0
sg662
F10.9
sg670
F5e+40
sg678
g679
sg687
F0.1
sg695
S'BHMCatS0026P'
p1451
sg704
g705
sg713
F10.0
sg721
S'M4-V69'
p1452
sg730
S"'recent venus'"
p1453
sg739
S"'runaway greenhouse'"
p1454
sg748
F10.9
sg756
g757
sg765
F0.01
sg773
F0.3
sssg781
F0.902
sg789
F-1.0
sg805
S'2013AJ....145...43K;'
p1455
sg814
F0.766
sg822
F0.866
sg830
F16.39944722222222
sg838
S'0026'
p1456
sg847
F0.132
sg855
F-1.0
sg863
F-1.0
sg871
F0.005
sg879
F30.0
sg887
g197
sg895
F137.0
sg903
F0.950391644908616
sg911
g912
sg920
S'M4-V69 A'
p1457
sg929
F-1.0
sg937
F1850.0
sg945
S'G type'
p1458
sg954
F-1.0
sg965
F0.296410819251337
sg973
F-1.0
sg984
F17.01
sg992
F6084.0
sg1000
g1437
sg1008
F-1.0
sg1016
F0.004
sg1024
F-1.0
sg1032
F-1.0
sg1040
F-1.0
sg1048
F10.57
sg1056
F0.384
sg1064
F-1.0
sg1072
F-1.0
sg1080
F-1.0
sg1091
F-1.0
sg1099
F-1.0
sg1107
F121.0
ssS'BHMCatS0030P'
p1459
(dp1460
g12
F-1.0
sg20
S'LL Aqr B'
p1461
sg29
F4.281
sg37
S'LL Aqr'
p1462
sg46
I30
sg54
F6200.0
sg62
F0.01
sg70
F-1.0
sg78
F0.02
sg86
F1.005
sg94
F-1.0
sg102
F1.056
sg110
F20.178241
sg118
F-1.0
sg126
F-2.4005083333333332
sg134
g135
sg143
F-1.0
sg151
F0.016
sg159
S'F3V'
p1463
sg161
(lp1464
g163
asg347
F-1.0
sg355
S'EkCat'
p1465
sg364
F4.457
sg372
F89.51
sg380
S'238'
p1466
sg382
(dp1467
g384
(dp1468
g393
F10.0
sg401
F1.0
sg409
F0.0
sg417
F0.0
sg425
F1.0
sg433
F0.0
sg441
S"'early mars'"
p1469
sg450
g451
sg459
F6.0
sg467
F0.0
sg475
F1.000001
sg483
F0.01
sg491
F1.0
sg499
F0.0
sg507
F0.8
sg515
F10.0
sg523
F1.000001
sg531
F10.0
sg539
F1.5
sg547
F44.0
sg555
F0.0
sg563
F1.0
sg571
F10.0
sg579
S"'maximum greenhouse'"
p1470
sg588
F0.3
sg596
F5e+40
sg604
F0.01
sg612
F1.5
sg620
F2.0
sg628
F3.0
sg636
S'BCA98'
p1471
sg645
S'BCA98'
p1472
sg654
F1.0
sg662
F1.0
sg670
F5e+40
sg678
g679
sg687
F0.1
sg695
S'BHMCatS0030P'
p1473
sg704
g705
sg713
F10.0
sg721
S'LL Aqr'
p1474
sg730
S"'recent venus'"
p1475
sg739
S"'runaway greenhouse'"
p1476
sg748
F1.0
sg756
g757
sg765
F0.01
sg773
F0.3
sssg781
F-1.0
sg789
F-1.0
sg805
S'2008MNRAS.390..958I;'
p1477
sg814
F1.223
sg822
F1.325
sg830
F22.578375
sg838
S'0030'
p1478
sg847
F0.009
sg855
F-1.0
sg863
F-1.0
sg871
F0.058
sg879
F9.0
sg887
g197
sg895
F160.0
sg903
F0.863450531479967
sg911
S'DEBCat'
p1479
sg920
S'LL Aqr A'
p1480
sg929
F-1.0
sg937
F123.0
sg945
S'F6V'
p1481
sg954
F-1.0
sg965
F0.190982033823529
sg973
F-1.0
sg984
F9.317
sg992
F6680.0
sg1000
g1459
sg1008
F-1.0
sg1016
F0.051
sg1024
F-1.0
sg1032
F-1.0
sg1040
F-1.0
sg1048
F-1.0
sg1056
F0.31
sg1064
F-1.0
sg1072
F-1.0
sg1080
F-1.0
sg1091
F-1.0
sg1099
F-1.0
sg1107
F160.0
ssS'BHMCatS0036P'
p1482
(dp1483
g12
F-1.0
sg20
S'BF Dra B'
p1484
sg29
F3.95
sg37
S'BF Dra'
p1485
sg46
I36
sg54
F6400.0
sg62
F0.005
sg70
F-1.0
sg78
F0.012
sg86
F1.922
sg94
F-1.0
sg102
F1.375
sg110
F11.2110047
sg118
F-1.0
sg126
F69.88263333333333
sg134
g135
sg143
F1.8
sg151
F0.012
sg159
S'F6V'
p1486
sg161
(lp1487
g163
asg347
F-1.0
sg355
S'EkCat'
p1488
sg364
F4.008
sg372
F88.42
sg380
S'173'
p1489
sg382
(dp1490
g384
(dp1491
g393
F10.0
sg401
F1.0
sg409
F0.0
sg417
F0.0
sg425
F1.0
sg433
F0.0
sg441
S"'early mars'"
p1492
sg450
g451
sg459
F6.0
sg467
F0.0
sg475
F1.000001
sg483
F0.01
sg491
F1.0
sg499
F0.0
sg507
F0.8
sg515
F10.0
sg523
F1.000001
sg531
F10.0
sg539
F1.5
sg547
F44.0
sg555
F0.0
sg563
F1.0
sg571
F10.0
sg579
S"'maximum greenhouse'"
p1493
sg588
F0.3
sg596
F5e+40
sg604
F0.01
sg612
F1.5
sg620
F2.0
sg628
F3.0
sg636
S'BCA98'
p1494
sg645
S'BCA98'
p1495
sg654
F1.0
sg662
F1.0
sg670
F5e+40
sg678
g679
sg687
F0.1
sg695
S'BHMCatS0036P'
p1496
sg704
g705
sg713
F10.0
sg721
S'BF Dra'
p1497
sg730
S"'recent venus'"
p1498
sg739
S"'runaway greenhouse'"
p1499
sg748
F1.0
sg756
g757
sg765
F0.01
sg773
F0.3
sssg781
F-1.0
sg789
g3
(g792
S'\x8f\x91\xba\xea\xb8\x16$@'
p1500
tp1501
Rp1502
sg805
S'2012AJ....143..129S;'
p1503
sg814
F1.414
sg822
F2.086
sg830
F18.849819444444442
sg838
S'0036'
p1504
sg847
F0.005
sg855
F-1.0
sg863
F-1.0
sg871
F0.003
sg879
F27.0
sg887
g197
sg895
F150.0
sg903
F0.972418670438472
sg911
g912
sg920
S'BF Dra A'
p1505
sg929
F-1.0
sg937
F354.0
sg945
S'F6V'
p1506
sg954
g3
(g792
S'\x95\x8e\xd4\xd7\x82F\x01@'
p1507
tp1508
Rp1509
sg965
F0.0960728534759358
sg973
g3
(g792
S';\xb2\xc9\x8d#\x98%@'
p1510
tp1511
Rp1512
sg984
F9.77
sg992
F6360.0
sg1000
g1482
sg1008
F-1.0
sg1016
F0.003
sg1024
F1.8
sg1032
F-1.0
sg1040
F-1.0
sg1048
F-1.0
sg1056
F0.387
sg1064
F10.5
sg1072
F-1.0
sg1080
g3
(g792
S'HK\xdbW\xe0\x8c\xfb?'
p1513
tp1514
Rp1515
sg1091
F9.0
sg1099
F-1.0
sg1107
F150.0
ssS'BHMCatS0007D'
p1516
(dp1517
g12
F-0.2
sg20
S'Kepler-413 B'
p1518
sg29
F4.727
sg37
S'Kepler-413'
p1519
sg46
I7
sg54
F3460.0
sg62
F-1.0
sg70
F-1.0
sg78
F0.008
sg86
F0.484
sg94
F-1.0
sg102
F0.542
sg110
F10.116
sg118
g3
(g792
S'\xff\x07\xf4,5d\x84?'
p1520
tp1521
Rp1522
sg126
F51.16246944444444
sg134
g1287
sg143
F-1.0
sg151
F0.02
sg159
S'K type'
p1523
sg161
(lp1524
(dp1525
g171
S'BHMCatP0008'
p1526
sg180
F20.986236227855734
sg188
F0.1181
sg196
S'BHMCatS007D'
p1527
sg205
F0.002
sg213
S'8'
p1528
sg222
S'2014ApJ...784...14K'
p1529
sg231
S'Kepler-413b'
p1530
sg240
S'0008'
p1531
sg249
F4.351686956521739
sg257
F-1.0
sg265
S'Kepler-413'
p1532
sg274
F67.02876661866648
sg282
F-1.0
sg290
F0.3553
sg298
F-1.0
sg306
F0.0
sg314
F1.362
sg322
F66.262
sg330
g1297
sg339
F0.09874895620781668
sasg347
F279.54
sg355
S'KIC'
p1533
sg364
F-1.0
sg372
F87.33
sg380
S'12351927'
p1534
sg382
(dp1535
S'BHMCatP0008'
p1536
(dp1537
g393
F10.0
sg401
F1.0
sg409
F0.0
sg417
F0.0
sg425
F1.0
sg433
F-0.2
sg441
S"'early mars'"
p1538
sg450
S"'trend'"
p1539
sg459
F6.0
sg467
F0.0
sg475
F4.35168695652174
sg483
F0.01
sg491
F1.0
sg499
F-0.2
sg507
F0.8
sg515
F10.0
sg523
F67.0287666186665
sg531
F10.0
sg539
F1.5
sg547
F44.0
sg555
F0.0
sg563
F1.0
sg571
F10.0
sg579
S"'maximum greenhouse'"
p1540
sg588
F0.3
sg596
F5e+40
sg604
F0.01
sg612
F1.5
sg620
F2.0
sg628
F3.0
sg636
S'BCA98'
p1541
sg645
S'BCA98'
p1542
sg654
F1.0
sg662
F1.0
sg670
F5e+40
sg678
S'BHMCatP0008'
p1543
sg687
F0.1
sg695
S'BHMCatS0007D'
p1544
sg704
S'Kepler-413b'
p1545
sg713
F10.0
sg721
S'Kepler-413'
p1546
sg730
S"'recent venus'"
p1547
sg739
S"'runaway greenhouse'"
p1548
sg748
F1.0
sg756
S"'Earth'"
p1549
sg765
F0.01
sg773
F0.3
sssg781
F0.073
sg789
g3
(g792
S'j\xeb\xf4\xf1f]\x1f@'
p1550
tp1551
Rp1552
sg805
S'2014ApJ...784...14K;'
p1553
sg814
F0.82
sg822
F0.776
sg830
F19.234041666666666
sg838
S'0007'
p1554
sg847
F-1.0
sg855
F-1.0
sg863
F0.15
sg871
F0.015
sg879
F-1.0
sg887
S'BHMCatP0008;'
p1555
sg895
F-1.0
sg903
F0.660975609756098
sg911
g912
sg920
S'Kepler-413 A'
p1556
sg929
F13.15
sg937
F-1.0
sg945
S'M type'
p1557
sg954
F-1.0
sg965
F0.1015
sg973
F-1.0
sg984
F15.52
sg992
F4700.0
sg1000
g1516
sg1008
F-1.0
sg1016
F0.008
sg1024
F2.0
sg1032
F-1.0
sg1040
F-1.431
sg1048
F-1.0
sg1056
F0.0372
sg1064
F5.0
sg1072
g3
(g792
S'\xa5"\xf8\xd1\xa4/F?'
p1558
tp1559
Rp1560
sg1080
g3
(g792
S'"\x89]\x8e\x85\x17\t@'
p1561
tp1562
Rp1563
sg1091
F-1.0
sg1099
g3
(g792
S'R\xcf\x91\x8fZ\xc0\x82@'
p1564
tp1565
Rp1566
sg1107
F-1.0
ssS'BHMCatS0037P'
p1567
(dp1568
g12
F-1.0
sg20
S'HP Dra B'
p1569
sg29
F4.218
sg37
S'HP Dra'
p1570
sg46
I37
sg54
F5895.0
sg62
F0.011
sg70
F-1.0
sg78
F0.012
sg86
F1.052
sg94
F-1.0
sg102
F1.094
sg110
F10.76152
sg118
F-1.0
sg126
F51.308274999999995
sg134
g135
sg143
F0.01
sg151
F0.01
sg159
S'F9V'
p1571
sg161
(lp1572
g163
asg347
F-1.0
sg355
S'EkCat'
p1573
sg364
F4.433
sg372
F87.82
sg380
S'176'
p1574
sg382
(dp1575
g384
(dp1576
g393
F10.0
sg401
F1.0
sg409
F0.0
sg417
F0.0
sg425
F1.0
sg433
F0.0
sg441
S"'early mars'"
p1577
sg450
g451
sg459
F6.0
sg467
F0.0
sg475
F1.000001
sg483
F0.01
sg491
F1.0
sg499
F0.0
sg507
F0.8
sg515
F10.0
sg523
F1.000001
sg531
F10.0
sg539
F1.5
sg547
F44.0
sg555
F0.0
sg563
F1.0
sg571
F10.0
sg579
S"'maximum greenhouse'"
p1578
sg588
F0.3
sg596
F5e+40
sg604
F0.01
sg612
F1.5
sg620
F2.0
sg628
F3.0
sg636
S'BCA98'
p1579
sg645
S'BCA98'
p1580
sg654
F1.0
sg662
F1.0
sg670
F5e+40
sg678
g679
sg687
F0.1
sg695
S'BHMCatS0037P'
p1581
sg704
g705
sg713
F10.0
sg721
S'HP Dra'
p1582
sg730
S"'recent venus'"
p1583
sg739
S"'runaway greenhouse'"
p1584
sg748
F1.0
sg756
g757
sg765
F0.01
sg773
F0.3
sssg781
F-1.0
sg789
g3
(g792
S'V\x1a\x88\xcd\x86k0@'
p1585
tp1586
Rp1587
sg805
S'2010AJ....140..129M;'
p1588
sg814
F1.133
sg822
F1.371
sg830
F18.914855555555555
sg838
S'0037'
p1589
sg847
F0.01
sg855
F-1.0
sg863
F-1.0
sg871
F0.005
sg879
F3.0
sg887
g197
sg895
F150.0
sg903
F0.965578111209179
sg911
S'DEBCat'
p1590
sg920
S'HP Dra A'
p1591
sg929
F-1.0
sg937
F77.0
sg945
S'F9V'
p1592
sg954
g3
(g792
S'\xb3\t\xa1\x87D\xbe\x9b?'
p1593
tp1594
Rp1595
sg965
F0.124699212433155
sg973
g3
(g792
S'\xe4\xd5YK \x01(@'
p1596
tp1597
Rp1598
sg984
F7.951
sg992
F6000.0
sg1000
g1567
sg1008
F-1.0
sg1016
F0.007
sg1024
F0.01
sg1032
F-1.0
sg1040
F-1.0
sg1048
F-1.0
sg1056
F0.037
sg1064
F4.22
sg1072
F-1.0
sg1080
g3
(g792
S'kJ\x8ff\x03\xec\xa3?'
p1599
tp1600
Rp1601
sg1091
F4.43
sg1099
F-1.0
sg1107
F150.0
ssS'BHMCatS0035P'
p1602
(dp1603
g12
F-1.0
sg20
S'TYC 176-2950-1 B'
p1604
sg29
F4.02613295021946
sg37
S'TYC 176-2950-1'
p1605
sg46
I35
sg54
F-1.0
sg62
F0.015
sg70
F-1.0
sg78
F0.03
sg86
F1.18
sg94
F-1.0
sg102
F1.041
sg110
F11.55478
sg118
F-1.0
sg126
F5.814813888888889
sg134
g135
sg143
F-1.0
sg151
F0.02
sg159
S'G6'
p1606
sg161
(lp1607
g163
asg347
F-1.0
sg355
S'EkCat'
p1608
sg364
F4.31153509391184
sg372
F88.2
sg380
S'74'
p1609
sg382
(dp1610
g384
(dp1611
g393
F10.0
sg401
F1.0
sg409
F0.0
sg417
F0.0
sg425
F1.0
sg433
F0.0
sg441
S"'early mars'"
p1612
sg450
g451
sg459
F6.0
sg467
F0.0
sg475
F1.000001
sg483
F0.01
sg491
F1.0
sg499
F0.0
sg507
F0.8
sg515
F10.0
sg523
F1.000001
sg531
F10.0
sg539
F1.5
sg547
F44.0
sg555
F0.0
sg563
F1.0
sg571
F10.0
sg579
S"'maximum greenhouse'"
p1613
sg588
F0.3
sg596
F5e+40
sg604
F0.01
sg612
F1.5
sg620
F2.0
sg628
F3.0
sg636
S'BCA98'
p1614
sg645
S'BCA98'
p1615
sg654
F1.0
sg662
F1.0
sg670
F5e+40
sg678
g679
sg687
F0.1
sg695
S'BHMCatS0035P'
p1616
sg704
g705
sg713
F10.0
sg721
S'TYC 176-2950-1'
p1617
sg730
S"'recent venus'"
p1618
sg739
S"'runaway greenhouse'"
p1619
sg748
F1.0
sg756
g757
sg765
F0.01
sg773
F0.3
sssg781
F-1.0
sg789
F-1.0
sg805
S'2008AN....329..835B;'
p1620
sg814
F1.055
sg822
F1.65
sg830
F7.273766666666667
sg838
S'0035'
p1621
sg847
F0.016
sg855
F-1.0
sg863
F-1.0
sg871
F0.008
sg879
F17.0
sg887
g197
sg895
F-1.0
sg903
F0.986729857819905
sg911
g912
sg920
S'TYC 176-2950-1 A'
p1622
sg929
F-1.0
sg937
F177.0
sg945
g197
sg954
F-1.0
sg965
F0.128004044117647
sg973
F-1.0
sg984
F10.215
sg992
F-1.0
sg1000
g1602
sg1008
F-1.0
sg1016
F0.008
sg1024
F-1.0
sg1032
F-1.0
sg1040
F-1.0
sg1048
F-1.0
sg1056
F0.21
sg1064
F-1.0
sg1072
F-1.0
sg1080
F-1.0
sg1091
F-1.0
sg1099
F-1.0
sg1107
F-1.0
ssS'BHMCatS0046P'
p1623
(dp1624
g12
F-1.0
sg20
S'ASAS J085524-4411.3  B'
p1625
sg29
F3.97479165286237
sg37
S'ASAS J085524-4411.3'
p1626
sg46
I46
sg54
F-1.0
sg62
F0.009
sg70
F-1.0
sg78
F0.02
sg86
F1.634
sg94
F-1.0
sg102
F1.056
sg110
F7.040274
sg118
F-1.0
sg126
F-43.81263055555556
sg134
g135
sg143
F-1.0
sg151
F0.016
sg159
S'F7'
p1627
sg161
(lp1628
g163
asg347
F-1.0
sg355
S'EkCat'
p1629
sg364
F4.03509043777324
sg372
F86.4
sg380
S'95'
p1630
sg382
(dp1631
g384
(dp1632
g393
F10.0
sg401
F1.0
sg409
F0.0
sg417
F0.0
sg425
F1.0
sg433
F0.0
sg441
S"'early mars'"
p1633
sg450
g451
sg459
F6.0
sg467
F0.0
sg475
F1.000001
sg483
F0.01
sg491
F1.0
sg499
F0.0
sg507
F0.8
sg515
F10.0
sg523
F1.000001
sg531
F10.0
sg539
F1.5
sg547
F44.0
sg555
F0.0
sg563
F1.0
sg571
F10.0
sg579
S"'maximum greenhouse'"
p1634
sg588
F0.3
sg596
F5e+40
sg604
F0.01
sg612
F1.5
sg620
F2.0
sg628
F3.0
sg636
S'BCA98'
p1635
sg645
S'BCA98'
p1636
sg654
F1.0
sg662
F1.0
sg670
F5e+40
sg678
g679
sg687
F0.1
sg695
S'BHMCatS0046P'
p1637
sg704
g705
sg713
F10.0
sg721
S'ASAS J085524-4411.3'
p1638
sg730
S"'recent venus'"
p1639
sg739
S"'runaway greenhouse'"
p1640
sg748
F1.0
sg756
g757
sg765
F0.01
sg773
F0.3
sssg781
F-1.0
sg789
F-1.0
sg805
S'2008AN....329..835B;'
p1641
sg814
F1.204
sg822
F1.87
sg830
F8.923344444444444
sg838
S'0046'
p1642
sg847
F0.009
sg855
F-1.0
sg863
F-1.0
sg871
F0.003
sg879
F27.0
sg887
g197
sg895
F-1.0
sg903
F0.877076411960133
sg911
g912
sg920
S'ASAS J085524-4411.3  A'
p1643
sg929
F-1.0
sg937
F271.0
sg945
g197
sg954
F-1.0
sg965
F0.094397164171123
sg973
F-1.0
sg984
F9.984
sg992
F-1.0
sg1000
g1623
sg1008
F-1.0
sg1016
F0.003
sg1024
F-1.0
sg1032
F-1.0
sg1040
F-1.0
sg1048
F-1.0
sg1056
F0.0
sg1064
F-1.0
sg1072
F-1.0
sg1080
F-1.0
sg1091
F-1.0
sg1099
F-1.0
sg1107
F-1.0
ssS'BHMCatS0001D'
p1644
(dp1645
g12
F-0.3
sg20
S'Kepler-16 B'
p1646
sg29
F4.479
sg37
S'Kepler-16'
p1647
sg46
I1
sg54
F-1.0
sg62
F0.0016
sg70
F-1.0
sg78
F0.001
sg86
F0.226
sg94
F4.0
sg102
F0.203
sg110
F41.079
sg118
g3
(g792
S'\xe7C\xb1\xc2\x0bc\x80?'
p1648
tp1649
Rp1650
sg126
F51.75743888888889
sg134
g1287
sg143
F-1.0
sg151
F0.001
sg159
S'K type'
p1651
sg161
(lp1652
(dp1653
g171
S'BHMCatP0001'
p1654
sg180
F5.087572418874117
sg188
F0.0069
sg196
S'BHMCatS001D'
p1655
sg205
F0.001
sg213
S'1'
p1656
sg222
S'2012Natur.481..475W;2012yCatp038048101W'
p1657
sg231
S'Kepler-16b'
p1658
sg240
S'0001'
p1659
sg249
F8.458745816983205
sg257
F0.0011
sg265
S'Kepler-16'
p1660
sg274
F105.88510096781756
sg282
F-1.0
sg290
F0.7048
sg298
F0.028
sg306
F0.0
sg314
F0.893
sg322
F228.776
sg330
g1297
sg339
F0.02749260712603987
sasg347
F263.464
sg355
S'KIC'
p1661
sg364
F5.0358
sg372
F90.3401
sg380
S'12644769'
p1662
sg382
(dp1663
S'BHMCatP0001'
p1664
(dp1665
g393
F10.0
sg401
F1.0
sg409
F0.0
sg417
F0.0
sg425
F3.0
sg433
F-0.3
sg441
S"'early mars'"
p1666
sg450
S"'trend'"
p1667
sg459
F6.0
sg467
F0.0
sg475
F8.45874581698321
sg483
F0.01
sg491
F1.0
sg499
F-0.3
sg507
F0.8
sg515
F10.0
sg523
F105.885100967818
sg531
F10.0
sg539
F1.5
sg547
F44.0
sg555
F0.0
sg563
F1.0
sg571
F10.0
sg579
S"'maximum greenhouse'"
p1668
sg588
F0.3
sg596
F5e+40
sg604
F0.01
sg612
F1.5
sg620
F2.0
sg628
F3.0
sg636
S'BCA98'
p1669
sg645
S'BCA98'
p1670
sg654
F1.0
sg662
F3.0
sg670
F5e+40
sg678
S'BHMCatP0001'
p1671
sg687
F0.1
sg695
S'BHMCatS0001D'
p1672
sg704
S'Kepler-16b'
p1673
sg713
F10.0
sg721
S'Kepler-16'
p1674
sg730
S"'recent venus'"
p1675
sg739
S"'runaway greenhouse'"
p1676
sg748
F3.0
sg756
S"'Earth'"
p1677
sg765
F0.01
sg773
F0.3
sssg781
F0.012
sg789
g3
(g792
S'\xa1\xffg\xf2\xe8\xd6A@'
p1678
tp1679
Rp1680
sg805
S'2011Sci...333.1602D; 2011ApJ...741L...1W;'
p1681
sg814
F0.69
sg822
F0.649
sg830
F19.27171388888889
sg838
S'0001'
p1682
sg847
F0.0017
sg855
F-1.0
sg863
F1.0
sg871
F0.004
sg879
F-1.0
sg887
S'BHMCatP0001;'
p1683
sg895
F-1.0
sg903
F0.294202898550725
sg911
g912
sg920
S'Kepler-16 A'
p1684
sg929
F35.1
sg937
F-1.0
sg945
S'M type'
p1685
sg954
F-1.0
sg965
F0.2243
sg973
F-1.0
sg984
F11.762
sg992
F4337.0
sg1000
g1644
sg1008
F-1.0
sg1016
F0.001
sg1024
F0.025
sg1032
F0.2
sg1040
F-0.2
sg1048
F2.0
sg1056
F0.1594
sg1064
F0.92
sg1072
g3
(g792
S'\xff\x07\xf4,5d\x84?'
p1686
tp1687
Rp1688
sg1080
g3
(g792
S'#B\xd6\xbbs\x06\xef?'
p1689
tp1690
Rp1691
sg1091
F-1.0
sg1099
F-1.0
sg1107
F80.0
ssS'BHMCatS0011V'
p1692
(dp1693
g12
F0.0
sg20
S'NICHE-003 B'
p1694
sg29
F-2.0
sg37
S'NICHE-003'
p1695
sg46
I11
sg54
F-2.0
sg62
F-2.0
sg70
F-2.0
sg78
F0.0
sg86
F-2.0
sg94
F-2.0
sg102
F1.0
sg110
F40.0
sg118
g3
(g792
S'0\xa8\x1bgj\x94\x8f?'
p1696
tp1697
Rp1698
sg126
F-2.0
sg134
g1421
sg143
F-2.0
sg151
F0.0
sg159
g197
sg161
(lp1699
g163
asg347
F-1.0
sg355
S'NICHE'
p1700
sg364
F-2.0
sg372
F-2.0
sg380
g1338
sg382
(dp1701
g384
(dp1702
g393
F10.0
sg401
F1.0
sg409
F0.0
sg417
F0.0
sg425
F1.0
sg433
F0.0
sg441
S"'early mars'"
p1703
sg450
g451
sg459
F6.0
sg467
F0.0
sg475
F1.000001
sg483
F0.01
sg491
F1.0
sg499
F0.0
sg507
F0.8
sg515
F10.0
sg523
F1.000001
sg531
F10.0
sg539
F1.5
sg547
F44.0
sg555
F0.0
sg563
F1.0
sg571
F10.0
sg579
S"'maximum greenhouse'"
p1704
sg588
F0.3
sg596
F5e+40
sg604
F0.01
sg612
F1.5
sg620
F2.0
sg628
F3.0
sg636
S'BCA98'
p1705
sg645
S'BCA98'
p1706
sg654
F1.0
sg662
F1.0
sg670
F5e+40
sg678
g679
sg687
F0.1
sg695
S'BHMCatS0011V'
p1707
sg704
g705
sg713
F10.0
sg721
S'NICHE-003'
p1708
sg730
S"'recent venus'"
p1709
sg739
S"'runaway greenhouse'"
p1710
sg748
F1.0
sg756
g757
sg765
F0.01
sg773
F0.3
sssg781
F-2.0
sg789
F-1.0
sg805
g197
sg814
F1.0
sg822
F-2.0
sg830
F-2.0
sg838
S'0011'
p1711
sg847
F-2.0
sg855
F-2.0
sg863
F-2.0
sg871
F0.0
sg879
F-1.0
sg887
g197
sg895
F-2.0
sg903
F1.0
sg911
g912
sg920
S'NICHE-003 A'
p1712
sg929
F-2.0
sg937
F-1.0
sg945
g197
sg954
F-1.0
sg965
F0.228900378680044
sg973
F-1.0
sg984
F-2.0
sg992
F-2.0
sg1000
g1692
sg1008
F-2.0
sg1016
F0.0
sg1024
F-2.0
sg1032
F-1.0
sg1040
F-1.0
sg1048
F-2.0
sg1056
F0.3
sg1064
F-2.0
sg1072
F-1.0
sg1080
F-1.0
sg1091
F-2.0
sg1099
F-1.0
sg1107
F-2.0
ssS'PlanetFields'
p1713
(lp1714
g213
ag240
ag330
ag171
ag196
ag265
ag231
ag274
ag180
ag249
ag339
ag314
ag290
ag257
ag322
ag298
ag188
ag205
ag282
ag306
ag222
asS'BHMCatS0005D'
p1715
(dp1716
g12
F-0.25
sg20
S'Kepler-47 B'
p1717
sg29
F4.682
sg37
S'Kepler-47'
p1718
sg46
I5
sg54
F3357.0
sg62
F-1.0
sg70
F-1.0
sg78
F0.017
sg86
F0.35
sg94
F-1.0
sg102
F0.362
sg110
F7.448
sg118
g3
(g792
S'\x17\xc4\xeb\x8f\x9cG\x82?'
p1719
tp1720
Rp1721
sg126
F46.92046666666666
sg134
g1287
sg143
F-1.0
sg151
F0.006
sg159
g197
sg161
(lp1722
(dp1723
g171
S'BHMCatP0005'
p1724
sg180
F0.0
sg188
F0.035
sg196
S'BHMCatS005D'
p1725
sg205
F-1.0
sg213
S'5'
p1726
sg222
S'2013ApJ...768..127S;2013ApJ...770...52K'
p1727
sg231
S'Kepler-47b'
p1728
sg240
S'0005'
p1729
sg249
F3.029797520012557
sg257
F0.0047
sg265
S'Kepler-47'
p1730
sg274
F7.631358628311175
sg282
F-1.0
sg290
F0.2956
sg298
F0.04
sg306
F0.0
sg314
F1.405
sg322
F49.514
sg330
g1297
sg339
F0.12343619525977083
sa(dp1731
g171
S'BHMCatP0006'
p1732
sg180
F0.0
sg188
F0.09
sg196
S'BHMCatS005D'
p1733
sg205
F-1.0
sg213
S'6'
p1734
sg222
S'2014ApJ...784...14K'
p1735
sg231
S'Kepler-47c'
p1736
sg240
S'0006'
p1737
sg249
F4.600803641500549
sg257
F0.016
sg265
S'Kepler-47'
p1738
sg274
F28.617594856166907
sg282
F-1.0
sg290
F0.989
sg298
F0.072
sg306
F0.0
sg314
F1.405
sg322
F303.158
sg330
S'c'
p1739
sg339
F0.20198650133417043
sasg347
F212.3
sg355
S'KIC'
p1740
sg364
F-1.0
sg372
F89.69
sg380
S'10020423'
p1741
sg382
(dp1742
S'BHMCatP0005'
p1743
(dp1744
g393
F10.0
sg401
F1.0
sg409
F0.0
sg417
F0.0
sg425
F1.0
sg433
F-0.25
sg441
S"'early mars'"
p1745
sg450
S"'trend'"
p1746
sg459
F6.0
sg467
F0.0
sg475
F3.02979752001256
sg483
F0.01
sg491
F1.0
sg499
F-0.25
sg507
F0.8
sg515
F10.0
sg523
F7.63135862831118
sg531
F10.0
sg539
F1.5
sg547
F44.0
sg555
F0.0
sg563
F1.0
sg571
F10.0
sg579
S"'maximum greenhouse'"
p1747
sg588
F0.3
sg596
F5e+40
sg604
F0.01
sg612
F1.5
sg620
F2.0
sg628
F3.0
sg636
S'BCA98'
p1748
sg645
S'BCA98'
p1749
sg654
F1.0
sg662
F1.0
sg670
F5e+40
sg678
S'BHMCatP0005'
p1750
sg687
F0.1
sg695
S'BHMCatS0005D'
p1751
sg704
S'Kepler-47b'
p1752
sg713
F10.0
sg721
S'Kepler-47'
p1753
sg730
S"'recent venus'"
p1754
sg739
S"'runaway greenhouse'"
p1755
sg748
F1.0
sg756
S"'Earth'"
p1756
sg765
F0.01
sg773
F0.3
ssS'BHMCatP0006'
p1757
(dp1758
g393
F10.0
sg401
F1.0
sg409
F0.0
sg417
F0.0
sg425
F1.0
sg433
F-0.25
sg441
g1745
sg450
S"'trend'"
p1759
sg459
F6.0
sg467
F0.0
sg475
F4.60080364150055
sg483
F0.01
sg491
F1.0
sg499
F-0.25
sg507
F0.8
sg515
F10.0
sg523
F28.6175948561669
sg531
F10.0
sg539
F1.5
sg547
F44.0
sg555
F0.0
sg563
F1.0
sg571
F10.0
sg579
g1747
sg588
F0.3
sg596
F5e+40
sg604
F0.01
sg612
F1.5
sg620
F2.0
sg628
F3.0
sg636
g1748
sg645
g1749
sg654
F1.0
sg662
F1.0
sg670
F5e+40
sg678
S'BHMCatP0006'
p1760
sg687
F0.1
sg695
g1751
sg704
S'Kepler-47c'
p1761
sg713
F10.0
sg721
g1753
sg730
g1754
sg739
g1755
sg748
F1.0
sg756
S"'Earth'"
p1762
sg765
F0.01
sg773
F0.3
sssg781
F0.126
sg789
g3
(g792
S"\xca<\xdd\xec\xa2\xc8'@"
p1763
tp1764
Rp1765
sg805
S'2012Sci...337.1511O;'
p1766
sg814
F1.043
sg822
F0.964
sg830
F19.686527777777776
sg838
S'0005'
p1767
sg847
F0.1
sg855
F-1.0
sg863
F0.022
sg871
F0.055
sg879
F-1.0
sg887
S'BHMCatP0005;BHMCatP0006;'
p1768
sg895
F100.0
sg903
F0.347075743048897
sg911
g912
sg920
S'Kepler-47 A'
p1769
sg929
F7.775
sg937
F-1.0
sg945
g197
sg954
F-1.0
sg965
F0.0836
sg973
F-1.0
sg984
F15.178
sg992
F5636.0
sg1000
g1715
sg1008
F-1.0
sg1016
F0.013
sg1024
F0.5
sg1032
F-1.0
sg1040
F-0.252
sg1048
F-1.0
sg1056
F0.0234
sg1064
F4.1
sg1072
g3
(g792
S'\xf5aR\xa613\x82?'
p1770
tp1771
Rp1772
sg1080
g3
(g792
S'\x87Z\xcb\x12"4\xf7?'
p1773
tp1774
Rp1775
sg1091
F-1.0
sg1099
g3
(g792
S'\xb6Y6\x15\x84!\x90@'
p1776
tp1777
Rp1778
sg1107
F100.0
ssS'BHMCatS0050P'
p1779
(dp1780
g12
F-1.0
sg20
S'NGC188 KR V12 B'
p1781
sg29
F4.174
sg37
S'NGC188 KR V12'
p1782
sg46
I50
sg54
F5875.0
sg62
F0.013
sg70
F-1.0
sg78
F0.019
sg86
F1.373
sg94
F-1.0
sg102
F1.081
sg110
F6.5042969
sg118
F-1.0
sg126
F85.17629166666667
sg134
g135
sg143
F-1.0
sg151
F0.019
sg159
S'G type'
p1783
sg161
(lp1784
g163
asg347
F-1.0
sg355
S'EkCat'
p1785
sg364
F4.196
sg372
F88.62
sg380
g1726
sg382
(dp1786
g384
(dp1787
g393
F10.0
sg401
F1.0
sg409
F0.0
sg417
F0.0
sg425
F1.0
sg433
F0.0
sg441
S"'early mars'"
p1788
sg450
g451
sg459
F6.0
sg467
F0.0
sg475
F1.000001
sg483
F0.01
sg491
F1.0
sg499
F0.0
sg507
F0.8
sg515
F10.0
sg523
F1.000001
sg531
F10.0
sg539
F1.5
sg547
F44.0
sg555
F0.0
sg563
F1.0
sg571
F10.0
sg579
S"'maximum greenhouse'"
p1789
sg588
F0.3
sg596
F5e+40
sg604
F0.01
sg612
F1.5
sg620
F2.0
sg628
F3.0
sg636
S'BCA98'
p1790
sg645
S'BCA98'
p1791
sg654
F1.0
sg662
F1.0
sg670
F5e+40
sg678
g679
sg687
F0.1
sg695
S'BHMCatS0050P'
p1792
sg704
g705
sg713
F10.0
sg721
S'NGC188 KR V12'
p1793
sg730
S"'recent venus'"
p1794
sg739
S"'runaway greenhouse'"
p1795
sg748
F1.0
sg756
g757
sg765
F0.01
sg773
F0.3
sssg781
F-1.0
sg789
g3
(g792
S"\xa9\x8d'\xff]3\x13@"
p1796
tp1797
Rp1798
sg805
S'2009AJ....137.5086M;'
p1799
sg814
F1.103
sg822
F1.424
sg830
F0.8770944444444445
sg838
S'0050'
p1800
sg847
F0.012
sg855
F-1.0
sg863
F-1.0
sg871
F0.007
sg879
F75.0
sg887
g197
sg895
F100.0
sg903
F0.980054397098821
sg911
g912
sg920
S'NGC188 KR V12 A'
p1801
sg929
F-1.0
sg937
F1770.0
sg945
S'G type'
p1802
sg954
F-1.0
sg965
F0.0884857046791444
sg973
g3
(g792
S'\xaf\xfaO\xef\xc1U\x10@'
p1803
tp1804
Rp1805
sg984
F14.64
sg992
F5900.0
sg1000
g1779
sg1008
F-1.0
sg1016
F0.007
sg1024
F-1.0
sg1032
F-1.0
sg1040
F-1.0
sg1048
F-1.0
sg1056
F0.0
sg1064
F15.0
sg1072
F-1.0
sg1080
F-1.0
sg1091
F17.0
sg1099
F-1.0
sg1107
F100.0
ssS'BHMCatS0009V'
p1806
(dp1807
g12
F0.0
sg20
S'NICHE-001 B'
p1808
sg29
F-2.0
sg37
S'NICHE-001'
p1809
sg46
I9
sg54
F-2.0
sg62
F-2.0
sg70
F-2.0
sg78
F0.0
sg86
F-2.0
sg94
F-2.0
sg102
F1.0
sg110
F15.0
sg118
g3
(g792
S'0\xa8\x1bgj\x94\x8f?'
p1810
tp1811
Rp1812
sg126
F-2.0
sg134
g1421
sg143
F-2.0
sg151
F0.0
sg159
g197
sg161
(lp1813
g163
asg347
F-1.0
sg355
S'NICHE'
p1814
sg364
F-2.0
sg372
F-2.0
sg380
g1656
sg382
(dp1815
g384
(dp1816
g393
F10.0
sg401
F1.0
sg409
F0.0
sg417
F0.0
sg425
F1.0
sg433
F0.0
sg441
S"'early mars'"
p1817
sg450
g451
sg459
F6.0
sg467
F0.0
sg475
F1.000001
sg483
F0.01
sg491
F1.0
sg499
F0.0
sg507
F0.8
sg515
F10.0
sg523
F1.000001
sg531
F10.0
sg539
F1.5
sg547
F44.0
sg555
F0.0
sg563
F1.0
sg571
F10.0
sg579
S"'maximum greenhouse'"
p1818
sg588
F0.3
sg596
F5e+40
sg604
F0.01
sg612
F1.5
sg620
F2.0
sg628
F3.0
sg636
S'BCA98'
p1819
sg645
S'BCA98'
p1820
sg654
F1.0
sg662
F1.0
sg670
F5e+40
sg678
g679
sg687
F0.1
sg695
S'BHMCatS0009V'
p1821
sg704
g705
sg713
F10.0
sg721
S'NICHE-001'
p1822
sg730
S"'recent venus'"
p1823
sg739
S"'runaway greenhouse'"
p1824
sg748
F1.0
sg756
g757
sg765
F0.01
sg773
F0.3
sssg781
F-2.0
sg789
F-1.0
sg805
g197
sg814
F1.0
sg822
F-2.0
sg830
F-2.0
sg838
S'0009'
p1825
sg847
F-2.0
sg855
F-2.0
sg863
F-2.0
sg871
F0.0
sg879
F-1.0
sg887
g197
sg895
F-2.0
sg903
F1.0
sg911
g912
sg920
S'NICHE-001 A'
p1826
sg929
F-2.0
sg937
F-1.0
sg945
g197
sg954
F-1.0
sg965
F0.119032993695704
sg973
F-1.0
sg984
F-2.0
sg992
F-2.0
sg1000
g1806
sg1008
F-2.0
sg1016
F0.0
sg1024
F-2.0
sg1032
F-1.0
sg1040
F-1.0
sg1048
F-2.0
sg1056
F0.1
sg1064
F-2.0
sg1072
F-1.0
sg1080
F-1.0
sg1091
F-2.0
sg1099
F-1.0
sg1107
F-2.0
ssS'BHMCatS0039P'
p1827
(dp1828
g12
F-1.0
sg20
S'HS Aur B'
p1829
sg29
F4.39
sg37
S'HS Aur'
p1830
sg46
I39
sg54
F5200.0
sg62
F0.03
sg70
F-1.0
sg78
F0.023
sg86
F0.874
sg94
F-1.0
sg102
F0.877
sg110
F9.815377
sg118
F-1.0
sg126
F47.67337777777777
sg134
g135
sg143
F-1.0
sg151
F0.03
sg159
S'G8V'
p1831
sg161
(lp1832
g163
asg347
F-1.0
sg355
S'EkCat'
p1833
sg364
F4.5
sg372
F90.0
sg380
S'68'
p1834
sg382
(dp1835
g384
(dp1836
g393
F10.0
sg401
F1.0
sg409
F0.0
sg417
F0.0
sg425
F1.0
sg433
F0.0
sg441
S"'early mars'"
p1837
sg450
g451
sg459
F6.0
sg467
F0.0
sg475
F1.000001
sg483
F0.01
sg491
F1.0
sg499
F0.0
sg507
F0.8
sg515
F10.0
sg523
F1.000001
sg531
F10.0
sg539
F1.5
sg547
F44.0
sg555
F0.0
sg563
F1.0
sg571
F10.0
sg579
S"'maximum greenhouse'"
p1838
sg588
F0.3
sg596
F5e+40
sg604
F0.01
sg612
F1.5
sg620
F2.0
sg628
F3.0
sg636
S'BCA98'
p1839
sg645
S'BCA98'
p1840
sg654
F1.0
sg662
F1.0
sg670
F5e+40
sg678
g679
sg687
F0.1
sg695
S'BHMCatS0039P'
p1841
sg704
g705
sg713
F10.0
sg721
S'HS Aur'
p1842
sg730
S"'recent venus'"
p1843
sg739
S"'runaway greenhouse'"
p1844
sg748
F1.0
sg756
g757
sg765
F0.01
sg773
F0.3
sssg781
F-1.0
sg789
F-1.0
sg805
S'1986AJ.....91..383P;'
p1845
sg814
F0.898
sg822
F1.005
sg830
F6.855130555555555
sg838
S'0039'
p1846
sg847
F0.02
sg855
F-1.0
sg863
F-1.0
sg871
F0.019
sg879
F5.0
sg887
g197
sg895
F72.0
sg903
F0.976614699331848
sg911
S'DEBCat'
p1847
sg920
S'HS Aur A'
p1848
sg929
F-1.0
sg937
F130.0
sg945
S'K0V'
p1849
sg954
F-1.0
sg965
F0.108780164037433
sg973
F-1.0
sg984
F10.036
sg992
F5350.0
sg1000
g1827
sg1008
F-1.0
sg1016
F0.017
sg1024
F-1.0
sg1032
F-1.0
sg1040
F-1.0
sg1048
F-1.0
sg1056
F0.0
sg1064
F-1.0
sg1072
F-1.0
sg1080
F-1.0
sg1091
F-1.0
sg1099
F-1.0
sg1107
F70.0
ssS'BHMCatS0042P'
p1850
(dp1851
g12
F-1.0
sg20
S'2MASS J19071662+4639532  B'
p1852
sg29
F4.666
sg37
S'2MASS J19071662+4639532'
p1853
sg46
I42
sg54
F3700.0
sg62
F0.086
sg70
F-1.0
sg78
F0.043
sg86
F0.525
sg94
F-1.0
sg102
F0.523
sg110
F8.429441
sg118
F-1.0
sg126
F46.66478055555555
sg134
g135
sg143
F2.3
sg151
F0.052
sg159
S'K5V'
p1854
sg161
(lp1855
g163
asg347
F-1.0
sg355
S'EkCat'
p1856
sg364
F4.718
sg372
F89.02
sg380
S'181'
p1857
sg382
(dp1858
g384
(dp1859
g393
F10.0
sg401
F1.0
sg409
F0.0
sg417
F0.0
sg425
F1.0
sg433
F0.0
sg441
S"'early mars'"
p1860
sg450
g451
sg459
F6.0
sg467
F0.0
sg475
F1.000001
sg483
F0.01
sg491
F1.0
sg499
F0.0
sg507
F0.8
sg515
F10.0
sg523
F1.000001
sg531
F10.0
sg539
F1.5
sg547
F44.0
sg555
F0.0
sg563
F1.0
sg571
F10.0
sg579
S"'maximum greenhouse'"
p1861
sg588
F0.3
sg596
F5e+40
sg604
F0.01
sg612
F1.5
sg620
F2.0
sg628
F3.0
sg636
S'BCA98'
p1862
sg645
S'BCA98'
p1863
sg654
F1.0
sg662
F1.0
sg670
F5e+40
sg678
g679
sg687
F0.1
sg695
S'BHMCatS0042P'
p1864
sg704
g705
sg713
F10.0
sg721
S'2MASS J19071662+4639532'
p1865
sg730
S"'recent venus'"
p1866
sg739
S"'runaway greenhouse'"
p1867
sg748
F1.0
sg756
g757
sg765
F0.01
sg773
F0.3
sssg781
F-1.0
sg789
g3
(g792
S'\x06o\xaej\xbe\xe6\x16@'
p1868
tp1869
Rp1870
sg805
S'2008ApJ...687.1253D;'
p1871
sg814
F0.68
sg822
F0.634
sg830
F19.121283333333334
sg838
S'0042'
p1872
sg847
F0.059
sg855
F-1.0
sg863
F-1.0
sg871
F0.01
sg879
F20.0
sg887
g197
sg895
F-1.0
sg903
F0.769117647058823
sg911
g912
sg920
S'2MASS J19071662+4639532  A'
p1873
sg929
F-1.0
sg937
F230.0
sg945
S'M0V'
p1874
sg954
g3
(g792
S'\xfe\xfa\xfe\t"\xc8\x02@'
p1875
tp1876
Rp1877
sg965
F0.0862514522727273
sg973
g3
(g792
S'~\xd3\xa5\x90\xc1\xd2\x14@'
p1878
tp1879
Rp1880
sg984
F14.37
sg992
F4150.0
sg1000
g1850
sg1008
F-1.0
sg1016
F0.006
sg1024
F2.0
sg1032
F-1.0
sg1040
F-1.0
sg1048
F-1.0
sg1056
F0.0
sg1064
F5.6
sg1072
F-1.0
sg1080
g3
(g792
S')\x06X\x95\xac[\x00@'
p1881
tp1882
Rp1883
sg1091
F5.1
sg1099
F-1.0
sg1107
F-1.0
ssS'BHMCatS0038P'
p1884
(dp1885
g12
F-1.0
sg20
S'RW Lac B'
p1886
sg29
F4.257
sg37
S'RW Lac'
p1887
sg46
I38
sg54
F5560.0
sg62
F0.004
sg70
F-1.0
sg78
F0.004
sg86
F0.964
sg94
F-1.0
sg102
F0.87
sg110
F10.3692046
sg118
F-1.0
sg126
F49.65765833333333
sg134
g135
sg143
F-1.0
sg151
F0.004
sg159
S'G5V'
p1888
sg161
(lp1889
g163
asg347
F-1.0
sg355
S'EkCat'
p1890
sg364
F4.409
sg372
F89.49
sg380
S'239'
p1891
sg382
(dp1892
g384
(dp1893
g393
F10.0
sg401
F1.0
sg409
F0.0
sg417
F0.0
sg425
F1.0
sg433
F0.0
sg441
S"'early mars'"
p1894
sg450
g451
sg459
F6.0
sg467
F0.0
sg475
F1.000001
sg483
F0.01
sg491
F1.0
sg499
F0.0
sg507
F0.8
sg515
F10.0
sg523
F1.000001
sg531
F10.0
sg539
F1.5
sg547
F44.0
sg555
F0.0
sg563
F1.0
sg571
F10.0
sg579
S"'maximum greenhouse'"
p1895
sg588
F0.3
sg596
F5e+40
sg604
F0.01
sg612
F1.5
sg620
F2.0
sg628
F3.0
sg636
S'BCA98'
p1896
sg645
S'BCA98'
p1897
sg654
F1.0
sg662
F1.0
sg670
F5e+40
sg678
g679
sg687
F0.1
sg695
S'BHMCatS0038P'
p1898
sg704
g705
sg713
F10.0
sg721
S'RW Lac'
p1899
sg730
S"'recent venus'"
p1900
sg739
S"'runaway greenhouse'"
p1901
sg748
F1.0
sg756
g757
sg765
F0.01
sg773
F0.3
sssg781
F-1.0
sg789
g3
(g792
S'x\xc1G\x89\xde\xfd=@'
p1902
tp1903
Rp1904
sg805
S'2005AJ....130.2838L;'
p1905
sg814
F0.928
sg822
F1.186
sg830
F22.749194444444445
sg838
S'0038'
p1906
sg847
F0.003
sg855
F-1.0
sg863
F-1.0
sg871
F0.006
sg879
F10.0
sg887
g197
sg895
F150.0
sg903
F0.9375
sg911
S'DEBCat'
p1907
sg920
S'RW Lac A'
p1908
sg929
F-1.0
sg937
F190.0
sg945
S'G7V'
p1909
sg954
F-1.0
sg965
F0.112550464973262
sg973
F-1.0
sg984
F10.789
sg992
F5760.0
sg1000
g1884
sg1008
F-1.0
sg1016
F0.004
sg1024
F2.0
sg1032
F-1.0
sg1040
F-1.0
sg1048
F-1.0
sg1056
F0.01
sg1064
F2.0
sg1072
F-1.0
sg1080
g3
(g792
S'x\xc1G\x89\xde\xfd=@'
p1910
tp1911
Rp1912
sg1091
F-1.0
sg1099
F-1.0
sg1107
F100.0
ssS'BHMCatS0040P'
p1913
(dp1914
g12
F-1.0
sg20
S'TV Cet B'
p1915
sg29
F4.231
sg37
S'TV Cet'
p1916
sg46
I40
sg54
F6575.0
sg62
F0.019
sg70
F-1.0
sg78
F0.02
sg86
F1.21
sg94
F-1.0
sg102
F1.23
sg110
F9.103291
sg118
F-1.0
sg126
F2.7545555555555556
sg134
g135
sg143
F-1.0
sg151
F0.01
sg159
S'F2V'
p1917
sg161
(lp1918
g163
asg347
F-1.0
sg355
S'EkCat'
p1919
sg364
F4.362
sg372
F90.38
sg380
S'27'
p1920
sg382
(dp1921
g384
(dp1922
g393
F10.0
sg401
F1.0
sg409
F0.0
sg417
F0.0
sg425
F1.0
sg433
F0.0
sg441
S"'early mars'"
p1923
sg450
g451
sg459
F6.0
sg467
F0.0
sg475
F1.000001
sg483
F0.01
sg491
F1.0
sg499
F0.0
sg507
F0.8
sg515
F10.0
sg523
F1.000001
sg531
F10.0
sg539
F1.5
sg547
F44.0
sg555
F0.0
sg563
F1.0
sg571
F10.0
sg579
S"'maximum greenhouse'"
p1924
sg588
F0.3
sg596
F5e+40
sg604
F0.01
sg612
F1.5
sg620
F2.0
sg628
F3.0
sg636
S'BCA98'
p1925
sg645
S'BCA98'
p1926
sg654
F1.0
sg662
F1.0
sg670
F5e+40
sg678
g679
sg687
F0.1
sg695
S'BHMCatS0040P'
p1927
sg704
g705
sg713
F10.0
sg721
S'TV Cet'
p1928
sg730
S"'recent venus'"
p1929
sg739
S"'runaway greenhouse'"
p1930
sg748
F1.0
sg756
g757
sg765
F0.01
sg773
F0.3
sssg781
F-1.0
sg789
F-1.0
sg805
S'2010NewA...15..356B;'
p1931
sg814
F1.34
sg822
F1.47
sg830
F3.243475
sg838
S'0040'
p1932
sg847
F0.02
sg855
F-1.0
sg863
F-1.0
sg871
F0.05
sg879
F6.0
sg887
g197
sg895
F150.0
sg903
F0.917910447761194
sg911
g912
sg920
S'TV Cet A'
p1933
sg929
F-1.0
sg937
F144.0
sg945
S'F5V'
p1934
sg954
F-1.0
sg965
F0.11706551671123
sg973
F-1.0
sg984
F8.6
sg992
F6902.0
sg1000
g1913
sg1008
F-1.0
sg1016
F0.05
sg1024
F-1.0
sg1032
F-1.0
sg1040
F-1.0
sg1048
F-1.0
sg1056
F0.04
sg1064
F-1.0
sg1072
F-1.0
sg1080
F-1.0
sg1091
F-1.0
sg1099
F-1.0
sg1107
F150.0
ssS'BHMCatS0029P'
p1935
(dp1936
g12
F-1.0
sg20
S'AI Phe B'
p1937
sg29
F3.596
sg37
S'AI Phe'
p1938
sg46
I29
sg54
F5010.0
sg62
F0.012
sg70
F-1.0
sg78
F0.048
sg86
F1.816
sg94
F-1.0
sg102
F1.195
sg110
F24.592325
sg118
F-1.0
sg126
F-45.73441944444444
sg134
g135
sg143
F1.0
sg151
F0.024
sg159
S'F7V'
p1939
sg161
(lp1940
g163
asg347
F-1.0
sg355
S'EkCat'
p1941
sg364
F3.997
sg372
F88.45
sg380
g1292
sg382
(dp1942
g384
(dp1943
g393
F10.0
sg401
F1.0
sg409
F0.0
sg417
F0.0
sg425
F1.0
sg433
F0.0
sg441
S"'early mars'"
p1944
sg450
g451
sg459
F6.0
sg467
F0.0
sg475
F1.000001
sg483
F0.01
sg491
F1.0
sg499
F0.0
sg507
F0.8
sg515
F10.0
sg523
F1.000001
sg531
F10.0
sg539
F1.5
sg547
F44.0
sg555
F0.0
sg563
F1.0
sg571
F10.0
sg579
S"'maximum greenhouse'"
p1945
sg588
F0.3
sg596
F5e+40
sg604
F0.01
sg612
F1.5
sg620
F2.0
sg628
F3.0
sg636
S'BCA98'
p1946
sg645
S'BCA98'
p1947
sg654
F1.0
sg662
F1.0
sg670
F5e+40
sg678
g679
sg687
F0.1
sg695
S'BHMCatS0029P'
p1948
sg704
g705
sg713
F10.0
sg721
S'AI Phe'
p1949
sg730
S"'recent venus'"
p1950
sg739
S"'runaway greenhouse'"
p1951
sg748
F1.0
sg756
g757
sg765
F0.01
sg773
F0.3
sssg781
F-1.0
sg789
g3
(g792
S'\x8e\xb6x\\\xa2\xb08@'
p1952
tp1953
Rp1954
sg805
S'1988A&A...196..128A;'
p1955
sg814
F1.236
sg822
F2.93
sg830
F1.1594972222222222
sg838
S'0029'
p1956
sg847
F0.014
sg855
F-1.0
sg863
F-1.0
sg871
F0.005
sg879
F6.0
sg887
g197
sg895
F120.0
sg903
F0.966828478964401
sg911
g912
sg920
S'AI Phe A'
p1957
sg929
F-1.0
sg937
F162.0
sg945
S'K0IV'
p1958
sg954
g3
(g792
S'\x9c\xae\xf4\x92?\xf4\x16@'
p1959
tp1960
Rp1961
sg965
F0.222494302139037
sg973
g3
(g792
S'\x9c\xae\xf4\x92?\xf46@'
p1962
tp1963
Rp1964
sg984
F8.607
sg992
F6310.0
sg1000
g1935
sg1008
F-1.0
sg1016
F0.004
sg1024
F1.0
sg1032
F-1.0
sg1040
F-1.0
sg1048
F-1.0
sg1056
F0.186
sg1064
F6.0
sg1072
F-1.0
sg1080
g3
(g792
S'_$\xfb\x92\xc1u\x10@'
p1965
tp1966
Rp1967
sg1091
F4.0
sg1099
F-1.0
sg1107
F150.0
ssS'BHMCatS0013V'
p1968
(dp1969
g12
F0.0
sg20
S'NICHE-005 B'
p1970
sg29
F-2.0
sg37
S'NICHE-005'
p1971
sg46
I13
sg54
F-2.0
sg62
F-2.0
sg70
F-2.0
sg78
F0.0
sg86
F-2.0
sg94
F-2.0
sg102
F1.0
sg110
F60.0
sg118
g3
(g792
S'0\xa8\x1bgj\x94\x8f?'
p1972
tp1973
Rp1974
sg126
F-2.0
sg134
g1421
sg143
F-2.0
sg151
F0.0
sg159
g197
sg161
(lp1975
g163
asg347
F-1.0
sg355
S'NICHE'
p1976
sg364
F-2.0
sg372
F-2.0
sg380
g1726
sg382
(dp1977
g384
(dp1978
g393
F10.0
sg401
F1.0
sg409
F0.0
sg417
F0.0
sg425
F1.0
sg433
F0.0
sg441
S"'early mars'"
p1979
sg450
g451
sg459
F6.0
sg467
F0.0
sg475
F1.000001
sg483
F0.01
sg491
F1.0
sg499
F0.0
sg507
F0.8
sg515
F10.0
sg523
F1.000001
sg531
F10.0
sg539
F1.5
sg547
F44.0
sg555
F0.0
sg563
F1.0
sg571
F10.0
sg579
S"'maximum greenhouse'"
p1980
sg588
F0.3
sg596
F5e+40
sg604
F0.01
sg612
F1.5
sg620
F2.0
sg628
F3.0
sg636
S'BCA98'
p1981
sg645
S'BCA98'
p1982
sg654
F1.0
sg662
F1.0
sg670
F5e+40
sg678
g679
sg687
F0.1
sg695
S'BHMCatS0013V'
p1983
sg704
g705
sg713
F10.0
sg721
S'NICHE-005'
p1984
sg730
S"'recent venus'"
p1985
sg739
S"'runaway greenhouse'"
p1986
sg748
F1.0
sg756
g757
sg765
F0.01
sg773
F0.3
sssg781
F-2.0
sg789
F-1.0
sg805
g197
sg814
F1.0
sg822
F-2.0
sg830
F-2.0
sg838
S'0013'
p1987
sg847
F-2.0
sg855
F-2.0
sg863
F-2.0
sg871
F0.0
sg879
F-1.0
sg887
g197
sg895
F-2.0
sg903
F1.0
sg911
g912
sg920
S'NICHE-005 A'
p1988
sg929
F-2.0
sg937
F-1.0
sg945
g197
sg954
F-1.0
sg965
F0.299944348778442
sg973
F-1.0
sg984
F-2.0
sg992
F-2.0
sg1000
g1968
sg1008
F-2.0
sg1016
F0.0
sg1024
F-2.0
sg1032
F-1.0
sg1040
F-1.0
sg1048
F-2.0
sg1056
F0.5
sg1064
F-2.0
sg1072
F-1.0
sg1080
F-1.0
sg1091
F-2.0
sg1099
F-1.0
sg1107
F-2.0
ssS'Fields'
p1989
(lp1990
g46
ag838
ag134
ag1000
ag355
ag380
ag37
ag920
ag20
ag830
ag126
ag110
ag965
ag1056
ag347
ag118
ag12
ag1032
ag1072
ag1040
ag372
ag1048
ag94
ag1064
ag1024
ag1091
ag143
ag789
ag1080
ag973
ag954
ag929
ag863
ag855
ag70
ag984
ag781
ag937
ag879
ag1099
ag814
ag871
ag102
ag1016
ag903
ag822
ag78
ag86
ag151
ag992
ag1107
ag54
ag895
ag29
ag847
ag364
ag62
ag1008
ag159
ag945
ag887
ag911
ag805
asS'BHMCatS0017V'
p1991
(dp1992
g12
F0.0
sg20
S'NICHE-009 B'
p1993
sg29
F-2.0
sg37
S'NICHE-009'
p1994
sg46
I17
sg54
F-2.0
sg62
F-2.0
sg70
F-2.0
sg78
F0.0
sg86
F-2.0
sg94
F-2.0
sg102
F0.55
sg110
F15.0
sg118
g3
(g792
S'0\xa8\x1bgj\x94\x8f?'
p1995
tp1996
Rp1997
sg126
F-2.0
sg134
g1421
sg143
F-2.0
sg151
F0.0
sg159
g197
sg161
(lp1998
g163
asg347
F-1.0
sg355
S'NICHE'
p1999
sg364
F-2.0
sg372
F-2.0
sg380
g1292
sg382
(dp2000
g384
(dp2001
g393
F10.0
sg401
F1.0
sg409
F0.0
sg417
F0.0
sg425
F1.0
sg433
F0.0
sg441
S"'early mars'"
p2002
sg450
g451
sg459
F6.0
sg467
F0.0
sg475
F1.000001
sg483
F0.01
sg491
F1.0
sg499
F0.0
sg507
F0.8
sg515
F10.0
sg523
F1.000001
sg531
F10.0
sg539
F1.5
sg547
F44.0
sg555
F0.0
sg563
F1.0
sg571
F10.0
sg579
S"'maximum greenhouse'"
p2003
sg588
F0.3
sg596
F5e+40
sg604
F0.01
sg612
F1.5
sg620
F2.0
sg628
F3.0
sg636
S'BCA98'
p2004
sg645
S'BCA98'
p2005
sg654
F1.0
sg662
F1.0
sg670
F5e+40
sg678
g679
sg687
F0.1
sg695
S'BHMCatS0017V'
p2006
sg704
g705
sg713
F10.0
sg721
S'NICHE-009'
p2007
sg730
S"'recent venus'"
p2008
sg739
S"'runaway greenhouse'"
p2009
sg748
F1.0
sg756
g757
sg765
F0.01
sg773
F0.3
sssg781
F-2.0
sg789
F-1.0
sg805
g197
sg814
F0.85
sg822
F-2.0
sg830
F-2.0
sg838
S'0017'
p2010
sg847
F-2.0
sg855
F-2.0
sg863
F-2.0
sg871
F0.0
sg879
F-1.0
sg887
g197
sg895
F-2.0
sg903
F0.647058823529412
sg911
g912
sg920
S'NICHE-009 A'
p2011
sg929
F-2.0
sg937
F-1.0
sg945
g197
sg954
F-1.0
sg965
F0.0923835318358506
sg973
F-1.0
sg984
F-2.0
sg992
F-2.0
sg1000
g1991
sg1008
F-2.0
sg1016
F0.0
sg1024
F-2.0
sg1032
F-1.0
sg1040
F-1.0
sg1048
F-2.0
sg1056
F0.3
sg1064
F-2.0
sg1072
F-1.0
sg1080
F-1.0
sg1091
F-2.0
sg1099
F-1.0
sg1107
F-2.0
ssS'BHMCatS0015V'
p2012
(dp2013
g12
F0.0
sg20
S'NICHE-007 B'
p2014
sg29
F-2.0
sg37
S'NICHE-007'
p2015
sg46
I15
sg54
F-2.0
sg62
F-2.0
sg70
F-2.0
sg78
F0.0
sg86
F-2.0
sg94
F-2.0
sg102
F0.85
sg110
F12.0
sg118
g3
(g792
S'0\xa8\x1bgj\x94\x8f?'
p2016
tp2017
Rp2018
sg126
F-2.0
sg134
g1421
sg143
F-2.0
sg151
F0.0
sg159
g197
sg161
(lp2019
g163
asg347
F-1.0
sg355
S'NICHE'
p2020
sg364
F-2.0
sg372
F-2.0
sg380
S'7'
p2021
sg382
(dp2022
g384
(dp2023
g393
F10.0
sg401
F1.0
sg409
F0.0
sg417
F0.0
sg425
F1.0
sg433
F0.0
sg441
S"'early mars'"
p2024
sg450
g451
sg459
F6.0
sg467
F0.0
sg475
F1.000001
sg483
F0.01
sg491
F1.0
sg499
F0.0
sg507
F0.8
sg515
F10.0
sg523
F1.000001
sg531
F10.0
sg539
F1.5
sg547
F44.0
sg555
F0.0
sg563
F1.0
sg571
F10.0
sg579
S"'maximum greenhouse'"
p2025
sg588
F0.3
sg596
F5e+40
sg604
F0.01
sg612
F1.5
sg620
F2.0
sg628
F3.0
sg636
S'BCA98'
p2026
sg645
S'BCA98'
p2027
sg654
F1.0
sg662
F1.0
sg670
F5e+40
sg678
g679
sg687
F0.1
sg695
S'BHMCatS0015V'
p2028
sg704
g705
sg713
F10.0
sg721
S'NICHE-007'
p2029
sg730
S"'recent venus'"
p2030
sg739
S"'runaway greenhouse'"
p2031
sg748
F1.0
sg756
g757
sg765
F0.01
sg773
F0.3
sssg781
F-2.0
sg789
F-1.0
sg805
g197
sg814
F0.85
sg822
F-2.0
sg830
F-2.0
sg838
S'0015'
p2032
sg847
F-2.0
sg855
F-2.0
sg863
F-2.0
sg871
F0.0
sg879
F-1.0
sg887
g197
sg895
F-2.0
sg903
F1.0
sg911
g912
sg920
S'NICHE-007 A'
p2033
sg929
F-2.0
sg937
F-1.0
sg945
g197
sg954
F-1.0
sg965
F0.0920463626617449
sg973
F-1.0
sg984
F-2.0
sg992
F-2.0
sg1000
g2012
sg1008
F-2.0
sg1016
F0.0
sg1024
F-2.0
sg1032
F-1.0
sg1040
F-1.0
sg1048
F-2.0
sg1056
F0.2
sg1064
F-2.0
sg1072
F-1.0
sg1080
F-1.0
sg1091
F-2.0
sg1099
F-1.0
sg1107
F-2.0
ssS'BHMCatS0003D'
p2034
(dp2035
g12
F-0.603
sg20
S'Kepler-35 B'
p2036
sg29
F4.756
sg37
S'Kepler-35'
p2037
sg46
I3
sg54
F5202.0
sg62
F-1.0
sg70
F-1.0
sg78
F0.002
sg86
F0.786
sg94
F12.0
sg102
F0.809
sg110
F20.734
sg118
g3
(g792
S'0ts\xcf\xf9\xe6p?'
p2038
tp2039
Rp2040
sg126
F46.68976111111111
sg134
g1287
sg143
F-1.0
sg151
F0.002
sg159
S'G type'
p2041
sg161
(lp2042
(dp2043
g171
S'BHMCatP0003'
p2044
sg180
F6.359465523592647
sg188
F0.042
sg196
S'BHMCatS003D'
p2045
sg205
F0.005
sg213
g1338
sg222
S'2012ApJ...758...87O'
p2046
sg231
S'Kepler-35b'
p2047
sg240
S'0003'
p2048
sg249
F8.16923183173756
sg257
F0.00102
sg265
S'Kepler-35'
p2049
sg274
F40.3826060748133
sg282
F-1.0
sg290
F0.60347
sg298
F0.085
sg306
F0.0
sg314
F1.697
sg322
F131.458
sg330
g1297
sg339
F0.15710061214879925
sasg347
F86.276
sg355
S'KIC'
p2050
sg364
F-1.0
sg372
F90.4238
sg380
S'9837578'
p2051
sg382
(dp2052
S'BHMCatP0003'
p2053
(dp2054
g393
F10.0
sg401
F1.0
sg409
F0.0
sg417
F0.0
sg425
F10.0
sg433
F-0.603
sg441
S"'early mars'"
p2055
sg450
S"'trend'"
p2056
sg459
F6.0
sg467
F0.0
sg475
F8.16923183173756
sg483
F0.01
sg491
F1.0
sg499
F-0.603
sg507
F0.8
sg515
F10.0
sg523
F40.3826060748133
sg531
F10.0
sg539
F1.5
sg547
F44.0
sg555
F0.0
sg563
F1.0
sg571
F10.0
sg579
S"'maximum greenhouse'"
p2057
sg588
F0.3
sg596
F5e+40
sg604
F0.01
sg612
F1.5
sg620
F2.0
sg628
F3.0
sg636
S'BCA98'
p2058
sg645
S'BCA98'
p2059
sg654
F1.0
sg662
F10.0
sg670
F5e+40
sg678
S'BHMCatP0003'
p2060
sg687
F0.1
sg695
S'BHMCatS0003D'
p2061
sg704
S'Kepler-35b'
p2062
sg713
F10.0
sg721
S'Kepler-35'
p2063
sg730
S"'recent venus'"
p2064
sg739
S"'runaway greenhouse'"
p2065
sg748
F10.0
sg756
S"'Earth'"
p2066
sg765
F0.01
sg773
F0.3
sssg781
F0.123
sg789
F-1.0
sg805
S'2012Natur.481..475W; 2012yCatp038048101W;'
p2067
sg814
F0.888
sg822
F1.028
sg830
F19.633131944444443
sg838
S'0003'
p2068
sg847
F-1.0
sg855
F-1.0
sg863
F0.1
sg871
F0.005
sg879
F-1.0
sg887
S'BHMCatP0003;'
p2069
sg895
F100.0
sg903
F0.911036036036036
sg911
g912
sg920
S'Kepler-35 A'
p2070
sg929
F20.8
sg937
F-1.0
sg945
S'G type'
p2071
sg954
F-1.0
sg965
F0.1762
sg973
F-1.0
sg984
F15.726
sg992
F5606.0
sg1000
g2034
sg1008
F-1.0
sg1016
F0.004
sg1024
F-1.0
sg1032
F-1.0
sg1040
F-0.603
sg1048
F8.0
sg1056
F0.1421
sg1064
F-1.0
sg1072
g3
(g792
S'0ts\xcf\xf9\xe6p?'
p2072
tp2073
Rp2074
sg1080
F-1.0
sg1091
F-1.0
sg1099
g3
(g792
S'\x9d{Ss\x17\xef\x99@'
p2075
tp2076
Rp2077
sg1107
F150.0
ssS'FieldsText'
p2078
(dp2079
g12
g3
(g4
(S'S10'
p2080
I0
I1
tp2081
Rp2082
(I3
S'|'
p2083
NNNI10
I1
I0
tp2084
bS'[Fe/H]_fit'
p2085
tp2086
Rp2087
sg20
g3
(g4
(S'S10'
p2088
I0
I1
tp2089
Rp2090
(I3
S'|'
p2091
NNNI10
I1
I0
tp2092
bS'Star 2 Id.'
p2093
tp2094
Rp2095
sg29
g3
(g4
(S'S7'
p2096
I0
I1
tp2097
Rp2098
(I3
S'|'
p2099
NNNI7
I1
I0
tp2100
bS'log g_1'
p2101
tp2102
Rp2103
sg37
g3
(g4
(S'S10'
p2104
I0
I1
tp2105
Rp2106
(I3
S'|'
p2107
NNNI10
I1
I0
tp2108
bS'System Id.'
p2109
tp2110
Rp2111
sg46
g3
(g4
(S'S3'
p2112
I0
I1
tp2113
Rp2114
(I3
S'|'
p2115
NNNI3
I1
I0
tp2116
bS'No.'
p2117
tp2118
Rp2119
sg54
g3
(g4
(S'S3'
p2120
I0
I1
tp2121
Rp2122
(I3
S'|'
p2123
NNNI3
I1
I0
tp2124
bS'T_2'
p2125
tp2126
Rp2127
sg62
g3
(g4
(S'S11'
p2128
I0
I1
tp2129
Rp2130
(I3
S'|'
p2131
NNNI11
I1
I0
tp2132
bS'log g_2,err'
p2133
tp2134
Rp2135
sg70
g3
(g4
(S'S11'
p2136
I0
I1
tp2137
Rp2138
(I3
S'|'
p2139
NNNI11
I1
I0
tp2140
bS'P_rot,2,err'
p2141
tp2142
Rp2143
sg78
g3
(g4
(S'S7'
p2144
I0
I1
tp2145
Rp2146
(I3
S'|'
p2147
NNNI7
I1
I0
tp2148
bS'R_1,err'
p2149
tp2150
Rp2151
sg86
g3
(g4
(S'S3'
p2152
I0
I1
tp2153
Rp2154
(I3
S'|'
p2155
NNNI3
I1
I0
tp2156
bS'R_2'
p2157
tp2158
Rp2159
sg94
g3
(g4
(S'S8'
p2160
I0
I1
tp2161
Rp2162
(I3
S'|'
p2163
NNNI8
I1
I0
tp2164
bS'\\tau_max'
p2165
tp2166
Rp2167
sg102
g3
(g4
(S'S3'
p2168
I0
I1
tp2169
Rp2170
(I3
S'|'
p2171
NNNI3
I1
I0
tp2172
bS'M_2'
p2173
tp2174
Rp2175
sg110
g3
(g4
(S'S5'
p2176
I0
I1
tp2177
Rp2178
(I3
S'|'
p2179
NNNI5
I1
I0
tp2180
bS'P_bin'
p2181
tp2182
Rp2183
sg118
g3
(g4
(S'S5'
p2184
I0
I1
tp2185
Rp2186
(I3
S'|'
p2187
NNNI5
I1
I0
tp2188
bS'Z_fit'
p2189
tp2190
Rp2191
sg126
g3
(g4
(S'S3'
p2192
I0
I1
tp2193
Rp2194
(I3
S'|'
p2195
NNNI3
I1
I0
tp2196
bS'DEC'
p2197
tp2198
Rp2199
sg134
g3
(g4
(S'S4'
p2200
I0
I1
tp2201
Rp2202
(I3
S'|'
p2203
NNNI4
I1
I0
tp2204
bS'Type'
p2205
tp2206
Rp2207
sg143
g3
(g4
(S'S15'
p2208
I0
I1
tp2209
Rp2210
(I3
S'|'
p2211
NNNI15
I1
I0
tp2212
bS'v_2 sin i_2,err'
p2213
tp2214
Rp2215
sg151
g3
(g4
(S'S7'
p2216
I0
I1
tp2217
Rp2218
(I3
S'|'
p2219
NNNI7
I1
I0
tp2220
bS'R_2,err'
p2221
tp2222
Rp2223
sg159
g3
(g4
(S'S10'
p2224
I0
I1
tp2225
Rp2226
(I3
S'|'
p2227
NNNI10
I1
I0
tp2228
bS'Sp. Type 1'
p2229
tp2230
Rp2231
sg347
g3
(g4
(S'S10'
p2232
I0
I1
tp2233
Rp2234
(I3
S'|'
p2235
NNNI10
I1
I0
tp2236
bS'\\omega_bin'
p2237
tp2238
Rp2239
sg355
g3
(g4
(S'S11'
p2240
I0
I1
tp2241
Rp2242
(I3
S'|'
p2243
NNNI11
I1
I0
tp2244
bS'Source Cat.'
p2245
tp2246
Rp2247
sg364
g3
(g4
(S'S8'
p2248
I0
I1
tp2249
Rp2250
(I3
S'|'
p2251
NNNI8
I1
I0
tp2252
bS'log g_2 '
p2253
tp2254
Rp2255
sg372
g3
(g4
(S'S5'
p2256
I0
I1
tp2257
Rp2258
(I3
S'|'
p2259
NNNI5
I1
I0
tp2260
bS'i_bin'
p2261
tp2262
Rp2263
sg380
g3
(g4
(S'S10'
p2264
I0
I1
tp2265
Rp2266
(I3
S'|'
p2267
NNNI10
I1
I0
tp2268
bS'Source Id.'
p2269
tp2270
Rp2271
sg781
g3
(g4
(S'S3'
p2272
I0
I1
tp2273
Rp2274
(I3
S'|'
p2275
NNNI3
I1
I0
tp2276
bS'B-V'
p2277
tp2278
Rp2279
sg789
g3
(g4
(S'S9'
p2280
I0
I1
tp2281
Rp2282
(I3
S'|'
p2283
NNNI9
I1
I0
tp2284
bS'P_rot,v,1'
p2285
tp2286
Rp2287
sg805
g3
(g4
(S'S8'
p2288
I0
I1
tp2289
Rp2290
(I3
S'|'
p2291
NNNI8
I1
I0
tp2292
bS'ADS Link'
p2293
tp2294
Rp2295
sg814
g3
(g4
(S'S3'
p2296
I0
I1
tp2297
Rp2298
(I3
S'|'
p2299
NNNI3
I1
I0
tp2300
bS'M_1'
p2301
tp2302
Rp2303
sg822
g3
(g4
(S'S3'
p2304
I0
I1
tp2305
Rp2306
(I3
S'|'
p2307
NNNI3
I1
I0
tp2308
bS'R_1'
p2309
tp2310
Rp2311
sg830
g3
(g4
(S'S2'
p2312
I0
I1
tp2313
Rp2314
(I3
S'|'
p2315
NNNI2
I1
I0
tp2316
bS'RA'
p2317
tp2318
Rp2319
sg838
g3
(g4
(S'S3'
p2320
I0
I1
tp2321
Rp2322
(I3
S'|'
p2323
NNNI3
I1
I0
tp2324
bS'No.'
p2325
tp2326
Rp2327
sg847
g3
(g4
(S'S11'
p2328
I0
I1
tp2329
Rp2330
(I3
S'|'
p2331
NNNI11
I1
I0
tp2332
bS'log g_2,err'
p2333
tp2334
Rp2335
sg855
g3
(g4
(S'S7'
p2336
I0
I1
tp2337
Rp2338
(I3
S'|'
p2339
NNNI7
I1
I0
tp2340
bS'P_rot,2'
p2341
tp2342
Rp2343
sg863
g3
(g4
(S'S11'
p2344
I0
I1
tp2345
Rp2346
(I3
S'|'
p2347
NNNI11
I1
I0
tp2348
bS'P_rot,1,err'
p2349
tp2350
Rp2351
sg871
g3
(g4
(S'S7'
p2352
I0
I1
tp2353
Rp2354
(I3
S'|'
p2355
NNNI7
I1
I0
tp2356
bS'M_1,err'
p2357
tp2358
Rp2359
sg879
g3
(g4
(S'S5'
p2360
I0
I1
tp2361
Rp2362
(I3
S'|'
p2363
NNNI5
I1
I0
tp2364
bS'd,err'
p2365
tp2366
Rp2367
sg887
g3
(g4
(S'S7'
p2368
I0
I1
tp2369
Rp2370
(I3
S'|'
p2371
NNNI7
I1
I0
tp2372
bS'Planets'
p2373
tp2374
Rp2375
sg895
g3
(g4
(S'S7'
p2376
I0
I1
tp2377
Rp2378
(I3
S'|'
p2379
NNNI7
I1
I0
tp2380
bS'T_2,err'
p2381
tp2382
Rp2383
sg903
g3
(g4
(S'S1'
p2384
I0
I1
tp2385
Rp2386
(I3
S'|'
p2387
NNNI1
I1
I0
tp2388
bS'q'
p2389
tp2390
Rp2391
sg911
g3
(g4
(S'S5'
p2392
I0
I1
tp2393
Rp2394
(I3
S'|'
p2395
NNNI5
I1
I0
tp2396
bS'Notes'
p2397
tp2398
Rp2399
sg920
g3
(g4
(S'S10'
p2400
I0
I1
tp2401
Rp2402
(I3
S'|'
p2403
NNNI10
I1
I0
tp2404
bS'Star 1 Id.'
p2405
tp2406
Rp2407
sg929
g3
(g4
(S'S7'
p2408
I0
I1
tp2409
Rp2410
(I3
S'|'
p2411
NNNI7
I1
I0
tp2412
bS'P_rot,1'
p2413
tp2414
Rp2415
sg937
g3
(g4
(S'S1'
p2416
I0
I1
tp2417
Rp2418
(I3
S'|'
p2419
NNNI1
I1
I0
tp2420
bS'd'
p2421
tp2422
Rp2423
sg945
g3
(g4
(S'S10'
p2424
I0
I1
tp2425
Rp2426
(I3
S'|'
p2427
NNNI10
I1
I0
tp2428
bS'Sp. Type 2'
p2429
tp2430
Rp2431
sg954
g3
(g4
(S'S13'
p2432
I0
I1
tp2433
Rp2434
(I3
S'|'
p2435
NNNI13
I1
I0
tp2436
bS'P_rot,v,2,err'
p2437
tp2438
Rp2439
sg965
g3
(g4
(S'S5'
p2440
I0
I1
tp2441
Rp2442
(I3
S'|'
p2443
NNNI5
I1
I0
tp2444
bS'a_bin'
p2445
tp2446
Rp2447
sg973
g3
(g4
(S'S9'
p2448
I0
I1
tp2449
Rp2450
(I3
S'|'
p2451
NNNI9
I1
I0
tp2452
bS'P_rot,v,2'
p2453
tp2454
Rp2455
sg984
g3
(g4
(S'S1'
p2456
I0
I1
tp2457
Rp2458
(I3
S'|'
p2459
NNNI1
I1
I0
tp2460
bg1421
tp2461
Rp2462
sg992
g3
(g4
(S'S3'
p2463
I0
I1
tp2464
Rp2465
(I3
S'|'
p2466
NNNI3
I1
I0
tp2467
bS'T_1'
p2468
tp2469
Rp2470
sg1000
g3
(g4
(S'S7'
p2471
I0
I1
tp2472
Rp2473
(I3
S'|'
p2474
NNNI7
I1
I0
tp2475
bS'Cat.Id.'
p2476
tp2477
Rp2478
sg1008
g3
(g4
(S'S3'
p2479
I0
I1
tp2480
Rp2481
(I3
S'|'
p2482
NNNI3
I1
I0
tp2483
bS'L_x'
p2484
tp2485
Rp2486
sg1016
g3
(g4
(S'S7'
p2487
I0
I1
tp2488
Rp2489
(I3
S'|'
p2490
NNNI7
I1
I0
tp2491
bS'M_2,err'
p2492
tp2493
Rp2494
sg1024
g3
(g4
(S'S15'
p2495
I0
I1
tp2496
Rp2497
(I3
S'|'
p2498
NNNI15
I1
I0
tp2499
bS'v_1 sin i_1,err'
p2500
tp2501
Rp2502
sg1032
g3
(g4
(S'S14'
p2503
I0
I1
tp2504
Rp2505
(I3
S'|'
p2506
NNNI14
I1
I0
tp2507
bS'[Fe/H]_fit,err'
p2508
tp2509
Rp2510
sg1040
g3
(g4
(S'S10'
p2511
I0
I1
tp2512
Rp2513
(I3
S'|'
p2514
NNNI10
I1
I0
tp2515
bS'[Fe/H]_obs'
p2516
tp2517
Rp2518
sg1048
g3
(g4
(S'S8'
p2519
I0
I1
tp2520
Rp2521
(I3
S'|'
p2522
NNNI8
I1
I0
tp2523
bS'\\tau_min'
p2524
tp2525
Rp2526
sg1056
g3
(g4
(S'S5'
p2527
I0
I1
tp2528
Rp2529
(I3
S'|'
p2530
NNNI5
I1
I0
tp2531
bS'e_bin'
p2532
tp2533
Rp2534
sg1064
g3
(g4
(S'S11'
p2535
I0
I1
tp2536
Rp2537
(I3
S'|'
p2538
NNNI11
I1
I0
tp2539
bS'v_1 sin i,1'
p2540
tp2541
Rp2542
sg1072
g3
(g4
(S'S5'
p2543
I0
I1
tp2544
Rp2545
(I3
S'|'
p2546
NNNI5
I1
I0
tp2547
bS'Z_obs'
p2548
tp2549
Rp2550
sg1080
g3
(g4
(S'S13'
p2551
I0
I1
tp2552
Rp2553
(I3
S'|'
p2554
NNNI13
I1
I0
tp2555
bS'P_rot,v,1,err'
p2556
tp2557
Rp2558
sg1091
g3
(g4
(S'S11'
p2559
I0
I1
tp2560
Rp2561
(I3
S'|'
p2562
NNNI11
I1
I0
tp2563
bS'v_2 sin i_2'
p2564
tp2565
Rp2566
sg1099
g3
(g4
(S'S5'
p2567
I0
I1
tp2568
Rp2569
(I3
S'|'
p2570
NNNI5
I1
I0
tp2571
bS'd_mod'
p2572
tp2573
Rp2574
sg1107
g3
(g4
(S'S7'
p2575
I0
I1
tp2576
Rp2577
(I3
S'|'
p2578
NNNI7
I1
I0
tp2579
bS'T_1,err'
p2580
tp2581
Rp2582
ssS'BHMCatS0048P'
p2583
(dp2584
g12
F-1.0
sg20
S'FM Leo B'
p2585
sg29
F4.124
sg37
S'FM Leo'
p2586
sg46
I48
sg54
F6190.0
sg62
F0.028
sg70
F-1.0
sg78
F0.043
sg86
F1.511
sg94
F-1.0
sg102
F1.287
sg110
F6.728606
sg118
F-1.0
sg126
F0.3480111111111111
sg134
g135
sg143
F-1.0
sg151
F0.049
sg159
S'F9V'
p2587
sg161
(lp2588
g163
asg347
F-1.0
sg355
S'EkCat'
p2589
sg364
F4.189
sg372
F87.98
sg380
S'114'
p2590
sg382
(dp2591
g384
(dp2592
g393
F10.0
sg401
F1.0
sg409
F0.0
sg417
F0.0
sg425
F1.0
sg433
F0.0
sg441
S"'early mars'"
p2593
sg450
g451
sg459
F6.0
sg467
F0.0
sg475
F1.000001
sg483
F0.01
sg491
F1.0
sg499
F0.0
sg507
F0.8
sg515
F10.0
sg523
F1.000001
sg531
F10.0
sg539
F1.5
sg547
F44.0
sg555
F0.0
sg563
F1.0
sg571
F10.0
sg579
S"'maximum greenhouse'"
p2594
sg588
F0.3
sg596
F5e+40
sg604
F0.01
sg612
F1.5
sg620
F2.0
sg628
F3.0
sg636
S'BCA98'
p2595
sg645
S'BCA98'
p2596
sg654
F1.0
sg662
F1.0
sg670
F5e+40
sg678
g679
sg687
F0.1
sg695
S'BHMCatS0048P'
p2597
sg704
g705
sg713
F10.0
sg721
S'FM Leo'
p2598
sg730
S"'recent venus'"
p2599
sg739
S"'runaway greenhouse'"
p2600
sg748
F1.0
sg756
g757
sg765
F0.01
sg773
F0.3
sssg781
F-1.0
sg789
F-1.0
sg805
S'2010MNRAS.402.2424R;'
p2601
sg814
F1.318
sg822
F1.648
sg830
F11.212525
sg838
S'0048'
p2602
sg847
F0.023
sg855
F-1.0
sg863
F-1.0
sg871
F0.007
sg879
F25.5
sg887
g197
sg895
F211.0
sg903
F0.976479514415781
sg911
g912
sg920
S'FM Leo A'
p2603
sg929
F-1.0
sg937
F130.4
sg945
S'F9V'
p2604
sg954
F-1.0
sg965
F0.0960263065508021
sg973
F-1.0
sg984
F8.453
sg992
F6316.0
sg1000
g2583
sg1008
F-1.0
sg1016
F0.007
sg1024
F-1.0
sg1032
F-1.0
sg1040
F-1.0
sg1048
F-1.0
sg1056
F0.0
sg1064
F-1.0
sg1072
F-1.0
sg1080
F-1.0
sg1091
F-1.0
sg1099
F-1.0
sg1107
F240.0
ssS'BHMCatS0049P'
p2605
(dp2606
g12
F-1.0
sg20
S'BW Aqr B'
p2607
sg29
F3.981
sg37
S'BW Aqr'
p2608
sg46
I49
sg54
F6450.0
sg62
F0.022
sg70
F-1.0
sg78
F0.04
sg86
F1.79
sg94
F-1.0
sg102
F1.39
sg110
F6.719712
sg118
F-1.0
sg126
F-14.667716666666667
sg134
g135
sg143
F0.8
sg151
F0.04
sg159
S'F7IV'
p2609
sg161
(lp2610
g163
asg347
F-1.0
sg355
S'EkCat'
p2611
sg364
F4.075
sg372
F88.4
sg380
S'236'
p2612
sg382
(dp2613
g384
(dp2614
g393
F10.0
sg401
F1.0
sg409
F0.0
sg417
F0.0
sg425
F1.0
sg433
F0.0
sg441
S"'early mars'"
p2615
sg450
g451
sg459
F6.0
sg467
F0.0
sg475
F1.000001
sg483
F0.01
sg491
F1.0
sg499
F0.0
sg507
F0.8
sg515
F10.0
sg523
F1.000001
sg531
F10.0
sg539
F1.5
sg547
F44.0
sg555
F0.0
sg563
F1.0
sg571
F10.0
sg579
S"'maximum greenhouse'"
p2616
sg588
F0.3
sg596
F5e+40
sg604
F0.01
sg612
F1.5
sg620
F2.0
sg628
F3.0
sg636
S'BCA98'
p2617
sg645
S'BCA98'
p2618
sg654
F1.0
sg662
F1.0
sg670
F5e+40
sg678
g679
sg687
F0.1
sg695
S'BHMCatS0049P'
p2619
sg704
g705
sg713
F10.0
sg721
S'BW Aqr'
p2620
sg730
S"'recent venus'"
p2621
sg739
S"'runaway greenhouse'"
p2622
sg748
F1.0
sg756
g757
sg765
F0.01
sg773
F0.3
sssg781
F-1.0
sg789
g3
(g792
S'\xae\xc6\x02\xb8\xb0\xb2%@'
p2623
tp2624
Rp2625
sg805
S'1991A&A...246..397C;'
p2626
sg814
F1.49
sg822
F2.06
sg830
F22.387758333333334
sg838
S'0049'
p2627
sg847
F0.019
sg855
F-1.0
sg863
F-1.0
sg871
F0.02
sg879
F15.0
sg887
g197
sg895
F100.0
sg903
F0.932885906040268
sg911
g912
sg920
S'BW Aqr A'
p2628
sg929
F-1.0
sg937
F420.0
sg945
S'F8IV'
p2629
sg954
g3
(g792
S'\xd5\xc4EG\xa0l\xd9?'
p2630
tp2631
Rp2632
sg965
F0.0990984036096257
sg973
g3
(g792
S'\x98\x95+\x0b\x91\xd0\x1a@'
p2633
tp2634
Rp2635
sg984
F10.401
sg992
F6350.0
sg1000
g2605
sg1008
F-1.0
sg1016
F0.02
sg1024
F1.3
sg1032
F-1.0
sg1040
F-1.0
sg1048
F-1.0
sg1056
F0.178
sg1064
F9.6
sg1072
F-1.0
sg1080
g3
(g792
S'=WX\xc7\x94\x81\xf7?'
p2636
tp2637
Rp2638
sg1091
F13.5
sg1099
F-1.0
sg1107
F100.0
ssS'BHMCatS0019V'
p2639
(dp2640
g12
F0.0
sg20
S'NICHE-011 B'
p2641
sg29
F-2.0
sg37
S'NICHE-011'
p2642
sg46
I19
sg54
F-2.0
sg62
F-2.0
sg70
F-2.0
sg78
F0.0
sg86
F-2.0
sg94
F-2.0
sg102
F0.55
sg110
F30.0
sg118
g3
(g792
S'0\xa8\x1bgj\x94\x8f?'
p2643
tp2644
Rp2645
sg126
F-2.0
sg134
g1421
sg143
F-2.0
sg151
F0.0
sg159
g197
sg161
(lp2646
g163
asg347
F-1.0
sg355
S'NICHE'
p2647
sg364
F-2.0
sg372
F-2.0
sg380
S'11'
p2648
sg382
(dp2649
g384
(dp2650
g393
F10.0
sg401
F1.0
sg409
F0.0
sg417
F0.0
sg425
F1.0
sg433
F0.0
sg441
S"'early mars'"
p2651
sg450
g451
sg459
F6.0
sg467
F0.0
sg475
F1.000001
sg483
F0.01
sg491
F1.0
sg499
F0.0
sg507
F0.8
sg515
F10.0
sg523
F1.000001
sg531
F10.0
sg539
F1.5
sg547
F44.0
sg555
F0.0
sg563
F1.0
sg571
F10.0
sg579
S"'maximum greenhouse'"
p2652
sg588
F0.3
sg596
F5e+40
sg604
F0.01
sg612
F1.5
sg620
F2.0
sg628
F3.0
sg636
S'BCA98'
p2653
sg645
S'BCA98'
p2654
sg654
F1.0
sg662
F1.0
sg670
F5e+40
sg678
g679
sg687
F0.1
sg695
S'BHMCatS0019V'
p2655
sg704
g705
sg713
F10.0
sg721
S'NICHE-011'
p2656
sg730
S"'recent venus'"
p2657
sg739
S"'runaway greenhouse'"
p2658
sg748
F1.0
sg756
g757
sg765
F0.01
sg773
F0.3
sssg781
F-2.0
sg789
F-1.0
sg805
g197
sg814
F0.7
sg822
F-2.0
sg830
F-2.0
sg838
S'0019'
p2659
sg847
F-2.0
sg855
F-2.0
sg863
F-2.0
sg871
F0.0
sg879
F-1.0
sg887
g197
sg895
F-2.0
sg903
F0.785714285714286
sg911
g912
sg920
S'NICHE-011 A'
p2660
sg929
F-2.0
sg937
F-1.0
sg945
g197
sg954
F-1.0
sg965
F0.13745934281605
sg973
F-1.0
sg984
F-2.0
sg992
F-2.0
sg1000
g2639
sg1008
F-2.0
sg1016
F0.0
sg1024
F-2.0
sg1032
F-1.0
sg1040
F-1.0
sg1048
F-2.0
sg1056
F0.4
sg1064
F-2.0
sg1072
F-1.0
sg1080
F-1.0
sg1091
F-2.0
sg1099
F-1.0
sg1107
F-2.0
ssS'BHMCatS0025P'
p2661
(dp2662
g12
F-1.0
sg20
S'V785 Cep B'
p2663
sg29
F-1.0
sg37
S'V785 Cep'
p2664
sg46
I25
sg54
F5874.0
sg62
F-1.0
sg70
F-1.0
sg78
F0.019
sg86
F1.373
sg94
F-1.0
sg102
F1.081
sg110
F6.504
sg118
F-1.0
sg126
F85.17629166666667
sg134
g135
sg143
F-1.0
sg151
F0.019
sg159
S'G type'
p2665
sg161
(lp2666
g163
asg347
F-1.0
sg355
S'DEBCat'
p2667
sg364
F-1.0
sg372
F-1.0
sg380
S'26'
p2668
sg382
(dp2669
g384
(dp2670
g393
F10.0
sg401
F1.0
sg409
F0.0
sg417
F0.0
sg425
F1.0
sg433
F0.0
sg441
S"'early mars'"
p2671
sg450
g451
sg459
F6.0
sg467
F0.0
sg475
F1.000001
sg483
F0.01
sg491
F1.0
sg499
F0.0
sg507
F0.8
sg515
F10.0
sg523
F1.000001
sg531
F10.0
sg539
F1.5
sg547
F44.0
sg555
F0.0
sg563
F1.0
sg571
F10.0
sg579
S"'maximum greenhouse'"
p2672
sg588
F0.3
sg596
F5e+40
sg604
F0.01
sg612
F1.5
sg620
F2.0
sg628
F3.0
sg636
S'BCA98'
p2673
sg645
S'BCA98'
p2674
sg654
F1.0
sg662
F1.0
sg670
F5e+40
sg678
g679
sg687
F0.1
sg695
S'BHMCatS0025P'
p2675
sg704
g705
sg713
F10.0
sg721
S'V785 Cep'
p2676
sg730
S"'recent venus'"
p2677
sg739
S"'runaway greenhouse'"
p2678
sg748
F1.0
sg756
g757
sg765
F0.01
sg773
F0.3
sssg781
F0.6
sg789
F-1.0
sg805
S'2014AJ....147...42Z; 2012MNRAS.425.3104F;'
p2679
sg814
F1.103
sg822
F1.424
sg830
F0.8770944444444445
sg838
S'0025'
p2680
sg847
F-1.0
sg855
F-1.0
sg863
F-1.0
sg871
F0.007
sg879
F-1.0
sg887
g197
sg895
F-1.0
sg903
F0.980054397098821
sg911
g912
sg920
S'V785 Cep A'
p2681
sg929
F-1.0
sg937
F-1.0
sg945
S'G type'
p2682
sg954
F-1.0
sg965
F0.0885
sg973
F-1.0
sg984
F14.74
sg992
F5902.0
sg1000
g2661
sg1008
F-1.0
sg1016
F0.007
sg1024
F-1.0
sg1032
F-1.0
sg1040
F-1.0
sg1048
F-1.0
sg1056
F0.0
sg1064
F-1.0
sg1072
F-1.0
sg1080
F-1.0
sg1091
F-1.0
sg1099
g3
(g792
S'\x03%\xcc\x91\x0b\xf3\x9d@'
p2683
tp2684
Rp2685
sg1107
F-1.0
ssS'BHMCatS0033P'
p2686
(dp2687
g12
F-1.0
sg20
S'KIC 6131659 B'
p2688
sg29
F4.51361395576685
sg37
S'KIC 6131659'
p2689
sg46
I33
sg54
F4780.0
sg62
F0.009
sg70
F-1.0
sg78
F0.003
sg86
F0.64
sg94
F-1.0
sg102
F0.685
sg110
F17.52782716
sg118
F-1.0
sg126
F41.436905555555555
sg134
g135
sg143
F-1.0
sg151
F0.006
sg159
S'G5V'
p2690
sg161
(lp2691
g163
asg347
F-1.0
sg355
S'EkCat'
p2692
sg364
F4.66185785287664
sg372
F89.19
sg380
S'198'
p2693
sg382
(dp2694
g384
(dp2695
g393
F10.0
sg401
F1.0
sg409
F0.0
sg417
F0.0
sg425
F1.0
sg433
F0.0
sg441
S"'early mars'"
p2696
sg450
g451
sg459
F6.0
sg467
F0.0
sg475
F1.000001
sg483
F0.01
sg491
F1.0
sg499
F0.0
sg507
F0.8
sg515
F10.0
sg523
F1.000001
sg531
F10.0
sg539
F1.5
sg547
F44.0
sg555
F0.0
sg563
F1.0
sg571
F10.0
sg579
S"'maximum greenhouse'"
p2697
sg588
F0.3
sg596
F5e+40
sg604
F0.01
sg612
F1.5
sg620
F2.0
sg628
F3.0
sg636
S'BCA98'
p2698
sg645
S'BCA98'
p2699
sg654
F1.0
sg662
F1.0
sg670
F5e+40
sg678
g679
sg687
F0.1
sg695
S'BHMCatS0033P'
p2700
sg704
g705
sg713
F10.0
sg721
S'KIC 6131659'
p2701
sg730
S"'recent venus'"
p2702
sg739
S"'runaway greenhouse'"
p2703
sg748
F1.0
sg756
g757
sg765
F0.01
sg773
F0.3
sssg781
F-1.0
sg789
F-1.0
sg805
S'2008AN....329..835B;'
p2704
sg814
F0.922
sg822
F0.88
sg830
F19.618605555555558
sg838
S'0033'
p2705
sg847
F0.004
sg855
F-1.0
sg863
F-1.0
sg871
F0.007
sg879
F31.0
sg887
g197
sg895
F105.0
sg903
F0.74295010845987
sg911
S'DEBCat'
p2706
sg920
S'KIC 6131659 A'
p2707
sg929
F-1.0
sg937
F322.0
sg945
g197
sg954
F-1.0
sg965
F0.154768526069519
sg973
F-1.0
sg984
F17.85
sg992
F5660.0
sg1000
g2686
sg1008
F-1.0
sg1016
F0.005
sg1024
F-1.0
sg1032
F-1.0
sg1040
F-1.0
sg1048
F-1.0
sg1056
F0.0
sg1064
F-1.0
sg1072
F-1.0
sg1080
F-1.0
sg1091
F-1.0
sg1099
F-1.0
sg1107
F140.0
ssS'PlanetFieldsPriority'
p2708
(dp2709
g171
I1
sg180
I4
sg188
I1
sg196
I1
sg205
I4
sg213
I100
sg222
I1
sg231
I1
sg240
I1
sg249
I1
sg257
I4
sg265
I2
sg274
I1
sg282
I2
sg290
I1
sg298
I4
sg306
I4
sg314
I100
sg322
I1
sg330
I100
sg339
I4
ssS'BHMCatS0031P'
p2710
(dp2711
g12
F-1.0
sg20
S'V565 Lyr B'
p2712
sg29
F4.3524
sg37
S'V565 Lyr'
p2713
sg46
I31
sg54
F5430.0
sg62
F0.008
sg70
F-1.0
sg78
F0.007
sg86
F0.971
sg94
F-1.0
sg102
F0.929
sg110
F18.798638
sg118
F-1.0
sg126
F37.76925
sg134
g135
sg143
F1.0
sg151
F0.009
sg159
S'G type'
p2714
sg161
(lp2715
g163
asg347
F-1.0
sg355
S'EkCat'
p2716
sg364
F4.4319
sg372
F89.38
sg380
S'187'
p2717
sg382
(dp2718
g384
(dp2719
g393
F10.0
sg401
F1.0
sg409
F0.0
sg417
F0.0
sg425
F1.0
sg433
F0.0
sg441
S"'early mars'"
p2720
sg450
g451
sg459
F6.0
sg467
F0.0
sg475
F1.000001
sg483
F0.01
sg491
F1.0
sg499
F0.0
sg507
F0.8
sg515
F10.0
sg523
F1.000001
sg531
F10.0
sg539
F1.5
sg547
F44.0
sg555
F0.0
sg563
F1.0
sg571
F10.0
sg579
S"'maximum greenhouse'"
p2721
sg588
F0.3
sg596
F5e+40
sg604
F0.01
sg612
F1.5
sg620
F2.0
sg628
F3.0
sg636
S'BCA98'
p2722
sg645
S'BCA98'
p2723
sg654
F1.0
sg662
F1.0
sg670
F5e+40
sg678
g679
sg687
F0.1
sg695
S'BHMCatS0031P'
p2724
sg704
g705
sg713
F10.0
sg721
S'V565 Lyr'
p2725
sg730
S"'recent venus'"
p2726
sg739
S"'runaway greenhouse'"
p2727
sg748
F1.0
sg756
g757
sg765
F0.01
sg773
F0.3
sssg781
F-1.0
sg789
g3
(g792
S'@\x96\x81(w\xd7+@'
p2728
tp2729
Rp2730
sg805
S'2011A&A...525A...2B;'
p2731
sg814
F0.996
sg822
F1.101
sg830
F19.34697222222222
sg838
S'0031'
p2732
sg847
F0.0053
sg855
F-1.0
sg863
F-1.0
sg871
F0.003
sg879
F250.0
sg887
g197
sg895
F125.0
sg903
F0.932730923694779
sg911
S'DEBCat'
p2733
sg920
S'V565 Lyr A'
p2734
sg929
F-1.0
sg937
F4010.0
sg945
S'G type'
p2735
sg954
g3
(g792
S'\x9fL\xbd\xcc\x12\t\x10@'
p2736
tp2737
Rp2738
sg965
F0.172270169919786
sg973
g3
(g792
S'\x16FK\xe6\xe0\x0f,@'
p2739
tp2740
Rp2741
sg984
F17.73
sg992
F5600.0
sg1000
g2710
sg1008
F-1.0
sg1016
F0.003
sg1024
F1.0
sg1032
F-1.0
sg1040
F-1.0
sg1048
F-1.0
sg1056
F0.02
sg1064
F4.0
sg1072
F-1.0
sg1080
g3
(g792
S'@\x96\x81(w\xd7\x0b@'
p2742
tp2743
Rp2744
sg1091
F3.5
sg1099
F-1.0
sg1107
F95.0
ssS'BHMCatS0022P'
p2745
(dp2746
g12
F-1.0
sg20
S'V54 M55 B'
p2747
sg29
F-1.0
sg37
S'V54 M55'
p2748
sg46
I22
sg54
F5023.0
sg62
F-1.0
sg70
F-1.0
sg78
F0.009
sg86
F0.528
sg94
F-1.0
sg102
F0.555
sg110
F9.269
sg118
F-1.0
sg126
F-1.0
sg134
g135
sg143
F-1.0
sg151
F0.005
sg159
S'F type'
p2749
sg161
(lp2750
g163
asg347
F-1.0
sg355
S'DEBCat'
p2751
sg364
F-1.0
sg372
F-1.0
sg380
S'29'
p2752
sg382
(dp2753
g384
(dp2754
g393
F10.0
sg401
F1.0
sg409
F0.0
sg417
F0.0
sg425
F1.0
sg433
F0.0
sg441
S"'early mars'"
p2755
sg450
g451
sg459
F6.0
sg467
F0.0
sg475
F1.000001
sg483
F0.01
sg491
F1.0
sg499
F0.0
sg507
F0.8
sg515
F10.0
sg523
F1.000001
sg531
F10.0
sg539
F1.5
sg547
F44.0
sg555
F0.0
sg563
F1.0
sg571
F10.0
sg579
S"'maximum greenhouse'"
p2756
sg588
F0.3
sg596
F5e+40
sg604
F0.01
sg612
F1.5
sg620
F2.0
sg628
F3.0
sg636
S'BCA98'
p2757
sg645
S'BCA98'
p2758
sg654
F1.0
sg662
F1.0
sg670
F5e+40
sg678
g679
sg687
F0.1
sg695
S'BHMCatS0022P'
p2759
sg704
g705
sg713
F10.0
sg721
S'V54 M55'
p2760
sg730
S"'recent venus'"
p2761
sg739
S"'runaway greenhouse'"
p2762
sg748
F1.0
sg756
g757
sg765
F0.01
sg773
F0.3
sssg781
F0.56
sg789
F-1.0
sg805
S'2014AcA....64...11K;'
p2763
sg814
F0.726
sg822
F1.006
sg830
F-1.0
sg838
S'0022'
p2764
sg847
F-1.0
sg855
F-1.0
sg863
F-1.0
sg871
F0.015
sg879
F-1.0
sg887
g197
sg895
F-1.0
sg903
F0.764462809917356
sg911
g912
sg920
S'V54 M55 A'
p2765
sg929
F-1.0
sg937
F-1.0
sg945
S'K type'
p2766
sg954
F-1.0
sg965
F0.0938
sg973
F-1.0
sg984
F18.3
sg992
F6251.0
sg1000
g2745
sg1008
F-1.0
sg1016
F0.008
sg1024
F-1.0
sg1032
F-1.0
sg1040
F-1.0
sg1048
F-1.0
sg1056
F0.133
sg1064
F-1.0
sg1072
F-1.0
sg1080
F-1.0
sg1091
F-1.0
sg1099
g3
(g792
S'\x83\xc9\x05\x13\xd2\xd2\xb7@'
p2767
tp2768
Rp2769
sg1107
F-1.0
ssS'BHMCatS0027P'
p2770
(dp2771
g12
F-1.0
sg20
S'LSPM J1112+7626 B'
p2772
sg29
F4.861
sg37
S'LSPM J1112+7626'
p2773
sg46
I27
sg54
F2952.0
sg62
F0.014
sg70
F-1.0
sg78
F0.005
sg86
F0.3
sg94
F-1.0
sg102
F0.275
sg110
F41.032336
sg118
F-1.0
sg126
F76.449
sg134
g135
sg143
F-1.0
sg151
F0.005
sg159
S'M4V'
p2774
sg161
(lp2775
g163
asg347
F-1.0
sg355
S'EkCat'
p2776
sg364
F4.929
sg372
F89.71
sg380
S'113'
p2777
sg382
(dp2778
g384
(dp2779
g393
F10.0
sg401
F1.0
sg409
F0.0
sg417
F0.0
sg425
F1.0
sg433
F0.0
sg441
S"'early mars'"
p2780
sg450
g451
sg459
F6.0
sg467
F0.0
sg475
F1.000001
sg483
F0.01
sg491
F1.0
sg499
F0.0
sg507
F0.8
sg515
F10.0
sg523
F1.000001
sg531
F10.0
sg539
F1.5
sg547
F44.0
sg555
F0.0
sg563
F1.0
sg571
F10.0
sg579
S"'maximum greenhouse'"
p2781
sg588
F0.3
sg596
F5e+40
sg604
F0.01
sg612
F1.5
sg620
F2.0
sg628
F3.0
sg636
S'BCA98'
p2782
sg645
S'BCA98'
p2783
sg654
F1.0
sg662
F1.0
sg670
F5e+40
sg678
g679
sg687
F0.1
sg695
S'BHMCatS0027P'
p2784
sg704
g705
sg713
F10.0
sg721
S'LSPM J1112+7626'
p2785
sg730
S"'recent venus'"
p2786
sg739
S"'runaway greenhouse'"
p2787
sg748
F1.0
sg756
g757
sg765
F0.01
sg773
F0.3
sssg781
F-1.0
sg789
F-1.0
sg805
S'2011ApJ...742..123I;'
p2788
sg814
F0.395
sg822
F0.381
sg830
F11.211755555555555
sg838
S'0027'
p2789
sg847
F0.012
sg855
F-1.0
sg863
F-1.0
sg871
F0.002
sg879
F5.0
sg887
g197
sg895
F163.0
sg903
F0.69620253164557
sg911
S'DEBCat'
p2790
sg920
S'LSPM J1112+7626 A'
p2791
sg929
F-1.0
sg937
F48.1
sg945
S'M type'
p2792
sg954
F-1.0
sg965
F0.203875532085561
sg973
F-1.0
sg984
F12.015
sg992
F3061.0
sg1000
g2770
sg1008
F-1.0
sg1016
F0.001
sg1024
F-1.0
sg1032
F-1.0
sg1040
F-1.0
sg1048
F-1.0
sg1056
F0.239
sg1064
F-1.0
sg1072
F-1.0
sg1080
F-1.0
sg1091
F-1.0
sg1099
F-1.0
sg1107
F162.0
ssS'PlanetFieldsText'
p2793
(dp2794
g171
g3
(g4
(S'S12'
p2795
I0
I1
tp2796
Rp2797
(I3
S'|'
p2798
NNNI12
I1
I0
tp2799
bS'Plan.Cat.Id.'
p2800
tp2801
Rp2802
sg180
g3
(g4
(S'S7'
p2803
I0
I1
tp2804
Rp2805
(I3
S'|'
p2806
NNNI7
I1
I0
tp2807
bS'M_p,err'
p2808
tp2809
Rp2810
sg188
g3
(g4
(S'S5'
p2811
I0
I1
tp2812
Rp2813
(I3
S'|'
p2814
NNNI5
I1
I0
tp2815
bS'e_orb'
p2816
tp2817
Rp2818
sg196
g3
(g4
(S'S11'
p2819
I0
I1
tp2820
Rp2821
(I3
S'|'
p2822
NNNI11
I1
I0
tp2823
bS'Sys.Cat.Id.'
p2824
tp2825
Rp2826
sg205
g3
(g4
(S'S9'
p2827
I0
I1
tp2828
Rp2829
(I3
S'|'
p2830
NNNI9
I1
I0
tp2831
bS'e_orb,err'
p2832
tp2833
Rp2834
sg213
g3
(g4
(S'S3'
p2835
I0
I1
tp2836
Rp2837
(I3
S'|'
p2838
NNNI3
I1
I0
tp2839
bS'No.'
p2840
tp2841
Rp2842
sg222
g3
(g4
(S'S8'
p2843
I0
I1
tp2844
Rp2845
(I3
S'|'
p2846
NNNI8
I1
I0
tp2847
bS'ADS Link'
p2848
tp2849
Rp2850
sg231
g3
(g4
(S'S10'
p2851
I0
I1
tp2852
Rp2853
(I3
S'|'
p2854
NNNI10
I1
I0
tp2855
bS'Planet Id.'
p2856
tp2857
Rp2858
sg240
g3
(g4
(S'S3'
p2859
I0
I1
tp2860
Rp2861
(I3
S'|'
p2862
NNNI3
I1
I0
tp2863
bS'No.'
p2864
tp2865
Rp2866
sg249
g3
(g4
(S'S3'
p2867
I0
I1
tp2868
Rp2869
(I3
S'|'
p2870
NNNI3
I1
I0
tp2871
bS'R_p'
p2872
tp2873
Rp2874
sg257
g3
(g4
(S'S9'
p2875
I0
I1
tp2876
Rp2877
(I3
S'|'
p2878
NNNI9
I1
I0
tp2879
bS'a_orb,err'
p2880
tp2881
Rp2882
sg265
g3
(g4
(S'S10'
p2883
I0
I1
tp2884
Rp2885
(I3
S'|'
p2886
NNNI10
I1
I0
tp2887
bS'System Id.'
p2888
tp2889
Rp2890
sg274
g3
(g4
(S'S3'
p2891
I0
I1
tp2892
Rp2893
(I3
S'|'
p2894
NNNI3
I1
I0
tp2895
bS'M_p'
p2896
tp2897
Rp2898
sg282
g3
(g4
(S'S10'
p2899
I0
I1
tp2900
Rp2901
(I3
S'|'
p2902
NNNI10
I1
I0
tp2903
bS'\\omega_orb'
p2904
tp2905
Rp2906
sg290
g3
(g4
(S'S5'
p2907
I0
I1
tp2908
Rp2909
(I3
S'|'
p2910
NNNI5
I1
I0
tp2911
bS'a_orb'
p2912
tp2913
Rp2914
sg298
g3
(g4
(S'S9'
p2915
I0
I1
tp2916
Rp2917
(I3
S'|'
p2918
NNNI9
I1
I0
tp2919
bS'P_orb,err'
p2920
tp2921
Rp2922
sg306
g3
(g4
(S'S14'
p2923
I0
I1
tp2924
Rp2925
(I3
S'|'
p2926
NNNI14
I1
I0
tp2927
bS'\\omega_orb,err'
p2928
tp2929
Rp2930
sg314
g3
(g4
(S'S5'
p2931
I0
I1
tp2932
Rp2933
(I3
S'|'
p2934
NNNI5
I1
I0
tp2935
bS'M_orb'
p2936
tp2937
Rp2938
sg322
g3
(g4
(S'S5'
p2939
I0
I1
tp2940
Rp2941
(I3
S'|'
p2942
NNNI5
I1
I0
tp2943
bS'P_orb'
p2944
tp2945
Rp2946
sg330
g3
(g4
(S'S4'
p2947
I0
I1
tp2948
Rp2949
(I3
S'|'
p2950
NNNI4
I1
I0
tp2951
bS'Type'
p2952
tp2953
Rp2954
sg339
g3
(g4
(S'S7'
p2955
I0
I1
tp2956
Rp2957
(I3
S'|'
p2958
NNNI7
I1
I0
tp2959
bS'R_p,err'
p2960
tp2961
Rp2962
ssS'BHMCatS0021P'
p2963
(dp2964
g12
F-1.0
sg20
S'KX Cnc B'
p2965
sg29
F-1.0
sg37
S'KX Cnc'
p2966
sg46
I21
sg54
F5847.0
sg62
F-1.0
sg70
F-1.0
sg78
F0.002
sg86
F1.049
sg94
F-1.0
sg102
F1.131
sg110
F31.22
sg118
F-1.0
sg126
F31.86138888888889
sg134
g135
sg143
F-1.0
sg151
F0.002
sg159
S'G0V'
p2967
sg161
(lp2968
g163
asg347
F-1.0
sg355
S'DEBCat'
p2969
sg364
F-1.0
sg372
F-1.0
sg380
S'39'
p2970
sg382
(dp2971
g384
(dp2972
g393
F10.0
sg401
F1.0
sg409
F0.0
sg417
F0.0
sg425
F1.0
sg433
F0.0
sg441
S"'early mars'"
p2973
sg450
g451
sg459
F6.0
sg467
F0.0
sg475
F1.000001
sg483
F0.01
sg491
F1.0
sg499
F0.0
sg507
F0.8
sg515
F10.0
sg523
F1.000001
sg531
F10.0
sg539
F1.5
sg547
F44.0
sg555
F0.0
sg563
F1.0
sg571
F10.0
sg579
S"'maximum greenhouse'"
p2974
sg588
F0.3
sg596
F5e+40
sg604
F0.01
sg612
F1.5
sg620
F2.0
sg628
F3.0
sg636
S'BCA98'
p2975
sg645
S'BCA98'
p2976
sg654
F1.0
sg662
F1.0
sg670
F5e+40
sg678
g679
sg687
F0.1
sg695
S'BHMCatS0021P'
p2977
sg704
g705
sg713
F10.0
sg721
S'KX Cnc'
p2978
sg730
S"'recent venus'"
p2979
sg739
S"'runaway greenhouse'"
p2980
sg748
F1.0
sg756
g757
sg765
F0.01
sg773
F0.3
sssg781
F0.56
sg789
F-1.0
sg805
S'2006PZP.....6...14D;'
p2981
sg814
F1.138
sg822
F1.064
sg830
F8.71275
sg838
S'0021'
p2982
sg847
F-1.0
sg855
F-1.0
sg863
F-1.0
sg871
F0.003
sg879
F-1.0
sg887
g197
sg895
F-1.0
sg903
F0.993848857644991
sg911
g912
sg920
S'KX Cnc A'
p2983
sg929
F-1.0
sg937
F-1.0
sg945
S'G0V'
p2984
sg954
F-1.0
sg965
F0.2553
sg973
F-1.0
sg984
F7.19
sg992
F5902.0
sg1000
g2963
sg1008
F-1.0
sg1016
F0.003
sg1024
F-1.0
sg1032
F-1.0
sg1040
F-1.0
sg1048
F-1.0
sg1056
F0.4666
sg1064
F-1.0
sg1072
F-1.0
sg1080
F-1.0
sg1091
F-1.0
sg1099
g3
(g792
S'\x91\xac\xf7z\xc5DF@'
p2985
tp2986
Rp2987
sg1107
F-1.0
ssS'BHMCatS0047P'
p2988
(dp2989
g12
F-1.0
sg20
S'EW Ori B'
p2990
sg29
F4.372
sg37
S'EW Ori'
p2991
sg46
I47
sg54
F5900.0
sg62
F0.005
sg70
F-1.0
sg78
F0.005
sg86
F1.097
sg94
F-1.0
sg102
F1.123
sg110
F6.93684324
sg118
F-1.0
sg126
F2.044436111111111
sg134
g135
sg143
F0.6
sg151
F0.005
sg159
S'G0V'
p2992
sg161
(lp2993
g163
asg347
F-1.0
sg355
S'EkCat'
p2994
sg364
F4.408
sg372
F89.86
sg380
S'49'
p2995
sg382
(dp2996
g384
(dp2997
g393
F10.0
sg401
F1.0
sg409
F0.0
sg417
F0.0
sg425
F1.0
sg433
F0.0
sg441
S"'early mars'"
p2998
sg450
g451
sg459
F6.0
sg467
F0.0
sg475
F1.000001
sg483
F0.01
sg491
F1.0
sg499
F0.0
sg507
F0.8
sg515
F10.0
sg523
F1.000001
sg531
F10.0
sg539
F1.5
sg547
F44.0
sg555
F0.0
sg563
F1.0
sg571
F10.0
sg579
S"'maximum greenhouse'"
p2999
sg588
F0.3
sg596
F5e+40
sg604
F0.01
sg612
F1.5
sg620
F2.0
sg628
F3.0
sg636
S'BCA98'
p3000
sg645
S'BCA98'
p3001
sg654
F1.0
sg662
F1.0
sg670
F5e+40
sg678
g679
sg687
F0.1
sg695
S'BHMCatS0047P'
p3002
sg704
g705
sg713
F10.0
sg721
S'EW Ori'
p3003
sg730
S"'recent venus'"
p3004
sg739
S"'runaway greenhouse'"
p3005
sg748
F1.0
sg756
g757
sg765
F0.01
sg773
F0.3
sssg781
F-1.0
sg789
g3
(g792
S'\x8b\x8aRZpA\x1a@'
p3006
tp3007
Rp3008
sg805
S'2010A&A...511A..22C;'
p3009
sg814
F1.173
sg822
F1.168
sg830
F5.335875
sg838
S'0047'
p3010
sg847
F0.005
sg855
F-1.0
sg863
F-1.0
sg871
F0.011
sg879
F7.0
sg887
g197
sg895
F95.0
sg903
F0.957374254049446
sg911
g912
sg920
S'EW Ori A'
p3011
sg929
F-1.0
sg937
F175.0
sg945
S'G5V'
p3012
sg954
g3
(g792
S'\x83^\x7f\x88E\x83\xdb?'
p3013
tp3014
Rp3015
sg965
F0.0939316949197861
sg973
g3
(g792
S'N\xc1t\x12U8\x19@'
p3016
tp3017
Rp3018
sg984
F9.795
sg992
F6070.0
sg1000
g2988
sg1008
F-1.0
sg1016
F0.009
sg1024
F0.7
sg1032
F-1.0
sg1040
F-1.0
sg1048
F-1.0
sg1056
F0.076
sg1064
F9.0
sg1072
F-1.0
sg1080
g3
(g792
S'4V\xd8\x87:V\xe0?'
p3019
tp3020
Rp3021
sg1091
F8.8
sg1099
F-1.0
sg1107
F95.0
ssS'BHMCatS0020V'
p3022
(dp3023
g12
F0.0
sg20
S'NICHE-012 B'
p3024
sg29
F-2.0
sg37
S'NICHE-012'
p3025
sg46
I20
sg54
F-2.0
sg62
F-2.0
sg70
F-2.0
sg78
F0.0
sg86
F-2.0
sg94
F-2.0
sg102
F0.55
sg110
F30.0
sg118
g3
(g792
S'0\xa8\x1bgj\x94\x8f?'
p3026
tp3027
Rp3028
sg126
F-2.0
sg134
g1421
sg143
F-2.0
sg151
F0.0
sg159
g197
sg161
(lp3029
g163
asg347
F-1.0
sg355
S'NICHE'
p3030
sg364
F-2.0
sg372
F-2.0
sg380
S'12'
p3031
sg382
(dp3032
g384
(dp3033
g393
F10.0
sg401
F1.0
sg409
F0.0
sg417
F0.0
sg425
F1.0
sg433
F0.0
sg441
S"'early mars'"
p3034
sg450
g451
sg459
F6.0
sg467
F0.0
sg475
F1.000001
sg483
F0.01
sg491
F1.0
sg499
F0.0
sg507
F0.8
sg515
F10.0
sg523
F1.000001
sg531
F10.0
sg539
F1.5
sg547
F44.0
sg555
F0.0
sg563
F1.0
sg571
F10.0
sg579
S"'maximum greenhouse'"
p3035
sg588
F0.3
sg596
F5e+40
sg604
F0.01
sg612
F1.5
sg620
F2.0
sg628
F3.0
sg636
S'BCA98'
p3036
sg645
S'BCA98'
p3037
sg654
F1.0
sg662
F1.0
sg670
F5e+40
sg678
g679
sg687
F0.1
sg695
S'BHMCatS0020V'
p3038
sg704
g705
sg713
F10.0
sg721
S'NICHE-012'
p3039
sg730
S"'recent venus'"
p3040
sg739
S"'runaway greenhouse'"
p3041
sg748
F1.0
sg756
g757
sg765
F0.01
sg773
F0.3
sssg781
F-2.0
sg789
F-1.0
sg805
g197
sg814
F0.7
sg822
F-2.0
sg830
F-2.0
sg838
S'0020'
p3042
sg847
F-2.0
sg855
F-2.0
sg863
F-2.0
sg871
F0.0
sg879
F-1.0
sg887
g197
sg895
F-2.0
sg903
F0.785714285714286
sg911
g912
sg920
S'NICHE-012 A'
p3043
sg929
F-2.0
sg937
F-1.0
sg945
g197
sg954
F-1.0
sg965
F0.13745934281605
sg973
F-1.0
sg984
F-2.0
sg992
F-2.0
sg1000
g3022
sg1008
F-2.0
sg1016
F0.0
sg1024
F-2.0
sg1032
F-1.0
sg1040
F-1.0
sg1048
F-2.0
sg1056
F0.3
sg1064
F-2.0
sg1072
F-1.0
sg1080
F-1.0
sg1091
F-2.0
sg1099
F-1.0
sg1107
F-2.0
ssS'BHMCatS0034P'
p3044
(dp3045
g12
F-1.0
sg20
S'V568 Lyr  B'
p3046
sg29
F4.178
sg37
S'V568 Lyr'
p3047
sg46
I34
sg54
F4900.0
sg62
F0.008
sg70
F-1.0
sg78
F0.016
sg86
F0.768
sg94
F-1.0
sg102
F0.827
sg110
F14.469918
sg118
F-1.0
sg126
F37.75963888888889
sg134
g135
sg143
F-1.0
sg151
F0.006
sg159
S'G type'
p3048
sg161
(lp3049
g163
asg347
F-1.0
sg355
S'EkCat'
p3050
sg364
F4.586
sg372
F89.76
sg380
S'188'
p3051
sg382
(dp3052
g384
(dp3053
g393
F10.0
sg401
F1.0
sg409
F0.0
sg417
F0.0
sg425
F1.0
sg433
F0.0
sg441
S"'early mars'"
p3054
sg450
g451
sg459
F6.0
sg467
F0.0
sg475
F1.000001
sg483
F0.01
sg491
F1.0
sg499
F0.0
sg507
F0.8
sg515
F10.0
sg523
F1.000001
sg531
F10.0
sg539
F1.5
sg547
F44.0
sg555
F0.0
sg563
F1.0
sg571
F10.0
sg579
S"'maximum greenhouse'"
p3055
sg588
F0.3
sg596
F5e+40
sg604
F0.01
sg612
F1.5
sg620
F2.0
sg628
F3.0
sg636
S'BCA98'
p3056
sg645
S'BCA98'
p3057
sg654
F1.0
sg662
F1.0
sg670
F5e+40
sg678
g679
sg687
F0.1
sg695
S'BHMCatS0034P'
p3058
sg704
g705
sg713
F10.0
sg721
S'V568 Lyr'
p3059
sg730
S"'recent venus'"
p3060
sg739
S"'runaway greenhouse'"
p3061
sg748
F1.0
sg756
g757
sg765
F0.01
sg773
F0.3
sssg781
F-1.0
sg789
F-1.0
sg805
S'2008A&A...492..171G;'
p3062
sg814
F1.074
sg822
F1.399
sg830
F19.348416666666665
sg838
S'0034'
p3063
sg847
F0.01
sg855
F-1.0
sg863
F-1.0
sg871
F0.008
sg879
F187.0
sg887
g197
sg895
F100.0
sg903
F0.770018621973929
sg911
S'DEBCat'
p3064
sg920
S'V568 Lyr  A'
p3065
sg929
F-1.0
sg937
F3972.0
sg945
S'K type'
p3066
sg954
F-1.0
sg965
F0.14406273328877
sg973
F-1.0
sg984
F16.91
sg992
F5665.0
sg1000
g3044
sg1008
F-1.0
sg1016
F0.004
sg1024
F-1.0
sg1032
F-1.0
sg1040
F-1.0
sg1048
F-1.0
sg1056
F0.0
sg1064
F-1.0
sg1072
F-1.0
sg1080
F-1.0
sg1091
F-1.0
sg1099
F-1.0
sg1107
F100.0
ssS'BHMCatS0004D'
p3067
(dp3068
g12
F-0.11
sg20
S'Kepler-38 B'
p3069
sg29
F4.47
sg37
S'Kepler-38'
p3070
sg46
I4
sg54
F3325.0
sg62
F-1.0
sg70
F-1.0
sg78
F0.003
sg86
F0.272
sg94
F13.0
sg102
F0.249
sg110
F18.795
sg118
g3
(g792
S'\xf0\xd5|I\xa8\xd3\x88?'
p3071
tp3072
Rp3073
sg126
F42.279205555555556
sg134
g1287
sg143
F-1.0
sg151
F0.005
sg159
S'G type'
p3074
sg161
(lp3075
(dp3076
g171
S'BHMCatP0004'
p3077
sg180
F0.0
sg188
F0.032
sg196
S'BHMCatS004D'
p3078
sg205
F-1.0
sg213
S'4'
p3079
sg222
S'2012Sci...337.1511O'
p3080
sg231
S'Kepler-38b'
p3081
sg240
S'0004'
p3082
sg249
F4.3763741955736934
sg257
F0.0082
sg265
S'Kepler-38'
p3083
sg274
F120.82984494826027
sg282
F-1.0
sg290
F0.4644
sg298
F0.038
sg306
F0.0
sg314
F1.198
sg322
F105.595
sg330
g1297
sg339
F0.11221472296342803
sasg347
F268.68
sg355
S'KIC'
p3084
sg364
F4.964
sg372
F89.412
sg380
S'6762829'
p3085
sg382
(dp3086
S'BHMCatP0004'
p3087
(dp3088
g393
F10.0
sg401
F1.0
sg409
F0.0
sg417
F0.0
sg425
F10.0
sg433
F-0.11
sg441
S"'early mars'"
p3089
sg450
S"'trend'"
p3090
sg459
F6.0
sg467
F0.0
sg475
F4.37637419557369
sg483
F0.01
sg491
F1.0
sg499
F-0.11
sg507
F0.8
sg515
F10.0
sg523
F120.82984494826
sg531
F10.0
sg539
F1.5
sg547
F44.0
sg555
F0.0
sg563
F1.0
sg571
F10.0
sg579
S"'maximum greenhouse'"
p3091
sg588
F0.3
sg596
F5e+40
sg604
F0.01
sg612
F1.5
sg620
F2.0
sg628
F3.0
sg636
S'BCA98'
p3092
sg645
S'BCA98'
p3093
sg654
F1.0
sg662
F10.0
sg670
F5e+40
sg678
S'BHMCatP0004'
p3094
sg687
F0.1
sg695
S'BHMCatS0004D'
p3095
sg704
S'Kepler-38b'
p3096
sg713
F10.0
sg721
S'Kepler-38'
p3097
sg730
S"'recent venus'"
p3098
sg739
S"'runaway greenhouse'"
p3099
sg748
F10.0
sg756
S"'Earth'"
p3100
sg765
F0.01
sg773
F0.3
sssg781
F0.096
sg789
g3
(g792
S'\xc3W\x8b\x85C\x83B@'
p3101
tp3102
Rp3103
sg805
S'2012ApJ...758...87O;'
p3104
sg814
F0.949
sg822
F1.757
sg830
F19.122025
sg838
S'0004'
p3105
sg847
F0.011
sg855
F-1.0
sg863
F-1.0
sg871
F0.055
sg879
F-1.0
sg887
S'BHMCatP0004;'
p3106
sg895
F-1.0
sg903
F0.262381454162276
sg911
g912
sg920
S'Kepler-38 A'
p3107
sg929
F-1.0
sg937
F-1.0
sg945
S'M type'
p3108
sg954
F-1.0
sg965
F0.1469
sg973
F-1.0
sg984
F13.941
sg992
F5623.0
sg1000
g3067
sg1008
F-1.0
sg1016
F0.007
sg1024
F0.5
sg1032
F-1.0
sg1040
F-0.158
sg1048
F7.0
sg1056
F0.1032
sg1064
F2.4
sg1072
g3
(g792
S'\x95\x00#\x0cUZ\x86?'
p3109
tp3110
Rp3111
sg1080
g3
(g792
S'\x9b\xe7\x92\xde\xc5\xda\x1e@'
p3112
tp3113
Rp3114
sg1091
F-1.0
sg1099
g3
(g792
S'\x84pS\xf9Vl\x90@'
p3115
tp3116
Rp3117
sg1107
F50.0
ssS'BHMCatS0023P'
p3118
(dp3119
g12
F-1.0
sg20
S'V66 M4 B'
p3120
sg29
F-1.0
sg37
S'V66 M4'
p3121
sg46
I23
sg54
F5943.0
sg62
F-1.0
sg70
F-1.0
sg78
F0.005
sg86
F0.83
sg94
F-1.0
sg102
F0.744
sg110
F8.111
sg118
F-1.0
sg126
F-25.471861111111114
sg134
g135
sg143
F-1.0
sg151
F0.005
sg159
S'G type'
p3122
sg161
(lp3123
g163
asg347
F-1.0
sg355
S'DEBCat'
p3124
sg364
F-1.0
sg372
F-1.0
sg380
S'28'
p3125
sg382
(dp3126
g384
(dp3127
g393
F10.0
sg401
F1.0
sg409
F0.0
sg417
F0.0
sg425
F1.0
sg433
F0.0
sg441
S"'early mars'"
p3128
sg450
g451
sg459
F6.0
sg467
F0.0
sg475
F1.000001
sg483
F0.01
sg491
F1.0
sg499
F0.0
sg507
F0.8
sg515
F10.0
sg523
F1.000001
sg531
F10.0
sg539
F1.5
sg547
F44.0
sg555
F0.0
sg563
F1.0
sg571
F10.0
sg579
S"'maximum greenhouse'"
p3129
sg588
F0.3
sg596
F5e+40
sg604
F0.01
sg612
F1.5
sg620
F2.0
sg628
F3.0
sg636
S'BCA98'
p3130
sg645
S'BCA98'
p3131
sg654
F1.0
sg662
F1.0
sg670
F5e+40
sg678
g679
sg687
F0.1
sg695
S'BHMCatS0023P'
p3132
sg704
g705
sg713
F10.0
sg721
S'V66 M4'
p3133
sg730
S"'recent venus'"
p3134
sg739
S"'runaway greenhouse'"
p3135
sg748
F1.0
sg756
g757
sg765
F0.01
sg773
F0.3
sssg781
F0.88
sg789
F-1.0
sg805
S'2013AJ....145...43K;'
p3136
sg814
F0.784
sg822
F0.935
sg830
F16.392286111111112
sg838
S'0023'
p3137
sg847
F-1.0
sg855
F-1.0
sg863
F-1.0
sg871
F0.005
sg879
F-1.0
sg887
g197
sg895
F-1.0
sg903
F0.948979591836735
sg911
g912
sg920
S'V66 M4 A'
p3138
sg929
F-1.0
sg937
F-1.0
sg945
S'G type'
p3139
sg954
F-1.0
sg965
F0.091
sg973
F-1.0
sg984
F16.84
sg992
F6165.0
sg1000
g3118
sg1008
F-1.0
sg1016
F0.004
sg1024
F-1.0
sg1032
F-1.0
sg1040
F-1.0
sg1048
F-1.0
sg1056
F0.0
sg1064
F-1.0
sg1072
F-1.0
sg1080
F-1.0
sg1091
F-1.0
sg1099
g3
(g792
S'\xae\x1a\xc5y#\xe2\xaa@'
p3140
tp3141
Rp3142
sg1107
F-1.0
ssS'BHMCatS0043P'
p3143
(dp3144
g12
F-1.0
sg20
S'M4-V66 B'
p3145
sg29
F4.388
sg37
S'M4-V66'
p3146
sg46
I43
sg54
F5938.0
sg62
F0.085
sg70
F-1.0
sg78
F0.005
sg86
F0.83
sg94
F-1.0
sg102
F0.744
sg110
F8.11130346
sg118
F-1.0
sg126
F-25.471861111111114
sg134
g135
sg143
F-1.0
sg151
F0.005
sg159
S'F type'
p3147
sg161
(lp3148
g163
asg347
F-1.0
sg355
S'EkCat'
p3149
sg364
F4.469
sg372
F89.44
sg380
S'140'
p3150
sg382
(dp3151
g384
(dp3152
g393
F10.0
sg401
F1.0
sg409
F0.0
sg417
F0.0
sg425
F1.0
sg433
F0.0
sg441
S"'early mars'"
p3153
sg450
g451
sg459
F6.0
sg467
F0.0
sg475
F1.000001
sg483
F0.01
sg491
F1.0
sg499
F0.0
sg507
F0.8
sg515
F10.0
sg523
F1.000001
sg531
F10.0
sg539
F1.5
sg547
F44.0
sg555
F0.0
sg563
F1.0
sg571
F10.0
sg579
S"'maximum greenhouse'"
p3154
sg588
F0.3
sg596
F5e+40
sg604
F0.01
sg612
F1.5
sg620
F2.0
sg628
F3.0
sg636
S'BCA98'
p3155
sg645
S'BCA98'
p3156
sg654
F1.0
sg662
F1.0
sg670
F5e+40
sg678
g679
sg687
F0.1
sg695
S'BHMCatS0043P'
p3157
sg704
g705
sg713
F10.0
sg721
S'M4-V66'
p3158
sg730
S"'recent venus'"
p3159
sg739
S"'runaway greenhouse'"
p3160
sg748
F1.0
sg756
g757
sg765
F0.01
sg773
F0.3
sssg781
F-1.0
sg789
F-1.0
sg805
S'2013AJ....145...43K;'
p3161
sg814
F0.784
sg822
F0.934
sg830
F16.392286111111112
sg838
S'0043'
p3162
sg847
F0.077
sg855
F-1.0
sg863
F-1.0
sg871
F0.004
sg879
F30.0
sg887
g197
sg895
F105.0
sg903
F0.948979591836735
sg911
g912
sg920
S'M4-V66 A'
p3163
sg929
F-1.0
sg937
F1850.0
sg945
S'G type'
p3164
sg954
F-1.0
sg965
F0.0910457855614973
sg973
F-1.0
sg984
F16.84
sg992
F6162.0
sg1000
g3143
sg1008
F-1.0
sg1016
F0.004
sg1024
F-1.0
sg1032
F-1.0
sg1040
F-1.0
sg1048
F-1.0
sg1056
F0.0
sg1064
F-1.0
sg1072
F-1.0
sg1080
F-1.0
sg1091
F-1.0
sg1099
F-1.0
sg1107
F98.0
ssS'BHMCatS0006D'
p3165
(dp3166
g12
F-0.15
sg20
S'Kepler-64 B'
p3167
sg29
F4.658
sg37
S'Kepler-64'
p3168
sg46
I6
sg54
F3561.0
sg62
F-1.0
sg70
F-1.0
sg78
F0.044
sg86
F0.408
sg94
F2.0
sg102
F0.378
sg110
F20.0
sg118
g3
(g792
S'\x1f\xe4\x96\xebQ\xbf\x86?'
p3169
tp3170
Rp3171
sg126
F39.9551
sg134
g1287
sg143
F-1.0
sg151
F0.024
sg159
S'F type'
p3172
sg161
(lp3173
(dp3174
g171
S'BHMCatP0007'
p3175
sg180
F82.67305180670441
sg188
F0.0539
sg196
S'BHMCatS006D'
p3176
sg205
F0.0081
sg213
g2021
sg222
S'2013ApJ...768..127S;2013ApJ...770...52K'
p3177
sg231
S'Kepler-64b'
p3178
sg240
S'0007'
p3179
sg249
F6.20547417987757
sg257
F0.011
sg265
S'Kepler-64'
p3180
sg274
F168.52583637520513
sg282
F-1.0
sg290
F0.634
sg298
F0.1
sg306
F0.0
sg314
F1.906
sg322
F138.506
sg330
g1297
sg339
F0.16832208444514205
sasg347
F218.56
sg355
S'KIC'
p3181
sg364
F-1.0
sg372
F87.36
sg380
S'4862625'
p3182
sg382
(dp3183
S'BHMCatP0007'
p3184
(dp3185
g393
F10.0
sg401
F1.0
sg409
F0.0
sg417
F0.0
sg425
F1.5
sg433
F-0.15
sg441
S"'early mars'"
p3186
sg450
S"'trend'"
p3187
sg459
F6.0
sg467
F0.0
sg475
F6.20547417987757
sg483
F0.01
sg491
F1.0
sg499
F-0.15
sg507
F0.8
sg515
F10.0
sg523
F168.525836375205
sg531
F10.0
sg539
F1.5
sg547
F44.0
sg555
F0.0
sg563
F1.0
sg571
F10.0
sg579
S"'maximum greenhouse'"
p3188
sg588
F0.3
sg596
F5e+40
sg604
F0.01
sg612
F1.5
sg620
F2.0
sg628
F3.0
sg636
S'BCA98'
p3189
sg645
S'BCA98'
p3190
sg654
F1.0
sg662
F1.5
sg670
F5e+40
sg678
S'BHMCatP0007'
p3191
sg687
F0.1
sg695
S'BHMCatS0006D'
p3192
sg704
S'Kepler-64b'
p3193
sg713
F10.0
sg721
S'Kepler-64'
p3194
sg730
S"'recent venus'"
p3195
sg739
S"'runaway greenhouse'"
p3196
sg748
F1.5
sg756
S"'Earth'"
p3197
sg765
F0.01
sg773
F0.3
sssg781
F0.107
sg789
g3
(g792
S'\x94\x0b\xed\xa8\xcf\x7f\x05@'
p3198
tp3199
Rp3200
sg805
S'2013ApJ...768..127S; 2013ApJ...770...52K;'
p3201
sg814
F1.528
sg822
F1.734
sg830
F19.881006666666668
sg838
S'0006'
p3202
sg847
F-1.0
sg855
F-1.0
sg863
F-1.0
sg871
F0.087
sg879
F-1.0
sg887
S'BHMCatP0007;'
p3203
sg895
F150.0
sg903
F0.24738219895288
sg911
g912
sg920
S'Kepler-64 A'
p3204
sg929
F-1.0
sg937
F-1.0
sg945
S'M type'
p3205
sg954
F-1.0
sg965
F0.1744
sg973
F-1.0
sg984
F13.718
sg992
F6407.0
sg1000
g3165
sg1008
F-1.0
sg1016
F0.023
sg1024
F2.0
sg1032
F-1.0
sg1040
F-0.217
sg1048
F1.0
sg1056
F0.2117
sg1064
F32.6
sg1072
g3
(g792
S'h3|\x07\xbb\xa5\x83?'
p3206
tp3207
Rp3208
sg1080
g3
(g792
S'n\x92\xae\x97\x83\x1a\xc5?'
p3209
tp3210
Rp3211
sg1091
F-1.0
sg1099
g3
(g792
S'\xca\x19\xa8%\xd0\xfe\x93@'
p3212
tp3213
Rp3214
sg1107
F150.0
ssS'BHMCatS0010V'
p3215
(dp3216
g12
F0.0
sg20
S'NICHE-002 B'
p3217
sg29
F-2.0
sg37
S'NICHE-002'
p3218
sg46
I10
sg54
F-2.0
sg62
F-2.0
sg70
F-2.0
sg78
F0.0
sg86
F-2.0
sg94
F-2.0
sg102
F0.85
sg110
F20.0
sg118
g3
(g792
S'0\xa8\x1bgj\x94\x8f?'
p3219
tp3220
Rp3221
sg126
F-2.0
sg134
g1421
sg143
F-2.0
sg151
F0.0
sg159
g197
sg161
(lp3222
g163
asg347
F-1.0
sg355
S'NICHE'
p3223
sg364
F-2.0
sg372
F-2.0
sg380
S'2'
p3224
sg382
(dp3225
g384
(dp3226
g393
F10.0
sg401
F1.0
sg409
F0.0
sg417
F0.0
sg425
F1.0
sg433
F0.0
sg441
S"'early mars'"
p3227
sg450
g451
sg459
F6.0
sg467
F0.0
sg475
F1.000001
sg483
F0.01
sg491
F1.0
sg499
F0.0
sg507
F0.8
sg515
F10.0
sg523
F1.000001
sg531
F10.0
sg539
F1.5
sg547
F44.0
sg555
F0.0
sg563
F1.0
sg571
F10.0
sg579
S"'maximum greenhouse'"
p3228
sg588
F0.3
sg596
F5e+40
sg604
F0.01
sg612
F1.5
sg620
F2.0
sg628
F3.0
sg636
S'BCA98'
p3229
sg645
S'BCA98'
p3230
sg654
F1.0
sg662
F1.0
sg670
F5e+40
sg678
g679
sg687
F0.1
sg695
S'BHMCatS0010V'
p3231
sg704
g705
sg713
F10.0
sg721
S'NICHE-002'
p3232
sg730
S"'recent venus'"
p3233
sg739
S"'runaway greenhouse'"
p3234
sg748
F1.0
sg756
g757
sg765
F0.01
sg773
F0.3
sssg781
F-2.0
sg789
F-1.0
sg805
g197
sg814
F1.0
sg822
F-2.0
sg830
F-2.0
sg838
S'0010'
p3235
sg847
F-2.0
sg855
F-2.0
sg863
F-2.0
sg871
F0.0
sg879
F-1.0
sg887
g197
sg895
F-2.0
sg903
F0.85
sg911
g912
sg920
S'NICHE-002 A'
p3236
sg929
F-2.0
sg937
F-1.0
sg945
g197
sg954
F-1.0
sg965
F0.136594377290218
sg973
F-1.0
sg984
F-2.0
sg992
F-2.0
sg1000
g3215
sg1008
F-2.0
sg1016
F0.0
sg1024
F-2.0
sg1032
F-1.0
sg1040
F-1.0
sg1048
F-2.0
sg1056
F0.5
sg1064
F-2.0
sg1072
F-1.0
sg1080
F-1.0
sg1091
F-2.0
sg1099
F-1.0
sg1107
F-2.0
ssS'BHMCatS0044P'
p3237
(dp3238
g12
F-1.0
sg20
S'CD-80 28 B'
p3239
sg29
F3.57835330017799
sg37
S'CD-80 28'
p3240
sg46
I44
sg54
F-1.0
sg62
F0.1
sg70
F-1.0
sg78
F0.33
sg86
F4.06
sg94
F-1.0
sg102
F1.384
sg110
F8.069406
sg118
F-1.0
sg126
F-79.93870555555556
sg134
g135
sg143
F-1.0
sg151
F0.41
sg159
S'K2'
p3241
sg161
(lp3242
g163
asg347
F-1.0
sg355
S'EkCat'
p3243
sg364
F3.36193240197991
sg372
F80.4
sg380
g2021
sg382
(dp3244
g384
(dp3245
g393
F10.0
sg401
F1.0
sg409
F0.0
sg417
F0.0
sg425
F1.0
sg433
F0.0
sg441
S"'early mars'"
p3246
sg450
g451
sg459
F6.0
sg467
F0.0
sg475
F1.000001
sg483
F0.01
sg491
F1.0
sg499
F0.0
sg507
F0.8
sg515
F10.0
sg523
F1.000001
sg531
F10.0
sg539
F1.5
sg547
F44.0
sg555
F0.0
sg563
F1.0
sg571
F10.0
sg579
S"'maximum greenhouse'"
p3247
sg588
F0.3
sg596
F5e+40
sg604
F0.01
sg612
F1.5
sg620
F2.0
sg628
F3.0
sg636
S'BCA98'
p3248
sg645
S'BCA98'
p3249
sg654
F1.0
sg662
F1.0
sg670
F5e+40
sg678
g679
sg687
F0.1
sg695
S'BHMCatS0044P'
p3250
sg704
g705
sg713
F10.0
sg721
S'CD-80 28'
p3251
sg730
S"'recent venus'"
p3252
sg739
S"'runaway greenhouse'"
p3253
sg748
F1.0
sg756
g757
sg765
F0.01
sg773
F0.3
sssg781
F-1.0
sg789
F-1.0
sg805
S'2008AN....329..835B;'
p3254
sg814
F1.38
sg822
F3.16
sg830
F1.0939444444444444
sg838
S'0044'
p3255
sg847
F0.104
sg855
F-1.0
sg863
F-1.0
sg871
F0.055
sg879
F7.0
sg887
g197
sg895
F-1.0
sg903
F1.00289855072464
sg911
g912
sg920
S'CD-80 28 A'
p3256
sg929
F-1.0
sg937
F71.0
sg945
g197
sg954
F-1.0
sg965
F0.108919804812834
sg973
F-1.0
sg984
F10.177
sg992
F-1.0
sg1000
g3237
sg1008
F-1.0
sg1016
F0.055
sg1024
F-1.0
sg1032
F-1.0
sg1040
F-1.0
sg1048
F-1.0
sg1056
F0.0
sg1064
F-1.0
sg1072
F-1.0
sg1080
F-1.0
sg1091
F-1.0
sg1099
F-1.0
sg1107
F-1.0
ssS'BHMCatS0051P'
p3257
(dp3258
g12
F-1.0
sg20
S'BD-02 873 B'
p3259
sg29
F4.14665265525305
sg37
S'BD-02 873'
p3260
sg46
I51
sg54
F-1.0
sg62
F0.196
sg70
F-1.0
sg78
F0.29
sg86
F1.43
sg94
F-1.0
sg102
F1.179
sg110
F6.47649
sg118
F-1.0
sg126
F-0.26017500000000005
sg134
g135
sg143
F-1.0
sg151
F0.26
sg159
S'G3.5'
p3261
sg161
(lp3262
g163
asg347
F-1.0
sg355
S'EkCat'
p3263
sg364
F4.19869010917852
sg372
F88.5
sg380
S'40'
p3264
sg382
(dp3265
g384
(dp3266
g393
F10.0
sg401
F1.0
sg409
F0.0
sg417
F0.0
sg425
F1.0
sg433
F0.0
sg441
S"'early mars'"
p3267
sg450
g451
sg459
F6.0
sg467
F0.0
sg475
F1.000001
sg483
F0.01
sg491
F1.0
sg499
F0.0
sg507
F0.8
sg515
F10.0
sg523
F1.000001
sg531
F10.0
sg539
F1.5
sg547
F44.0
sg555
F0.0
sg563
F1.0
sg571
F10.0
sg579
S"'maximum greenhouse'"
p3268
sg588
F0.3
sg596
F5e+40
sg604
F0.01
sg612
F1.5
sg620
F2.0
sg628
F3.0
sg636
S'BCA98'
p3269
sg645
S'BCA98'
p3270
sg654
F1.0
sg662
F1.0
sg670
F5e+40
sg678
g679
sg687
F0.1
sg695
S'BHMCatS0051P'
p3271
sg704
g705
sg713
F10.0
sg721
S'BD-02 873'
p3272
sg730
S"'recent venus'"
p3273
sg739
S"'runaway greenhouse'"
p3274
sg748
F1.0
sg756
g757
sg765
F0.01
sg773
F0.3
sssg781
F-1.0
sg789
F-1.0
sg805
S'2007A&A...474..653V;'
p3275
sg814
F1.293
sg822
F1.59
sg830
F4.344713888888888
sg838
S'0051'
p3276
sg847
F0.197
sg855
F-1.0
sg863
F-1.0
sg871
F0.009
sg879
F17.0
sg887
g197
sg895
F-1.0
sg903
F0.911832946635731
sg911
g912
sg920
S'BD-02 873 A'
p3277
sg929
F-1.0
sg937
F129.0
sg945
g197
sg954
F-1.0
sg965
F0.0919767240641711
sg973
F-1.0
sg984
F8.621
sg992
F-1.0
sg1000
g3257
sg1008
F-1.0
sg1016
F0.009
sg1024
F-1.0
sg1032
F-1.0
sg1040
F-1.0
sg1048
F-1.0
sg1056
F0.132
sg1064
F-1.0
sg1072
F-1.0
sg1080
F-1.0
sg1091
F-1.0
sg1099
F-1.0
sg1107
F-1.0
ssS'BHMCatS0014V'
p3278
(dp3279
g12
F0.0
sg20
S'NICHE-006 B'
p3280
sg29
F-2.0
sg37
S'NICHE-006'
p3281
sg46
I14
sg54
F-2.0
sg62
F-2.0
sg70
F-2.0
sg78
F0.0
sg86
F-2.0
sg94
F-2.0
sg102
F0.55
sg110
F12.0
sg118
g3
(g792
S'0\xa8\x1bgj\x94\x8f?'
p3282
tp3283
Rp3284
sg126
F-2.0
sg134
g1421
sg143
F-2.0
sg151
F0.0
sg159
g197
sg161
(lp3285
g163
asg347
F-1.0
sg355
S'NICHE'
p3286
sg364
F-2.0
sg372
F-2.0
sg380
g1734
sg382
(dp3287
g384
(dp3288
g393
F10.0
sg401
F1.0
sg409
F0.0
sg417
F0.0
sg425
F1.0
sg433
F0.0
sg441
S"'early mars'"
p3289
sg450
g451
sg459
F6.0
sg467
F0.0
sg475
F1.000001
sg483
F0.01
sg491
F1.0
sg499
F0.0
sg507
F0.8
sg515
F10.0
sg523
F1.000001
sg531
F10.0
sg539
F1.5
sg547
F44.0
sg555
F0.0
sg563
F1.0
sg571
F10.0
sg579
S"'maximum greenhouse'"
p3290
sg588
F0.3
sg596
F5e+40
sg604
F0.01
sg612
F1.5
sg620
F2.0
sg628
F3.0
sg636
S'BCA98'
p3291
sg645
S'BCA98'
p3292
sg654
F1.0
sg662
F1.0
sg670
F5e+40
sg678
g679
sg687
F0.1
sg695
S'BHMCatS0014V'
p3293
sg704
g705
sg713
F10.0
sg721
S'NICHE-006'
p3294
sg730
S"'recent venus'"
p3295
sg739
S"'runaway greenhouse'"
p3296
sg748
F1.0
sg756
g757
sg765
F0.01
sg773
F0.3
sssg781
F-2.0
sg789
F-1.0
sg805
g197
sg814
F1.0
sg822
F-2.0
sg830
F-2.0
sg838
S'0014'
p3297
sg847
F-2.0
sg855
F-2.0
sg863
F-2.0
sg871
F0.0
sg879
F-1.0
sg887
g197
sg895
F-2.0
sg903
F0.55
sg911
g912
sg920
S'NICHE-006 A'
p3298
sg929
F-2.0
sg937
F-1.0
sg945
g197
sg954
F-1.0
sg965
F0.0840455862285011
sg973
F-1.0
sg984
F-2.0
sg992
F-2.0
sg1000
g3278
sg1008
F-2.0
sg1016
F0.0
sg1024
F-2.0
sg1032
F-1.0
sg1040
F-1.0
sg1048
F-2.0
sg1056
F0.1
sg1064
F-2.0
sg1072
F-1.0
sg1080
F-1.0
sg1091
F-2.0
sg1099
F-1.0
sg1107
F-2.0
ssS'BHMCatS0012V'
p3299
(dp3300
g12
F0.0
sg20
S'NICHE-004 B'
p3301
sg29
F-2.0
sg37
S'NICHE-004'
p3302
sg46
I12
sg54
F-2.0
sg62
F-2.0
sg70
F-2.0
sg78
F0.0
sg86
F-2.0
sg94
F-2.0
sg102
F0.7
sg110
F15.0
sg118
g3
(g792
S'0\xa8\x1bgj\x94\x8f?'
p3303
tp3304
Rp3305
sg126
F-2.0
sg134
g1421
sg143
F-2.0
sg151
F0.0
sg159
g197
sg161
(lp3306
g163
asg347
F-1.0
sg355
S'NICHE'
p3307
sg364
F-2.0
sg372
F-2.0
sg380
g3079
sg382
(dp3308
g384
(dp3309
g393
F10.0
sg401
F1.0
sg409
F0.0
sg417
F0.0
sg425
F1.0
sg433
F0.0
sg441
S"'early mars'"
p3310
sg450
g451
sg459
F6.0
sg467
F0.0
sg475
F1.000001
sg483
F0.01
sg491
F1.0
sg499
F0.0
sg507
F0.8
sg515
F10.0
sg523
F1.000001
sg531
F10.0
sg539
F1.5
sg547
F44.0
sg555
F0.0
sg563
F1.0
sg571
F10.0
sg579
S"'maximum greenhouse'"
p3311
sg588
F0.3
sg596
F5e+40
sg604
F0.01
sg612
F1.5
sg620
F2.0
sg628
F3.0
sg636
S'BCA98'
p3312
sg645
S'BCA98'
p3313
sg654
F1.0
sg662
F1.0
sg670
F5e+40
sg678
g679
sg687
F0.1
sg695
S'BHMCatS0012V'
p3314
sg704
g705
sg713
F10.0
sg721
S'NICHE-004'
p3315
sg730
S"'recent venus'"
p3316
sg739
S"'runaway greenhouse'"
p3317
sg748
F1.0
sg756
g757
sg765
F0.01
sg773
F0.3
sssg781
F-2.0
sg789
F-1.0
sg805
g197
sg814
F1.0
sg822
F-2.0
sg830
F-2.0
sg838
S'0012'
p3318
sg847
F-2.0
sg855
F-2.0
sg863
F-2.0
sg871
F0.0
sg879
F-1.0
sg887
g197
sg895
F-2.0
sg903
F0.7
sg911
g912
sg920
S'NICHE-004 A'
p3319
sg929
F-2.0
sg937
F-1.0
sg945
g197
sg954
F-1.0
sg965
F0.105689871441817
sg973
F-1.0
sg984
F-2.0
sg992
F-2.0
sg1000
g3299
sg1008
F-2.0
sg1016
F0.0
sg1024
F-2.0
sg1032
F-1.0
sg1040
F-1.0
sg1048
F-2.0
sg1056
F0.4
sg1064
F-2.0
sg1072
F-1.0
sg1080
F-1.0
sg1091
F-2.0
sg1099
F-1.0
sg1107
F-2.0
ssS'BHMCatS0041P'
p3320
(dp3321
g12
F-1.0
sg20
S'ASAS J162637-5042.8  B'
p3322
sg29
F3.7917898139359
sg37
S'ASAS J162637-5042.8'
p3323
sg46
I41
sg54
F-1.0
sg62
F0.151
sg70
F-1.0
sg78
F0.33
sg86
F2.25
sg94
F-1.0
sg102
F1.246
sg110
F8.87621
sg118
F-1.0
sg126
F-49.2863
sg134
g135
sg143
F-1.0
sg151
F0.33
sg159
S'G1'
p3324
sg161
(lp3325
g163
asg347
F-1.0
sg355
S'EkCat'
p3326
sg364
F3.82900138511398
sg372
F85.6
sg380
S'143'
p3327
sg382
(dp3328
g384
(dp3329
g393
F10.0
sg401
F1.0
sg409
F0.0
sg417
F0.0
sg425
F1.0
sg433
F0.0
sg441
S"'early mars'"
p3330
sg450
g451
sg459
F6.0
sg467
F0.0
sg475
F1.000001
sg483
F0.01
sg491
F1.0
sg499
F0.0
sg507
F0.8
sg515
F10.0
sg523
F1.000001
sg531
F10.0
sg539
F1.5
sg547
F44.0
sg555
F0.0
sg563
F1.0
sg571
F10.0
sg579
S"'maximum greenhouse'"
p3331
sg588
F0.3
sg596
F5e+40
sg604
F0.01
sg612
F1.5
sg620
F2.0
sg628
F3.0
sg636
S'BCA98'
p3332
sg645
S'BCA98'
p3333
sg654
F1.0
sg662
F1.0
sg670
F5e+40
sg678
g679
sg687
F0.1
sg695
S'BHMCatS0041P'
p3334
sg704
g705
sg713
F10.0
sg721
S'ASAS J162637-5042.8'
p3335
sg730
S"'recent venus'"
p3336
sg739
S"'runaway greenhouse'"
p3337
sg748
F1.0
sg756
g757
sg765
F0.01
sg773
F0.3
sssg781
F-1.0
sg789
F-1.0
sg805
S'2008AN....329..835B;'
p3338
sg814
F1.469
sg822
F2.55
sg830
F16.443722222222224
sg838
S'0041'
p3339
sg847
F0.13
sg855
F-1.0
sg863
F-1.0
sg871
F0.008
sg879
F19.0
sg887
g197
sg895
F-1.0
sg903
F0.848196051735875
sg911
g912
sg920
S'ASAS J162637-5042.8  A'
p3340
sg929
F-1.0
sg937
F200.0
sg945
g197
sg954
F-1.0
sg965
F0.117112063636364
sg973
F-1.0
sg984
F9.868
sg992
F-1.0
sg1000
g3320
sg1008
F-1.0
sg1016
F0.007
sg1024
F-1.0
sg1032
F-1.0
sg1040
F-1.0
sg1048
F-1.0
sg1056
F0.019
sg1064
F-1.0
sg1072
F-1.0
sg1080
F-1.0
sg1091
F-1.0
sg1099
F-1.0
sg1107
F-1.0
ssS'BHMCatS0016V'
p3341
(dp3342
g12
F0.0
sg20
S'NICHE-008 B'
p3343
sg29
F-2.0
sg37
S'NICHE-008'
p3344
sg46
I16
sg54
F-2.0
sg62
F-2.0
sg70
F-2.0
sg78
F0.0
sg86
F-2.0
sg94
F-2.0
sg102
F0.7
sg110
F20.0
sg118
g3
(g792
S'0\xa8\x1bgj\x94\x8f?'
p3345
tp3346
Rp3347
sg126
F-2.0
sg134
g1421
sg143
F-2.0
sg151
F0.0
sg159
g197
sg161
(lp3348
g163
asg347
F-1.0
sg355
S'NICHE'
p3349
sg364
F-2.0
sg372
F-2.0
sg380
g1528
sg382
(dp3350
g384
(dp3351
g393
F10.0
sg401
F1.0
sg409
F0.0
sg417
F0.0
sg425
F1.0
sg433
F0.0
sg441
S"'early mars'"
p3352
sg450
g451
sg459
F6.0
sg467
F0.0
sg475
F1.000001
sg483
F0.01
sg491
F1.0
sg499
F0.0
sg507
F0.8
sg515
F10.0
sg523
F1.000001
sg531
F10.0
sg539
F1.5
sg547
F44.0
sg555
F0.0
sg563
F1.0
sg571
F10.0
sg579
S"'maximum greenhouse'"
p3353
sg588
F0.3
sg596
F5e+40
sg604
F0.01
sg612
F1.5
sg620
F2.0
sg628
F3.0
sg636
S'BCA98'
p3354
sg645
S'BCA98'
p3355
sg654
F1.0
sg662
F1.0
sg670
F5e+40
sg678
g679
sg687
F0.1
sg695
S'BHMCatS0016V'
p3356
sg704
g705
sg713
F10.0
sg721
S'NICHE-008'
p3357
sg730
S"'recent venus'"
p3358
sg739
S"'runaway greenhouse'"
p3359
sg748
F1.0
sg756
g757
sg765
F0.01
sg773
F0.3
sssg781
F-2.0
sg789
F-1.0
sg805
g197
sg814
F0.85
sg822
F-2.0
sg830
F-2.0
sg838
S'0016'
p3360
sg847
F-2.0
sg855
F-2.0
sg863
F-2.0
sg871
F0.0
sg879
F-1.0
sg887
g197
sg895
F-2.0
sg903
F0.823529411764706
sg911
g912
sg920
S'NICHE-008 A'
p3361
sg929
F-2.0
sg937
F-1.0
sg945
g197
sg954
F-1.0
sg965
F0.121282694211523
sg973
F-1.0
sg984
F-2.0
sg992
F-2.0
sg1000
g3341
sg1008
F-2.0
sg1016
F0.0
sg1024
F-2.0
sg1032
F-1.0
sg1040
F-1.0
sg1048
F-2.0
sg1056
F0.3
sg1064
F-2.0
sg1072
F-1.0
sg1080
F-1.0
sg1091
F-2.0
sg1099
F-1.0
sg1107
F-2.0
ssS'BHMCatS0002D'
p3362
(dp3363
g12
F-0.263
sg20
S'Kepler-34 B'
p3364
sg29
F4.442
sg37
S'Kepler-34'
p3365
sg46
I2
sg54
F5867.0
sg62
F-1.0
sg70
F-1.0
sg78
F0.003
sg86
F1.093
sg94
F2.9
sg102
F1.021
sg110
F27.796
sg118
g3
(g792
S'\x949l\xffz\xc4\x81?'
p3366
tp3367
Rp3368
sg126
F44.64156111111111
sg134
g1287
sg143
F-1.0
sg151
F0.003
sg159
S'G0V'
p3369
sg161
(lp3370
(dp3371
g171
S'BHMCatP0002'
p3372
sg180
F3.1797327617963234
sg188
F0.182
sg196
S'BHMCatS002D'
p3373
sg205
F0.018
sg213
g3224
sg222
S'2012Natur.481..475W;2012yCatp038048101W'
p3374
sg231
S'Kepler-34b'
p3375
sg240
S'0002'
p3376
sg249
F8.573204834405901
sg257
F0.0009
sg265
S'Kepler-34'
p3377
sg274
F69.95412075951911
sg282
F-1.0
sg290
F1.0896
sg298
F0.072
sg306
F0.0
sg314
F2.069
sg322
F288.822
sg330
g1297
sg339
F0.14587913985245643
sasg347
F71.436
sg355
S'KIC'
p3378
sg364
F-1.0
sg372
F89.8584
sg380
S'8572936'
p3379
sg382
(dp3380
S'BHMCatP0002'
p3381
(dp3382
g393
F10.0
sg401
F1.0
sg409
F0.0
sg417
F0.0
sg425
F2.45
sg433
F-0.263
sg441
S"'early mars'"
p3383
sg450
S"'trend'"
p3384
sg459
F6.0
sg467
F0.0
sg475
F8.5732048344059
sg483
F0.01
sg491
F1.0
sg499
F-0.263
sg507
F0.8
sg515
F10.0
sg523
F69.9541207595191
sg531
F10.0
sg539
F1.5
sg547
F44.0
sg555
F0.0
sg563
F1.0
sg571
F10.0
sg579
S"'maximum greenhouse'"
p3385
sg588
F0.3
sg596
F5e+40
sg604
F0.01
sg612
F1.5
sg620
F2.0
sg628
F3.0
sg636
S'BCA98'
p3386
sg645
S'BCA98'
p3387
sg654
F1.0
sg662
F2.45
sg670
F5e+40
sg678
S'BHMCatP0002'
p3388
sg687
F0.1
sg695
S'BHMCatS0002D'
p3389
sg704
S'Kepler-34b'
p3390
sg713
F10.0
sg721
S'Kepler-34'
p3391
sg730
S"'recent venus'"
p3392
sg739
S"'runaway greenhouse'"
p3393
sg748
F2.45
sg756
S"'Earth'"
p3394
sg765
F0.01
sg773
F0.3
sssg781
F0.148
sg789
g3
(g792
S'\x1e6\x10i\xba\xca0@'
p3395
tp3396
Rp3397
sg805
S'2012Natur.481..475W; 2012yCatp038048101W;'
p3398
sg814
F1.048
sg822
F1.162
sg830
F19.762388055555554
sg838
S'0002'
p3399
sg847
F-1.0
sg855
F-1.0
sg863
F1.5
sg871
F0.003
sg879
F-1.0
sg887
S'BHMCatP0002;'
p3400
sg895
F130.0
sg903
F0.974236641221374
sg911
g912
sg920
S'Kepler-34 A'
p3401
sg929
F16.5
sg937
F-1.0
sg945
S'G0V'
p3402
sg954
F-1.0
sg965
F0.2288
sg973
F-1.0
sg984
F14.875
sg992
F5913.0
sg1000
g3362
sg1008
F-1.0
sg1016
F0.002
sg1024
F0.5
sg1032
F-1.0
sg1040
F-0.263
sg1048
F2.0
sg1056
F0.5209
sg1064
F3.5
sg1072
g3
(g792
S'\x949l\xffz\xc4\x81?'
p3403
tp3404
Rp3405
sg1080
g3
(g792
S'\x90\xab[\n\xd50\x03@'
p3406
tp3407
Rp3408
sg1091
F-1.0
sg1099
g3
(g792
S'\xc4d2\x8d\x9a\xbf\x99@'
p3409
tp3410
Rp3411
sg1107
F130.0
ssS'FieldsType'
p3412
(dp3413
g12
g3
(g4
(S'S5'
p3414
I0
I1
tp3415
Rp3416
(I3
S'|'
p3417
NNNI5
I1
I0
tp3418
bS'float'
p3419
tp3420
Rp3421
sg20
g3
(g4
(S'S3'
p3422
I0
I1
tp3423
Rp3424
(I3
S'|'
p3425
NNNI3
I1
I0
tp3426
bS'str'
p3427
tp3428
Rp3429
sg29
g3
(g4
(S'S5'
p3430
I0
I1
tp3431
Rp3432
(I3
S'|'
p3433
NNNI5
I1
I0
tp3434
bS'float'
p3435
tp3436
Rp3437
sg37
g3
(g4
(S'S3'
p3438
I0
I1
tp3439
Rp3440
(I3
S'|'
p3441
NNNI3
I1
I0
tp3442
bS'str'
p3443
tp3444
Rp3445
sg46
g3
(g4
(S'S3'
p3446
I0
I1
tp3447
Rp3448
(I3
S'|'
p3449
NNNI3
I1
I0
tp3450
bS'int'
p3451
tp3452
Rp3453
sg54
g3
(g4
(S'S5'
p3454
I0
I1
tp3455
Rp3456
(I3
S'|'
p3457
NNNI5
I1
I0
tp3458
bS'float'
p3459
tp3460
Rp3461
sg62
g3
(g4
(S'S5'
p3462
I0
I1
tp3463
Rp3464
(I3
S'|'
p3465
NNNI5
I1
I0
tp3466
bS'float'
p3467
tp3468
Rp3469
sg70
g3
(g4
(S'S5'
p3470
I0
I1
tp3471
Rp3472
(I3
S'|'
p3473
NNNI5
I1
I0
tp3474
bS'float'
p3475
tp3476
Rp3477
sg78
g3
(g4
(S'S5'
p3478
I0
I1
tp3479
Rp3480
(I3
S'|'
p3481
NNNI5
I1
I0
tp3482
bS'float'
p3483
tp3484
Rp3485
sg86
g3
(g4
(S'S5'
p3486
I0
I1
tp3487
Rp3488
(I3
S'|'
p3489
NNNI5
I1
I0
tp3490
bS'float'
p3491
tp3492
Rp3493
sg94
g3
(g4
(S'S5'
p3494
I0
I1
tp3495
Rp3496
(I3
S'|'
p3497
NNNI5
I1
I0
tp3498
bS'float'
p3499
tp3500
Rp3501
sg102
g3
(g4
(S'S5'
p3502
I0
I1
tp3503
Rp3504
(I3
S'|'
p3505
NNNI5
I1
I0
tp3506
bS'float'
p3507
tp3508
Rp3509
sg110
g3
(g4
(S'S5'
p3510
I0
I1
tp3511
Rp3512
(I3
S'|'
p3513
NNNI5
I1
I0
tp3514
bS'float'
p3515
tp3516
Rp3517
sg118
g3
(g4
(S'S5'
p3518
I0
I1
tp3519
Rp3520
(I3
S'|'
p3521
NNNI5
I1
I0
tp3522
bS'float'
p3523
tp3524
Rp3525
sg126
g3
(g4
(S'S3'
p3526
I0
I1
tp3527
Rp3528
(I3
S'|'
p3529
NNNI3
I1
I0
tp3530
bS'dms'
p3531
tp3532
Rp3533
sg134
g3
(g4
(S'S3'
p3534
I0
I1
tp3535
Rp3536
(I3
S'|'
p3537
NNNI3
I1
I0
tp3538
bS'str'
p3539
tp3540
Rp3541
sg143
g3
(g4
(S'S5'
p3542
I0
I1
tp3543
Rp3544
(I3
S'|'
p3545
NNNI5
I1
I0
tp3546
bS'float'
p3547
tp3548
Rp3549
sg151
g3
(g4
(S'S5'
p3550
I0
I1
tp3551
Rp3552
(I3
S'|'
p3553
NNNI5
I1
I0
tp3554
bS'float'
p3555
tp3556
Rp3557
sg159
g3
(g4
(S'S3'
p3558
I0
I1
tp3559
Rp3560
(I3
S'|'
p3561
NNNI3
I1
I0
tp3562
bS'str'
p3563
tp3564
Rp3565
sg347
g3
(g4
(S'S5'
p3566
I0
I1
tp3567
Rp3568
(I3
S'|'
p3569
NNNI5
I1
I0
tp3570
bS'float'
p3571
tp3572
Rp3573
sg355
g3
(g4
(S'S3'
p3574
I0
I1
tp3575
Rp3576
(I3
S'|'
p3577
NNNI3
I1
I0
tp3578
bS'str'
p3579
tp3580
Rp3581
sg364
g3
(g4
(S'S5'
p3582
I0
I1
tp3583
Rp3584
(I3
S'|'
p3585
NNNI5
I1
I0
tp3586
bS'float'
p3587
tp3588
Rp3589
sg372
g3
(g4
(S'S5'
p3590
I0
I1
tp3591
Rp3592
(I3
S'|'
p3593
NNNI5
I1
I0
tp3594
bS'float'
p3595
tp3596
Rp3597
sg380
g3
(g4
(S'S3'
p3598
I0
I1
tp3599
Rp3600
(I3
S'|'
p3601
NNNI3
I1
I0
tp3602
bS'str'
p3603
tp3604
Rp3605
sg781
g3
(g4
(S'S5'
p3606
I0
I1
tp3607
Rp3608
(I3
S'|'
p3609
NNNI5
I1
I0
tp3610
bS'float'
p3611
tp3612
Rp3613
sg789
g3
(g4
(S'S5'
p3614
I0
I1
tp3615
Rp3616
(I3
S'|'
p3617
NNNI5
I1
I0
tp3618
bS'float'
p3619
tp3620
Rp3621
sg805
g3
(g4
(S'S3'
p3622
I0
I1
tp3623
Rp3624
(I3
S'|'
p3625
NNNI3
I1
I0
tp3626
bS'str'
p3627
tp3628
Rp3629
sg814
g3
(g4
(S'S5'
p3630
I0
I1
tp3631
Rp3632
(I3
S'|'
p3633
NNNI5
I1
I0
tp3634
bS'float'
p3635
tp3636
Rp3637
sg822
g3
(g4
(S'S5'
p3638
I0
I1
tp3639
Rp3640
(I3
S'|'
p3641
NNNI5
I1
I0
tp3642
bS'float'
p3643
tp3644
Rp3645
sg830
g3
(g4
(S'S3'
p3646
I0
I1
tp3647
Rp3648
(I3
S'|'
p3649
NNNI3
I1
I0
tp3650
bS'dms'
p3651
tp3652
Rp3653
sg838
g3
(g4
(S'S3'
p3654
I0
I1
tp3655
Rp3656
(I3
S'|'
p3657
NNNI3
I1
I0
tp3658
bS'str'
p3659
tp3660
Rp3661
sg847
g3
(g4
(S'S5'
p3662
I0
I1
tp3663
Rp3664
(I3
S'|'
p3665
NNNI5
I1
I0
tp3666
bS'float'
p3667
tp3668
Rp3669
sg855
g3
(g4
(S'S5'
p3670
I0
I1
tp3671
Rp3672
(I3
S'|'
p3673
NNNI5
I1
I0
tp3674
bS'float'
p3675
tp3676
Rp3677
sg863
g3
(g4
(S'S5'
p3678
I0
I1
tp3679
Rp3680
(I3
S'|'
p3681
NNNI5
I1
I0
tp3682
bS'float'
p3683
tp3684
Rp3685
sg871
g3
(g4
(S'S5'
p3686
I0
I1
tp3687
Rp3688
(I3
S'|'
p3689
NNNI5
I1
I0
tp3690
bS'float'
p3691
tp3692
Rp3693
sg879
g3
(g4
(S'S5'
p3694
I0
I1
tp3695
Rp3696
(I3
S'|'
p3697
NNNI5
I1
I0
tp3698
bS'float'
p3699
tp3700
Rp3701
sg887
g3
(g4
(S'S3'
p3702
I0
I1
tp3703
Rp3704
(I3
S'|'
p3705
NNNI3
I1
I0
tp3706
bS'str'
p3707
tp3708
Rp3709
sg895
g3
(g4
(S'S5'
p3710
I0
I1
tp3711
Rp3712
(I3
S'|'
p3713
NNNI5
I1
I0
tp3714
bS'float'
p3715
tp3716
Rp3717
sg903
g3
(g4
(S'S5'
p3718
I0
I1
tp3719
Rp3720
(I3
S'|'
p3721
NNNI5
I1
I0
tp3722
bS'float'
p3723
tp3724
Rp3725
sg911
g3
(g4
(S'S3'
p3726
I0
I1
tp3727
Rp3728
(I3
S'|'
p3729
NNNI3
I1
I0
tp3730
bS'str'
p3731
tp3732
Rp3733
sg920
g3
(g4
(S'S3'
p3734
I0
I1
tp3735
Rp3736
(I3
S'|'
p3737
NNNI3
I1
I0
tp3738
bS'str'
p3739
tp3740
Rp3741
sg929
g3
(g4
(S'S5'
p3742
I0
I1
tp3743
Rp3744
(I3
S'|'
p3745
NNNI5
I1
I0
tp3746
bS'float'
p3747
tp3748
Rp3749
sg937
g3
(g4
(S'S5'
p3750
I0
I1
tp3751
Rp3752
(I3
S'|'
p3753
NNNI5
I1
I0
tp3754
bS'float'
p3755
tp3756
Rp3757
sg945
g3
(g4
(S'S3'
p3758
I0
I1
tp3759
Rp3760
(I3
S'|'
p3761
NNNI3
I1
I0
tp3762
bS'str'
p3763
tp3764
Rp3765
sg954
g3
(g4
(S'S5'
p3766
I0
I1
tp3767
Rp3768
(I3
S'|'
p3769
NNNI5
I1
I0
tp3770
bS'float'
p3771
tp3772
Rp3773
sg965
g3
(g4
(S'S5'
p3774
I0
I1
tp3775
Rp3776
(I3
S'|'
p3777
NNNI5
I1
I0
tp3778
bS'float'
p3779
tp3780
Rp3781
sg973
g3
(g4
(S'S5'
p3782
I0
I1
tp3783
Rp3784
(I3
S'|'
p3785
NNNI5
I1
I0
tp3786
bS'float'
p3787
tp3788
Rp3789
sg984
g3
(g4
(S'S5'
p3790
I0
I1
tp3791
Rp3792
(I3
S'|'
p3793
NNNI5
I1
I0
tp3794
bS'float'
p3795
tp3796
Rp3797
sg992
g3
(g4
(S'S5'
p3798
I0
I1
tp3799
Rp3800
(I3
S'|'
p3801
NNNI5
I1
I0
tp3802
bS'float'
p3803
tp3804
Rp3805
sg1000
g3
(g4
(S'S3'
p3806
I0
I1
tp3807
Rp3808
(I3
S'|'
p3809
NNNI3
I1
I0
tp3810
bS'str'
p3811
tp3812
Rp3813
sg1008
g3
(g4
(S'S5'
p3814
I0
I1
tp3815
Rp3816
(I3
S'|'
p3817
NNNI5
I1
I0
tp3818
bS'float'
p3819
tp3820
Rp3821
sg1016
g3
(g4
(S'S5'
p3822
I0
I1
tp3823
Rp3824
(I3
S'|'
p3825
NNNI5
I1
I0
tp3826
bS'float'
p3827
tp3828
Rp3829
sg1024
g3
(g4
(S'S5'
p3830
I0
I1
tp3831
Rp3832
(I3
S'|'
p3833
NNNI5
I1
I0
tp3834
bS'float'
p3835
tp3836
Rp3837
sg1032
g3
(g4
(S'S5'
p3838
I0
I1
tp3839
Rp3840
(I3
S'|'
p3841
NNNI5
I1
I0
tp3842
bS'float'
p3843
tp3844
Rp3845
sg1040
g3
(g4
(S'S5'
p3846
I0
I1
tp3847
Rp3848
(I3
S'|'
p3849
NNNI5
I1
I0
tp3850
bS'float'
p3851
tp3852
Rp3853
sg1048
g3
(g4
(S'S5'
p3854
I0
I1
tp3855
Rp3856
(I3
S'|'
p3857
NNNI5
I1
I0
tp3858
bS'float'
p3859
tp3860
Rp3861
sg1056
g3
(g4
(S'S5'
p3862
I0
I1
tp3863
Rp3864
(I3
S'|'
p3865
NNNI5
I1
I0
tp3866
bS'float'
p3867
tp3868
Rp3869
sg1064
g3
(g4
(S'S5'
p3870
I0
I1
tp3871
Rp3872
(I3
S'|'
p3873
NNNI5
I1
I0
tp3874
bS'float'
p3875
tp3876
Rp3877
sg1072
g3
(g4
(S'S5'
p3878
I0
I1
tp3879
Rp3880
(I3
S'|'
p3881
NNNI5
I1
I0
tp3882
bS'float'
p3883
tp3884
Rp3885
sg1080
g3
(g4
(S'S5'
p3886
I0
I1
tp3887
Rp3888
(I3
S'|'
p3889
NNNI5
I1
I0
tp3890
bS'float'
p3891
tp3892
Rp3893
sg1091
g3
(g4
(S'S5'
p3894
I0
I1
tp3895
Rp3896
(I3
S'|'
p3897
NNNI5
I1
I0
tp3898
bS'float'
p3899
tp3900
Rp3901
sg1099
g3
(g4
(S'S5'
p3902
I0
I1
tp3903
Rp3904
(I3
S'|'
p3905
NNNI5
I1
I0
tp3906
bS'float'
p3907
tp3908
Rp3909
sg1107
g3
(g4
(S'S5'
p3910
I0
I1
tp3911
Rp3912
(I3
S'|'
p3913
NNNI5
I1
I0
tp3914
bS'float'
p3915
tp3916
Rp3917
ss.